MPASM 5.81                   PICKBYLIGHT.ASM   1-20-2021  23:46:00         PAGE  1


LOC  OBJECT CODE     LINE SOURCE TEXT
  VALUE

                      00001 
                      00002 ; PICBASIC PRO(TM) Compiler 3.0.4.1, (c) 1998, 2011 microEngineering Labs, Inc. All Rights Reserved. 
  00000001            00003 MPASMX_USED                     EQU     1
                      00004 
                      00005 #define PBP_PATH        C:\PROGRAM FILES (X86)\PBP3\
                      00006 
                      00007 
                      00008 
                      00009 
                      00016         LIST
                      00017         LIST p = 18F4550, r = dec, w = -311, w = -230, f = inhx32
                      00018         INCLUDE "P18F4550.INC"  ; MPASM  Header
                      00001         LIST
                      00002 
                      00003 ;==========================================================================
                      00004 ; Build date : Jul 23 2018
                      00005 ;  MPASM PIC18F4550 processor include
                      00006 ; 
                      00007 ;  (c) Copyright 1999-2018 Microchip Technology, All rights reserved
                      00008 ;==========================================================================
                      00009 
                      01765         LIST
                      00021         LIST
  00F00000            00022 EEPROM_START    EQU     0F00000h
  00000020            00023 BLOCK_SIZE      EQU     32
                      00024 
                      00025 
                      00026 PBP_HARDWAREDEF  macro
                      00027   endm
                      00028 
                      00029 
                      00030 ;        __CONFIG    _CONFIG1L, _PLLDIV_5_1L & _CPUDIV_OSC1_PLL2_1L & _USBDIV_2_1L
                      00031 ;        __CONFIG    _CONFIG1H, _FOSC_HSPLL_HS_1H & _FCMEN_OFF_1H & _IESO_OFF_1H
                      00032 ;        __CONFIG    _CONFIG2L, _PWRT_OFF_2L & _BOR_ON_2L & _BORV_3_2L & _VREGEN_ON_2L
                      00033 ;        __CONFIG    _CONFIG2H, _WDT_ON_2H & _WDTPS_512_2H
                      00034 ;        __CONFIG    _CONFIG3H, _CCP2MX_ON_3H & _PBADEN_OFF_3H & _LPT1OSC_OFF_3H & _MCLRE_ON_3H
                      00035 ;        __CONFIG    _CONFIG4L, _STVREN_ON_4L & _LVP_OFF_4L & _ICPRT_OFF_4L & _XINST_OFF_4L
                      00036 
                      00037 
                      00038 
                      00039 ; Define statements.
                      00040 ; C:\USERS\DMILOSAVLJEVIC\DOCUMENTS\PROJECT\TECOMATIC\PICKBYLIGHT\PICKBYLIGHT.PBP       00014       DEFI
                            NE OSC 8
                      00041 #define         OSC              8
                      00042 ; C:\USERS\DMILOSAVLJEVIC\DOCUMENTS\PROJECT\TECOMATIC\PICKBYLIGHT\PICKBYLIGHT.PBP       00027       DEFI
                            NE SER2_BITS 8
                      00043 #define         SER2_BITS                8
                      00044 ; C:\USERS\DMILOSAVLJEVIC\DOCUMENTS\PROJECT\TECOMATIC\PICKBYLIGHT\PICKBYLIGHT.PBP       00028       DEFI
                            NE CHAR_PACING 1000
                      00045 #define         CHAR_PACING              1000
                      00046 ; C:\USERS\DMILOSAVLJEVIC\DOCUMENTS\PROJECT\TECOMATIC\PICKBYLIGHT\DT_INTS-18.BAS        00020   DEFINE  
                            INTHAND       INT_ENTRY_H  ' Context saving for High Priority Ints
                      00047 #define         INTHAND                INT_ENTRY_H  
MPASM 5.81                   PICKBYLIGHT.ASM   1-20-2021  23:46:00         PAGE  2


LOC  OBJECT CODE     LINE SOURCE TEXT
  VALUE

                      00048 ; C:\USERS\DMILOSAVLJEVIC\DOCUMENTS\PROJECT\TECOMATIC\PICKBYLIGHT\DT_INTS-18.BAS        00021   DEFINE  
                            INTLHAND      INT_ENTRY_L  ' Context saving for Low Priority Ints
                      00049 #define         INTLHAND                      INT_ENTRY_L  
                      00050 ; C:\USERS\DMILOSAVLJEVIC\DOCUMENTS\PROJECT\TECOMATIC\PICKBYLIGHT\REENTERPBP-18.BAS     00022   DEFINE  
                             ReEnterHPused  1
                      00051 #define         ReEnterHPused             1
                      00052 
  00000000            00053 RAM_START                       EQU     00000h
  000007FF            00054 RAM_END                         EQU     007FFh
  00000008            00055 RAM_BANKS                       EQU     00008h
  00000060            00056 BANK0_START                     EQU     00060h
  000000FF            00057 BANK0_END                       EQU     000FFh
  00000100            00058 BANK1_START                     EQU     00100h
  000001FF            00059 BANK1_END                       EQU     001FFh
  00000200            00060 BANK2_START                     EQU     00200h
  000002FF            00061 BANK2_END                       EQU     002FFh
  00000300            00062 BANK3_START                     EQU     00300h
  000003FF            00063 BANK3_END                       EQU     003FFh
  00000400            00064 BANK4_START                     EQU     00400h
  000004FF            00065 BANK4_END                       EQU     004FFh
  00000500            00066 BANK5_START                     EQU     00500h
  000005FF            00067 BANK5_END                       EQU     005FFh
  00000600            00068 BANK6_START                     EQU     00600h
  000006FF            00069 BANK6_END                       EQU     006FFh
  00000700            00070 BANK7_START                     EQU     00700h
  000007FF            00071 BANK7_END                       EQU     007FFh
  00000000            00072 BANKA_START                     EQU     00000h
  0000005F            00073 BANKA_END                       EQU     0005Fh
                      00074 
                      00075 ; C:\PROGRAM FILES (X86)\PBP3\PBPPIC18.RAM      00028   A00000  FLAGS   VAR     BYTE BANKA SYSTEM       
                            ' Static flags
  00000000            00076 FLAGS                           EQU     RAM_START + 000h
                      00077 ; C:\PROGRAM FILES (X86)\PBP3\PBPPIC18.RAM      00027   A00001  GOP     VAR     BYTE BANKA SYSTEM       
                            ' Gen Op Parameter
  00000001            00078 GOP                             EQU     RAM_START + 001h
                      00079 ; C:\PROGRAM FILES (X86)\PBP3\PBPPIC18.RAM      00012   A00002  R0      VAR     WORD BANKA SYSTEM       
                            ' System Register
  00000002            00080 R0                              EQU     RAM_START + 002h
                      00081 ; C:\PROGRAM FILES (X86)\PBP3\PBPPIC18.RAM      00013   A00004  R1      VAR     WORD BANKA SYSTEM       
                            ' System Register
  00000004            00082 R1                              EQU     RAM_START + 004h
                      00083 ; C:\PROGRAM FILES (X86)\PBP3\PBPPIC18.RAM      00014   A00006  R2      VAR     WORD BANKA SYSTEM       
                            ' System Register
  00000006            00084 R2                              EQU     RAM_START + 006h
                      00085 ; C:\PROGRAM FILES (X86)\PBP3\PBPPIC18.RAM      00015   A00008  R3      VAR     WORD BANKA SYSTEM       
                            ' System Register
  00000008            00086 R3                              EQU     RAM_START + 008h
                      00087 ; C:\PROGRAM FILES (X86)\PBP3\PBPPIC18.RAM      00016   A0000A  R4      VAR     WORD BANKA SYSTEM       
                            ' System Register
  0000000A            00088 R4                              EQU     RAM_START + 00Ah
                      00089 ; C:\PROGRAM FILES (X86)\PBP3\PBPPIC18.RAM      00017   A0000C  R5      VAR     WORD BANKA SYSTEM       
                            ' System Register
  0000000C            00090 R5                              EQU     RAM_START + 00Ch
MPASM 5.81                   PICKBYLIGHT.ASM   1-20-2021  23:46:00         PAGE  3


LOC  OBJECT CODE     LINE SOURCE TEXT
  VALUE

                      00091 ; C:\PROGRAM FILES (X86)\PBP3\PBPPIC18.RAM      00018   A0000E  R6      VAR     WORD BANKA SYSTEM       
                            ' System Register
  0000000E            00092 R6                              EQU     RAM_START + 00Eh
                      00093 ; C:\PROGRAM FILES (X86)\PBP3\PBPPIC18.RAM      00019   A00010  R7      VAR     WORD BANKA SYSTEM       
                            ' System Register
  00000010            00094 R7                              EQU     RAM_START + 010h
                      00095 ; C:\PROGRAM FILES (X86)\PBP3\PBPPIC18.RAM      00020   A00012  R8      VAR     WORD BANKA SYSTEM       
                            ' System Register
  00000012            00096 R8                              EQU     RAM_START + 012h
                      00097 ; C:\USERS\DMILOSAVLJEVIC\DOCUMENTS\PROJECT\TECOMATIC\PICKBYLIGHT\PICKBYLIGHT.PBP       00001   A00014  
                              '*********************************************************************
  00000014            00098 T1                              EQU     RAM_START + 014h
                      00099 ; C:\USERS\DMILOSAVLJEVIC\DOCUMENTS\PROJECT\TECOMATIC\PICKBYLIGHT\PICKBYLIGHT.PBP       00001   A00016  
                              '*********************************************************************
  00000016            00100 T2                              EQU     RAM_START + 016h
                      00101 ; C:\USERS\DMILOSAVLJEVIC\DOCUMENTS\PROJECT\TECOMATIC\PICKBYLIGHT\PICKBYLIGHT.PBP       00001   A00018  
                              '*********************************************************************
  00000018            00102 T3                              EQU     RAM_START + 018h
                      00103 ; C:\USERS\DMILOSAVLJEVIC\DOCUMENTS\PROJECT\TECOMATIC\PICKBYLIGHT\PICKBYLIGHT.PBP       00001   A0001A  
                              '*********************************************************************
  0000001A            00104 T4                              EQU     RAM_START + 01Ah
                      00105 ; C:\USERS\DMILOSAVLJEVIC\DOCUMENTS\PROJECT\TECOMATIC\PICKBYLIGHT\DT_INTS-18.BAS        00038   A0001C  
                            INT_Flags   VAR BYTE  BANKA  SYSTEM
  0000001C            00106 INT_Flags                       EQU     RAM_START + 01Ch
                      00107 ; C:\PROGRAM FILES (X86)\PBP3\PBPPIC18.RAM      00023   A0001D  RM1     VAR     BYTE BANKA SYSTEM       
                            ' Pin 1 Mask
  0000001D            00108 RM1                             EQU     RAM_START + 01Dh
                      00109 ; C:\PROGRAM FILES (X86)\PBP3\PBPPIC18.RAM      00026   A0001E  RM2     VAR     BYTE BANKA SYSTEM       
                            ' Pin 2 Mask
  0000001E            00110 RM2                             EQU     RAM_START + 01Eh
                      00111 ; C:\PROGRAM FILES (X86)\PBP3\PBPPIC18.RAM      00021   A0001F  RR1     VAR     BYTE BANKA SYSTEM       
                            ' Pin 1 Register
  0000001F            00112 RR1                             EQU     RAM_START + 01Fh
                      00113 ; C:\PROGRAM FILES (X86)\PBP3\PBPPIC18.RAM      00024   A00020  RR2     VAR     BYTE BANKA SYSTEM       
                            ' Pin 2 Register
  00000020            00114 RR2                             EQU     RAM_START + 020h
                      00115 ; C:\PROGRAM FILES (X86)\PBP3\PBPPIC18.RAM      00022   A00021  RS1     VAR     BYTE BANKA SYSTEM       
                            ' Pin 1 Bank
  00000021            00116 RS1                             EQU     RAM_START + 021h
                      00117 ; C:\PROGRAM FILES (X86)\PBP3\PBPPIC18.RAM      00025   A00022  RS2     VAR     BYTE BANKA SYSTEM       
                            ' Pin 2 Bank
  00000022            00118 RS2                             EQU     RAM_START + 022h
                      00119 ; C:\USERS\DMILOSAVLJEVIC\DOCUMENTS\PROJECT\TECOMATIC\PICKBYLIGHT\DT_INTS-18.BAS        00023   A00023  
                            wsave       var byte  BANKA  SYSTEM   ' location for WREG
  00000023            00120 wsave                           EQU     RAM_START + 023h
                      00121 ; C:\USERS\DMILOSAVLJEVIC\DOCUMENTS\PROJECT\TECOMATIC\PICKBYLIGHT\DT_INTS-18.BAS        00036   A00024  
                            RetAddrH    VAR BYTE[3]  BANKA  SYSTEM  ' 21-bit return address Hi Pri.
  00000024            00122 RetAddrH                        EQU     RAM_START + 024h
                      00123 ; C:\USERS\DMILOSAVLJEVIC\DOCUMENTS\PROJECT\TECOMATIC\PICKBYLIGHT\DT_INTS-18.BAS        00037   A00027  
                            RetAddrL    VAR BYTE[3]  BANKA  SYSTEM  '                       Lo Pri.
  00000027            00124 RetAddrL                        EQU     RAM_START + 027h
                      00125 ; C:\USERS\DMILOSAVLJEVIC\DOCUMENTS\PROJECT\TECOMATIC\PICKBYLIGHT\PICKBYLIGHT.PBP       00001   A0002A  
                              '*********************************************************************
MPASM 5.81                   PICKBYLIGHT.ASM   1-20-2021  23:46:00         PAGE  4


LOC  OBJECT CODE     LINE SOURCE TEXT
  VALUE

  0000002A            00126 PB01                            EQU     RAM_START + 02Ah
                      00127 ; C:\USERS\DMILOSAVLJEVIC\DOCUMENTS\PROJECT\TECOMATIC\PICKBYLIGHT\PICKBYLIGHT.PBP       00001   A0002B  
                              '*********************************************************************
  0000002B            00128 PB02                            EQU     RAM_START + 02Bh
                      00129 ; C:\USERS\DMILOSAVLJEVIC\DOCUMENTS\PROJECT\TECOMATIC\PICKBYLIGHT\PICKBYLIGHT.PBP       00083   A0002C  
                                x                   var byte   
  0000002C            00130 _x                              EQU     RAM_START + 02Ch
                      00131 ; C:\USERS\DMILOSAVLJEVIC\DOCUMENTS\PROJECT\TECOMATIC\PICKBYLIGHT\PICKBYLIGHT.PBP       00066   A0002D  
                                tmp var byte[15]
  0000002D            00132 _tmp                            EQU     RAM_START + 02Dh
                      00133 ; C:\USERS\DMILOSAVLJEVIC\DOCUMENTS\PROJECT\TECOMATIC\PICKBYLIGHT\DT_INTS-18.BAS        00030   A00060  
                            fsave0H     var WORD  BANK0  SYSTEM   ' locations for FSR registers
  00000060            00134 fsave0H                         EQU     RAM_START + 060h
                      00135 ; C:\USERS\DMILOSAVLJEVIC\DOCUMENTS\PROJECT\TECOMATIC\PICKBYLIGHT\DT_INTS-18.BAS        00033   A00062  
                            fsave0L     var WORD  BANK0  SYSTEM   ' low priority FSR locations
  00000062            00136 fsave0L                         EQU     RAM_START + 062h
                      00137 ; C:\USERS\DMILOSAVLJEVIC\DOCUMENTS\PROJECT\TECOMATIC\PICKBYLIGHT\DT_INTS-18.BAS        00031   A00064  
                            fsave1H     var WORD  BANK0  SYSTEM
  00000064            00138 fsave1H                         EQU     RAM_START + 064h
                      00139 ; C:\USERS\DMILOSAVLJEVIC\DOCUMENTS\PROJECT\TECOMATIC\PICKBYLIGHT\DT_INTS-18.BAS        00034   A00066  
                            fsave1L     var WORD  BANK0  SYSTEM
  00000066            00140 fsave1L                         EQU     RAM_START + 066h
                      00141 ; C:\USERS\DMILOSAVLJEVIC\DOCUMENTS\PROJECT\TECOMATIC\PICKBYLIGHT\DT_INTS-18.BAS        00032   A00068  
                            fsave2H     var WORD  BANK0  SYSTEM
  00000068            00142 fsave2H                         EQU     RAM_START + 068h
                      00143 ; C:\USERS\DMILOSAVLJEVIC\DOCUMENTS\PROJECT\TECOMATIC\PICKBYLIGHT\DT_INTS-18.BAS        00035   A0006A  
                            fsave2L     var WORD  BANK0  SYSTEM
  0000006A            00144 fsave2L                         EQU     RAM_START + 06Ah
                      00145 ; C:\USERS\DMILOSAVLJEVIC\DOCUMENTS\PROJECT\TECOMATIC\PICKBYLIGHT\DT_INTS-18.BAS        00025   A0006C  
                            bsave       var byte  BANK0  SYSTEM   ' location for BSR register
  0000006C            00146 bsave                           EQU     RAM_START + 06Ch
                      00147 ; C:\USERS\DMILOSAVLJEVIC\DOCUMENTS\PROJECT\TECOMATIC\PICKBYLIGHT\DT_INTS-18.BAS        00028   A0006D  
                            psaveH      VAR BYTE  BANK0  SYSTEM   ' PCLATH Hi Pri.
  0000006D            00148 psaveH                          EQU     RAM_START + 06Dh
                      00149 ; C:\USERS\DMILOSAVLJEVIC\DOCUMENTS\PROJECT\TECOMATIC\PICKBYLIGHT\DT_INTS-18.BAS        00029   A0006E  
                            psaveL      VAR BYTE  BANK0  SYSTEM   '        Lo Pri.
  0000006E            00150 psaveL                          EQU     RAM_START + 06Eh
                      00151 ; C:\USERS\DMILOSAVLJEVIC\DOCUMENTS\PROJECT\TECOMATIC\PICKBYLIGHT\DT_INTS-18.BAS        00026   A0006F  
                            psaveUH     VAR BYTE  BANK0  SYSTEM   ' PCLATU Hi Pri.
  0000006F            00152 psaveUH                         EQU     RAM_START + 06Fh
                      00153 ; C:\USERS\DMILOSAVLJEVIC\DOCUMENTS\PROJECT\TECOMATIC\PICKBYLIGHT\DT_INTS-18.BAS        00027   A00070  
                            psaveUL     VAR BYTE  BANK0  SYSTEM   '        Lo Pri.
  00000070            00154 psaveUL                         EQU     RAM_START + 070h
                      00155 ; C:\USERS\DMILOSAVLJEVIC\DOCUMENTS\PROJECT\TECOMATIC\PICKBYLIGHT\DT_INTS-18.BAS        00024   A00071  
                            ssave       var byte  BANK0  SYSTEM   ' location for STATUS register
  00000071            00156 ssave                           EQU     RAM_START + 071h
                      00157 ; C:\USERS\DMILOSAVLJEVIC\DOCUMENTS\PROJECT\TECOMATIC\PICKBYLIGHT\REENTERPBP-18.BAS     00029   A00072  
                            HP_Vars  VAR  WORD[34]        ; group vars together for less banking
  00000072            00158 _HP_Vars                        EQU     RAM_START + 072h
                      00159 ; C:\USERS\DMILOSAVLJEVIC\DOCUMENTS\PROJECT\TECOMATIC\PICKBYLIGHT\REENTERPBP-18.BAS     00030       R0_S
                            aveH      VAR HP_Vars[0]
  00000072            00160 _R0_SaveH                       EQU     _HP_Vars
                      00161 ; C:\USERS\DMILOSAVLJEVIC\DOCUMENTS\PROJECT\TECOMATIC\PICKBYLIGHT\REENTERPBP-18.BAS     00031       R1_S
MPASM 5.81                   PICKBYLIGHT.ASM   1-20-2021  23:46:00         PAGE  5


LOC  OBJECT CODE     LINE SOURCE TEXT
  VALUE

                            aveH      VAR HP_Vars[2]
  00000076            00162 _R1_SaveH                       EQU     _HP_Vars + 004h
                      00163 ; C:\USERS\DMILOSAVLJEVIC\DOCUMENTS\PROJECT\TECOMATIC\PICKBYLIGHT\REENTERPBP-18.BAS     00032       R2_S
                            aveH      VAR HP_Vars[4]
  0000007A            00164 _R2_SaveH                       EQU     _HP_Vars + 008h
                      00165 ; C:\USERS\DMILOSAVLJEVIC\DOCUMENTS\PROJECT\TECOMATIC\PICKBYLIGHT\REENTERPBP-18.BAS     00033       R3_S
                            aveH      VAR HP_Vars[6]
  0000007E            00166 _R3_SaveH                       EQU     _HP_Vars + 00Ch
                      00167 ; C:\USERS\DMILOSAVLJEVIC\DOCUMENTS\PROJECT\TECOMATIC\PICKBYLIGHT\REENTERPBP-18.BAS     00034       R4_S
                            aveH      VAR HP_Vars[8]
  00000082            00168 _R4_SaveH                       EQU     _HP_Vars + 010h
                      00169 ; C:\USERS\DMILOSAVLJEVIC\DOCUMENTS\PROJECT\TECOMATIC\PICKBYLIGHT\REENTERPBP-18.BAS     00035       R5_S
                            aveH      VAR HP_Vars[9]
  00000084            00170 _R5_SaveH                       EQU     _HP_Vars + 012h
                      00171 ; C:\USERS\DMILOSAVLJEVIC\DOCUMENTS\PROJECT\TECOMATIC\PICKBYLIGHT\REENTERPBP-18.BAS     00036       R6_S
                            aveH      VAR HP_Vars[10]
  00000086            00172 _R6_SaveH                       EQU     _HP_Vars + 014h
                      00173 ; C:\USERS\DMILOSAVLJEVIC\DOCUMENTS\PROJECT\TECOMATIC\PICKBYLIGHT\REENTERPBP-18.BAS     00037       R7_S
                            aveH      VAR HP_Vars[11]
  00000088            00174 _R7_SaveH                       EQU     _HP_Vars + 016h
                      00175 ; C:\USERS\DMILOSAVLJEVIC\DOCUMENTS\PROJECT\TECOMATIC\PICKBYLIGHT\REENTERPBP-18.BAS     00038       R8_S
                            aveH      VAR HP_Vars[12]
  0000008A            00176 _R8_SaveH                       EQU     _HP_Vars + 018h
                      00177 ; C:\USERS\DMILOSAVLJEVIC\DOCUMENTS\PROJECT\TECOMATIC\PICKBYLIGHT\REENTERPBP-18.BAS     00039       Flag
                            _GOP_H    VAR HP_Vars[13]
  0000008C            00178 _Flag_GOP_H                     EQU     _HP_Vars + 01Ah
                      00179 ; C:\USERS\DMILOSAVLJEVIC\DOCUMENTS\PROJECT\TECOMATIC\PICKBYLIGHT\REENTERPBP-18.BAS     00042       RM_H
                                      VAR HP_Vars[14]
  0000008E            00180 _RM_H                           EQU     _HP_Vars + 01Ch
                      00181 ; C:\USERS\DMILOSAVLJEVIC\DOCUMENTS\PROJECT\TECOMATIC\PICKBYLIGHT\REENTERPBP-18.BAS     00045       RR_H
                                      VAR HP_Vars[15]
  00000090            00182 _RR_H                           EQU     _HP_Vars + 01Eh
                      00183 ; C:\USERS\DMILOSAVLJEVIC\DOCUMENTS\PROJECT\TECOMATIC\PICKBYLIGHT\REENTERPBP-18.BAS     00048       RS_H
                                      VAR HP_Vars[16]
  00000092            00184 _RS_H                           EQU     _HP_Vars + 020h
                      00185 ; C:\USERS\DMILOSAVLJEVIC\DOCUMENTS\PROJECT\TECOMATIC\PICKBYLIGHT\REENTERPBP-18.BAS     00051       T1_S
                            aveH      VAR HP_Vars[17]
  00000094            00186 _T1_SaveH                       EQU     _HP_Vars + 022h
                      00187 ; C:\USERS\DMILOSAVLJEVIC\DOCUMENTS\PROJECT\TECOMATIC\PICKBYLIGHT\REENTERPBP-18.BAS     00052       T2_S
                            aveH      VAR HP_Vars[19]
  00000098            00188 _T2_SaveH                       EQU     _HP_Vars + 026h
                      00189 ; C:\USERS\DMILOSAVLJEVIC\DOCUMENTS\PROJECT\TECOMATIC\PICKBYLIGHT\REENTERPBP-18.BAS     00053       T3_S
                            aveH      VAR HP_Vars[21]
  0000009C            00190 _T3_SaveH                       EQU     _HP_Vars + 02Ah
                      00191 ; C:\USERS\DMILOSAVLJEVIC\DOCUMENTS\PROJECT\TECOMATIC\PICKBYLIGHT\REENTERPBP-18.BAS     00054       T4_S
                            aveH      VAR HP_Vars[23]
  000000A0            00192 _T4_SaveH                       EQU     _HP_Vars + 02Eh
                      00193 ; C:\USERS\DMILOSAVLJEVIC\DOCUMENTS\PROJECT\TECOMATIC\PICKBYLIGHT\REENTERPBP-18.BAS     00055       T5_S
                            aveH      VAR HP_Vars[25]
  000000A4            00194 _T5_SaveH                       EQU     _HP_Vars + 032h
                      00195 ; C:\USERS\DMILOSAVLJEVIC\DOCUMENTS\PROJECT\TECOMATIC\PICKBYLIGHT\REENTERPBP-18.BAS     00056       T6_S
                            aveH      VAR HP_Vars[27]
  000000A8            00196 _T6_SaveH                       EQU     _HP_Vars + 036h
MPASM 5.81                   PICKBYLIGHT.ASM   1-20-2021  23:46:00         PAGE  6


LOC  OBJECT CODE     LINE SOURCE TEXT
  VALUE

                      00197 ; C:\USERS\DMILOSAVLJEVIC\DOCUMENTS\PROJECT\TECOMATIC\PICKBYLIGHT\REENTERPBP-18.BAS     00057       T7_S
                            aveH      VAR HP_Vars[29]
  000000AC            00198 _T7_SaveH                       EQU     _HP_Vars + 03Ah
                      00199 ; C:\USERS\DMILOSAVLJEVIC\DOCUMENTS\PROJECT\TECOMATIC\PICKBYLIGHT\REENTERPBP-18.BAS     00058       TBLP
                            TRU_H     VAR HP_Vars[31]
  000000B0            00200 _TBLPTRU_H                      EQU     _HP_Vars + 03Eh
                      00201 ; C:\USERS\DMILOSAVLJEVIC\DOCUMENTS\PROJECT\TECOMATIC\PICKBYLIGHT\REENTERPBP-18.BAS     00060       TBLP
                            TR_H      VAR HP_Vars[32]
  000000B2            00202 _TBLPTR_H                       EQU     _HP_Vars + 040h
                      00203 ; C:\USERS\DMILOSAVLJEVIC\DOCUMENTS\PROJECT\TECOMATIC\PICKBYLIGHT\REENTERPBP-18.BAS     00063       Prod
                            uct_H     VAR HP_Vars[33]
  000000B4            00204 _Product_H                      EQU     _HP_Vars + 042h
                      00205 ; C:\PROGRAM FILES (X86)\PBP3\DEVICES\PIC18F4550.PBPINC 00271   PORTL   VAR     PORTB
  00000F81            00206 _PORTL                          EQU      PORTB
                      00207 ; C:\PROGRAM FILES (X86)\PBP3\DEVICES\PIC18F4550.PBPINC 00272   PORTH   VAR     PORTC
  00000F82            00208 _PORTH                          EQU      PORTC
                      00209 ; C:\PROGRAM FILES (X86)\PBP3\DEVICES\PIC18F4550.PBPINC 00273   TRISL   VAR     TRISB
  00000F93            00210 _TRISL                          EQU      TRISB
                      00211 ; C:\PROGRAM FILES (X86)\PBP3\DEVICES\PIC18F4550.PBPINC 00274   TRISH   VAR     TRISC
  00000F94            00212 _TRISH                          EQU      TRISC
                      00213 ; C:\USERS\DMILOSAVLJEVIC\DOCUMENTS\PROJECT\TECOMATIC\PICKBYLIGHT\REENTERPBP-18.BAS     00040         Fl
                            ags_SaveH   VAR Flag_GOP_H.lowbyte
  0000008C            00214 _Flags_SaveH                    EQU     _Flag_GOP_H
                      00215 ; C:\USERS\DMILOSAVLJEVIC\DOCUMENTS\PROJECT\TECOMATIC\PICKBYLIGHT\REENTERPBP-18.BAS     00041         GO
                            P_SaveH     VAR Flag_GOP_H.highbyte
  0000008D            00216 _GOP_SaveH                      EQU     _Flag_GOP_H + 001h
                      00217 ; C:\USERS\DMILOSAVLJEVIC\DOCUMENTS\PROJECT\TECOMATIC\PICKBYLIGHT\REENTERPBP-18.BAS     00043         RM
                            1_SaveH     VAR RM_H.lowbyte
  0000008E            00218 _RM1_SaveH                      EQU     _RM_H
                      00219 ; C:\USERS\DMILOSAVLJEVIC\DOCUMENTS\PROJECT\TECOMATIC\PICKBYLIGHT\REENTERPBP-18.BAS     00044         RM
                            2_SaveH     VAR RM_H.highbyte
  0000008F            00220 _RM2_SaveH                      EQU     _RM_H + 001h
                      00221 ; C:\USERS\DMILOSAVLJEVIC\DOCUMENTS\PROJECT\TECOMATIC\PICKBYLIGHT\REENTERPBP-18.BAS     00046         RR
                            1_SaveH     VAR RR_H.lowbyte
  00000090            00222 _RR1_SaveH                      EQU     _RR_H
                      00223 ; C:\USERS\DMILOSAVLJEVIC\DOCUMENTS\PROJECT\TECOMATIC\PICKBYLIGHT\REENTERPBP-18.BAS     00047         RR
                            2_SaveH     VAR RR_H.highbyte
  00000091            00224 _RR2_SaveH                      EQU     _RR_H + 001h
                      00225 ; C:\USERS\DMILOSAVLJEVIC\DOCUMENTS\PROJECT\TECOMATIC\PICKBYLIGHT\REENTERPBP-18.BAS     00049         RS
                            1_SaveH     VAR RS_H.lowbyte
  00000092            00226 _RS1_SaveH                      EQU     _RS_H
                      00227 ; C:\USERS\DMILOSAVLJEVIC\DOCUMENTS\PROJECT\TECOMATIC\PICKBYLIGHT\REENTERPBP-18.BAS     00050         RS
                            2_SaveH     VAR RS_H.highbyte
  00000093            00228 _RS2_SaveH                      EQU     _RS_H + 001h
                      00229 ; C:\USERS\DMILOSAVLJEVIC\DOCUMENTS\PROJECT\TECOMATIC\PICKBYLIGHT\REENTERPBP-18.BAS     00059         TB
                            LPTRU_SaveH VAR TBLPTRU_H.lowbyte
  000000B0            00230 _TBLPTRU_SaveH                  EQU     _TBLPTRU_H
                      00231 ; C:\USERS\DMILOSAVLJEVIC\DOCUMENTS\PROJECT\TECOMATIC\PICKBYLIGHT\REENTERPBP-18.BAS     00061         TB
                            LPTRH_SaveH VAR TBLPTR_H.highbyte
  000000B3            00232 _TBLPTRH_SaveH                  EQU     _TBLPTR_H + 001h
                      00233 ; C:\USERS\DMILOSAVLJEVIC\DOCUMENTS\PROJECT\TECOMATIC\PICKBYLIGHT\REENTERPBP-18.BAS     00062         TB
                            LPTRL_SaveH VAR TBLPTR_H.lowbyte
  000000B2            00234 _TBLPTRL_SaveH                  EQU     _TBLPTR_H
MPASM 5.81                   PICKBYLIGHT.ASM   1-20-2021  23:46:00         PAGE  7


LOC  OBJECT CODE     LINE SOURCE TEXT
  VALUE

  0000008C            00235 _Flag_GOP_H??LOWBYTE            EQU     _Flag_GOP_H
  0000008D            00236 _Flag_GOP_H??HIGHBYTE           EQU     _Flag_GOP_H + 001h
  0000008E            00237 _RM_H??LOWBYTE                  EQU     _RM_H
  0000008F            00238 _RM_H??HIGHBYTE                 EQU     _RM_H + 001h
  00000090            00239 _RR_H??LOWBYTE                  EQU     _RR_H
  00000091            00240 _RR_H??HIGHBYTE                 EQU     _RR_H + 001h
  00000092            00241 _RS_H??LOWBYTE                  EQU     _RS_H
  00000093            00242 _RS_H??HIGHBYTE                 EQU     _RS_H + 001h
  000000B0            00243 _TBLPTRU_H??LOWBYTE             EQU     _TBLPTRU_H
  000000B3            00244 _TBLPTR_H??HIGHBYTE             EQU     _TBLPTR_H + 001h
  000000B2            00245 _TBLPTR_H??LOWBYTE              EQU     _TBLPTR_H
                      00246 #define __rs232Tx               _PORTD??7
                      00247 #define __rs232Rx               _PORTD??6
                      00248 #define __inputA1               _PORTA??0
                      00249 #define __inputA2               _PORTA??1
                      00250 #define __inputA3               _PORTA??2
                      00251 #define __inputA4               _PORTA??3
                      00252 #define __OutputA1              _PORTD??2
                      00253 #define __OutputA2              _PORTD??3
                      00254 #define __OutputA3              _PORTD??1
                      00255 #define __OutputA4              _PORTD??0
                      00256 #define _NewStateA1              PB01, 004h
                      00257 #define _NewStateA2              PB01, 005h
                      00258 #define _NewStateA3              PB01, 006h
                      00259 #define _NewStateA4              PB01, 007h
                      00260 #define _OldStateA1              PB02, 000h
                      00261 #define _OldStateA2              PB02, 001h
                      00262 #define _OldStateA3              PB02, 002h
                      00263 #define _OldStateA4              PB02, 003h
                      00264 #define _InputA1                 PB01, 000h
                      00265 #define _InputA2                 PB01, 001h
                      00266 #define _InputA3                 PB01, 002h
                      00267 #define _InputA4                 PB01, 003h
                      00268 #define _Serviced_H             _INT_Flags??0
                      00269 #define _Serviced_L             _INT_Flags??1
                      00270 #define _InHPint                _INT_Flags??2
                      00271 #define _NoPriority             _INT_Flags??3
                      00272 #define _VarsSaved_H             PB02, 004h
                      00273 #define _PORTD??7                PORTD, 007h
                      00274 #define _PORTD??6                PORTD, 006h
                      00275 #define _PORTA??0                PORTA, 000h
                      00276 #define _PORTA??1                PORTA, 001h
                      00277 #define _PORTA??2                PORTA, 002h
                      00278 #define _PORTA??3                PORTA, 003h
                      00279 #define _PORTD??2                PORTD, 002h
                      00280 #define _PORTD??3                PORTD, 003h
                      00281 #define _PORTD??1                PORTD, 001h
                      00282 #define _PORTD??0                PORTD, 000h
                      00283 #define _INTCON2??7              INTCON2, 007h
                      00284 #define _UCON??3                 UCON, 003h
                      00285 #define _UCFG??3                 UCFG, 003h
                      00286 #define _INT_Flags??0            INT_Flags, 000h
                      00287 #define _INT_Flags??1            INT_Flags, 001h
MPASM 5.81                   PICKBYLIGHT.ASM   1-20-2021  23:46:00         PAGE  8


LOC  OBJECT CODE     LINE SOURCE TEXT
  VALUE

                      00288 #define _INT_Flags??2            INT_Flags, 002h
                      00289 #define _INT_Flags??3            INT_Flags, 003h
                      00290 
                      00291 ; Constants.
  00000400            00292 _USBMEMORYADDRESS               EQU     00400h
  00000001            00293 _majorVer                       EQU     00001h
  00000005            00294 _revisionVer                    EQU     00005h
  00000006            00295 _rs232_bps                      EQU     00006h
                      00296 
                      00297 ; EEPROM data.
                      00298 
                      00299 
                      00300         INCLUDE "PICKBYLIGHT.MAC"
                      00001 
                      00214         LIST
                      00301         INCLUDE "C:\PROGRAM FILES (X86)\PBP3\PBPPIC18.LIB"
                      00001 ;******************************************************************
                      00002 ;*  PBPPIC18.LIB                                                  *
                      00003 ;*                                                                *
                      00004 ;*  By        : Leonard Zerman, Jeff Schmoyer, Darrel Taylor,     *
                      00005 ;*              Charles Leo                                       *
                      00006 ;*  Notice    : Copyright (c) 2012 microEngineering Labs, Inc.    *
                      00007 ;*              All Rights Reserved                               *
                      00008 ;*  Date      : 05/03/2012                                        *
                      00009 ;*  Version   : 3.?.?                                             *
                      00010 ;*  Notes     :                                                   *
                      00011 ;******************************************************************
                      00069   LIST
                      00070 ; Oscillator is 8MHz
                      01228   LIST
000000                01229     ORG RESET_ORG               ; Reset vector at 0
                      01238   LIST
000000 EFD8 F000      01239         goto    INIT            ; Finish initialization
                      01249   LIST
000008                01250     ORG RESET_ORG + 8           ; High priority interrupt vector at 8
000008 EFBE F001      01251         goto    INTHAND         ; Goto high priority user interrupt handler
                      01263   LIST
000018                01264     ORG RESET_ORG + 18h         ; Low priority interrupt vector at 18h
000018 EFF8 F000      01265         goto    INTLHAND        ; Goto low priority user interrupt handler
                      04236   LIST
00001C C021 FFEA      04237 SERIN   movff   RS1, FSR0H      ; Point to port for serinbit
000020 C01F FFE9      04238         movff   RR1, FSR0L
                      04239 serinloop0 CLRWDT?              ; Keep Watchdog timer clear
                          M     ifndef NO_CLRWDT
000024 0004               M         clrwdt
                          M     endif
000026 D80D           04240         rcall   serinbit        ; Get a serial bit
000028 E2FD           04241         bc      serinloop0      ; Wait for start bit
                      04247   LIST
00002A D865           04248 serinstart rcall sersdelay      ; Wait 1/4 bit time
00002C 0E08           04249         movlw   8               ; 8 bits to a byte
00002E 6E05           04250         movwf   R1 + 1          ; Bit counter
000030 D863           04251 serinloop rcall serdelay        ; 2+ (20) Wait bit time
MPASM 5.81                   PICKBYLIGHT.ASM   1-20-2021  23:46:00         PAGE  9


LOC  OBJECT CODE     LINE SOURCE TEXT
  VALUE

000032 D807           04252         rcall   serinbit        ; 14 Get a bit
000034 3204           04253         rrcf    R1, F           ; 1 Move bit into byte
000036 2E05           04254         decfsz  R1 + 1, F       ; 1 / 2 More bits?
000038 D7FB           04255         bra     serinloop       ; 2 / 0 Yes
00003A D85E           04256         rcall   serdelay        ; Delay to stop bit
                      04257       ifdef SERINTO_USED
                      04258         bsf     STATUS, C       ; Indicate not timed out (C set)
                      04259       endif
00003C 5004           04260         movf    R1, W           ; Get char to W
00003E EFD5 F000      04261 serindone goto  DUNN
                      04262 
000042 0E12           04263 serinbit movlw  12h             ; 1 (14) Point to TRIS
000044 26E9           04264         addwf   FSR0L, F        ; 1
000046 501D           04265         movf    RM1, W          ; 1 W = Bit Mask
000048 12EF           04266         iorwf   INDF0, F        ; 1 Set bit to input
00004A C01F FFE9      04267         movff   RR1, FSR0L      ; 2 Point back to port
00004E 14EF           04268         andwf   INDF0, W        ; 1 W = Current State
000050 B401           04269         btfsc   GOP,2           ; 1 / 2 Invert if 'N' Mode
000052 181D           04270         xorwf   RM1, W          ; 1 / 0
000054 0FFF           04271         addlw   -1              ; 1 Move bit to Carry
000056 0012           04272         return                  ; 2 + 2 Done
                      04291   LIST
000058 6A07           04292 SEROUTDEC clrf  R2 + 1          ; Zero high value
00005A 6E06           04293 SEROUTDECL movwf R2             ; Save low value
00005C 8E01           04294         bsf     GOP, 7          ; Blanking on
00005E 0E27           04295         movlw   high 10000      ; Find 10,000s
000060 6E05           04296         movwf   R1 + 1
000062 0E10           04297         movlw   low 10000
000064 D80C           04298         rcall   seroutdig       ; Do the work
000066 0E03           04299         movlw   high 1000       ; Find 1,000s
000068 6E05           04300         movwf   R1 + 1
00006A 0EE8           04301         movlw   low 1000
00006C D808           04302         rcall   seroutdig       ; Do the work
00006E 6A05           04303         clrf    R1 + 1          ; Find 100s
000070 0E64           04304         movlw   100
000072 D805           04305         rcall   seroutdig       ; Do the work
000074 6A05           04306         clrf    R1 + 1          ; Find 10s
000076 0E0A           04307         movlw   10
000078 D802           04308         rcall   seroutdig       ; Do the work
00007A 5006           04309         movf    R2, W           ; Get the 1s
00007C D00B           04310         bra     serouta         ; Send the 1s
                      04311 
00007E 6E04           04312 seroutdig movwf R1              ; Save last piece
000080 5007           04313         movf    R2 + 1, W       ; Move remainder to dividend
000082 6E03           04314         movwf   R0 + 1
000084 5006           04315         movf    R2, W
000086 6E02           04316         movwf   R0
000088 ECBD F000      04317         call    DIV             ; Do the math
00008C 66E8           04318         tstfsz  WREG            ; If zero, goto blank check
00008E 9E01           04319         bcf     GOP, 7          ; Not zero so clear blank
000090 BE01           04320         btfsc   GOP, 7          ; If blanking on, don't send
000092 0012           04321         return
000094 0F30           04322 serouta addlw   '0'             ; Add ASCII offset
MPASM 5.81                   PICKBYLIGHT.ASM   1-20-2021  23:46:00         PAGE 10


LOC  OBJECT CODE     LINE SOURCE TEXT
  VALUE

                      04323 ;       bra     SEROUT          ; Fall through
                      04342   LIST
000096 6E08           04343 SEROUT  movwf   R3              ; Data to send
000098 C021 FFEA      04344         movff   RS1, FSR0H      ; Point to bank (PORT)
00009C C021 FFE2      04345         movff   RS1, FSR1H      ; Point to bank (TRIS)
0000A0 501F           04346         movf    RR1, W          ; Point to PORT
0000A2 6EE9           04347         movwf   FSR0L
0000A4 0F12           04348         addlw   12h             ; Point to TRIS
0000A6 6EE1           04349         movwf   FSR1L
0000A8 0E09           04350         movlw   9               ; 1 start bit + 8 data bits
0000AA 6E09           04351         movwf   R3 + 1
0000AC 90D8           04352         bcf     STATUS, C       ; Start bit low
0000AE D80C           04353 seroutloop rcall seroutbit      ; 16+ (20) Send a bit
0000B0 3208           04354         rrcf    R3, F           ; 1 Move to next bit
0000B2 2E09           04355         decfsz  R3 + 1, F       ; 1 / 2 Do next bit, if any
0000B4 D7FC           04356         bra     seroutloop      ; 2 / 0
0000B6 80D8           04357         bsf     STATUS, C       ; 1 Stop bit high
0000B8 D807           04358         rcall   seroutbit       ; 16+ Send stop bit (need cycles)
                      04359       ifdef CHAR_PACING
0000BA 0E03           04360         movlw   (CHAR_PACING) >> 8
0000BC 6E03           04361         movwf   R0 + 1
0000BE 0EE8           04362         movlw   low (CHAR_PACING)
0000C0 ECA7 F000      04363         call    PAUSEUSL        ; Delay for character pacing
                      04364       endif
0000C4 EFD5 F000      04365         goto    DUNN
                      04366 
0000C8 A601           04367 seroutbit btfss GOP, 3          ; 1 / 2 (16+) Check for TRIS mode
0000CA D00B           04368         bra     seroutnorm      ; 2 / 0 Go handle normal mode
                      04369 
0000CC 50EF           04370         movf    INDF0, W        ; 1 Get PORT data
0000CE 101D           04371         iorwf   RM1, W          ; 1 Set bit on
0000D0 A401           04372         btfss   GOP, 2          ; 1 / 2 Bit matches invert mode
0000D2 181D           04373         xorwf   RM1, W          ; 1 / 0 Set bit off
0000D4 6EEF           04374         movwf   INDF0           ; 1 Write it out
0000D6 50E7           04375         movf    INDF1, W        ; 1 Get TRIS data
0000D8 101D           04376         iorwf   RM1, W          ; 1 Make bit an input
0000DA A0D8           04377         btfss   STATUS, C       ; 1 / 2 Bit direction matches bit
0000DC 181D           04378         xorwf   RM1, W          ; 1 / 0 Make bit an output
0000DE 6EE7           04379         movwf   INDF1           ; 1 Write it out
0000E0 D00B           04380         bra     serdelay        ; 2 + 2 Wait remainder of bit time
                      04381 
0000E2 50EF           04382 seroutnorm movf  INDF0, W       ; 1 Get PORT data
0000E4 101D           04383         iorwf   RM1, W          ; 1 Set bit on
0000E6 A0D8           04384         btfss   STATUS, C       ; 1 / 2 Skip if bit should be on
0000E8 181D           04385         xorwf   RM1, W          ; 1 / 0 Set bit off
0000EA B401           04386         btfsc   GOP, 2          ; 1 / 2 Invert if 'N' mode
0000EC 181D           04387         xorwf   RM1, W          ; 1 / 0 Flip for invert
0000EE 6EEF           04388         movwf   INDF0           ; 1 Write it out
0000F0 1C1D           04389         comf    RM1, W          ; 1 Get complemented bit mask to W
0000F2 16E7           04390         andwf   INDF1, F        ; 1 Clear TRIS bit to set output
0000F4 D001           04391         bra     serdelay        ; 2 + 2 Wait remainder of bit time
                      04415   LIST
                      04416       ifdef SERINX_USED
MPASM 5.81                   PICKBYLIGHT.ASM   1-20-2021  23:46:00         PAGE 11


LOC  OBJECT CODE     LINE SOURCE TEXT
  VALUE

0000F6 8C01           04417 sersdelay bsf   GOP, 6          ; Mark short delay
                      04418       endif
0000F8 3401           04419 serdelay rlcf   GOP, W          ; 1 (14 + 20) Get baud value x 2
0000FA 0B06           04420         andlw   06h             ; 1 Mask to our bits
0000FC 0F2A           04421         addlw   low (sertable)  ; 1 Point to table
0000FE 6EF6           04422         movwf   TBLPTRL         ; 1 Set up table pointer low
000100 6AF7           04423         clrf    TBLPTRH         ; 1 Zero table pointer high
000102 0E01           04424         movlw   high (sertable) ; 1 Set table pointer high
000104 22F7           04425         addwfc  TBLPTRH, F      ; 1
000106 6AF8           04426         clrf    TBLPTRU         ; 1 Zero table pointer upper
000108 0009           04427         tblrd   *+              ; 2 Get the high value
00010A 50F5           04428         movf    TABLAT, W       ; 1 Move it for PAUSEUS
00010C 6E03           04429         movwf   R0 + 1          ; 1
00010E 0008           04430         tblrd   *               ; 2 Get the low value
000110 50F5           04431         movf    TABLAT, W       ; 1 Move it to W
                      04432       ifndef SERINX_USED
                      04433         nop                     ; 1
                      04434         goto    PAUSEUSL        ; -2 (PAUSEUSL gives you 2 less than you ask for)
                      04435       else
000112 AC01           04436         btfss   GOP, 6          ; 1
000114 EFA7 F000      04437         goto    PAUSEUSL        ; -2 (PAUSEUSL gives you 2 less than you ask for)
000118 9C01           04438         bcf     GOP, 6          ; Clear short delay mark
00011A 90D8           04439         bcf     STATUS, C       ; Divide time by 4
00011C 3203           04440         rrcf    R0 + 1, F
00011E 30E8           04441         rrcf    WREG, W
000120 90D8           04442         bcf     STATUS, C
000122 3203           04443         rrcf    R0 + 1, F
000124 30E8           04444         rrcf    WREG, W
000126 EFA7 F000      04445         goto    PAUSEUSL        ; Do 1/4 delay
                      04446       endif
                      04447 
00012A 9001           04448 sertable db     high (SDELAY_2400), low (SDELAY_2400)
00012C 3003           04449         db      high (SDELAY_1200), low (SDELAY_1200)
00012E 5700           04450         db      high (SDELAY_9600), low (SDELAY_9600)
000130 F40C           04451         db      high (SDELAY_300), low (SDELAY_300)
                      06603   LIST
000132 6A05           06604 PAUSE   clrf    R1 + 1
000134 6E04           06605 PAUSEL  movwf   R1
000136 6AE8           06606 pauseloop clrf  WREG            ; 1 (8) Clear W for subtracts
000138 0604           06607         decf    R1, F           ; 1
00013A 5A05           06608         subwfb  R1 + 1, F       ; 1
00013C A0D8           06609         btfss   STATUS, C       ; 2
00013E EFD5 F000      06610         goto    DUNN
000142 0E03           06611         movlw   (PAUSE_DELAY) >> 8      ; 1
000144 6E03           06612         movwf   R0 + 1          ; 1
000146 0EE4           06613         movlw   low (PAUSE_DELAY)       ; 1
000148 D802           06614         rcall   PAUSEUSL        ; -2 (PAUSEUSL gives you 2 less than you ask for)
00014A D7F5           06615         bra     pauseloop       ; 2
                      06693   LIST
00014C 6A03           06694 PAUSEUS clrf    R0 + 1          ; 1
00014E 0FF5           06695 PAUSEUSL addlw  -11             ; 1 Subtract overhead
000150 6E02           06696         movwf   R0              ; 1
000152 0EFE           06697         movlw   -2              ; 1
MPASM 5.81                   PICKBYLIGHT.ASM   1-20-2021  23:46:00         PAGE 12


LOC  OBJECT CODE     LINE SOURCE TEXT
  VALUE

000154 E304           06698         bnc     pauseush        ; 1 / 2
000156 D000           06699         bra     $ + 2           ; 2
                      06700 pauseusloop CLRWDT?NOP          ; 1
                          M     ifndef NO_CLRWDT
000158 0004               M         clrwdt
                          M     else
                          M         nop
                          M     endif
00015A 2602           06701         addwf   R0, F           ; 1
00015C E2FD           06702         bc      pauseusloop     ; 1 / 2
00015E 0000           06703 pauseush nop                    ; 1
000160 2602           06704         addwf   R0, F           ; 1
000162 0603           06705         decf    R0 + 1, F       ; 1
000164 E2F9           06706         bc      pauseusloop     ; 1 / 2
000166 A002           06707         btfss   R0, 0           ; 1 / 2
000168 D002           06708         bra     pauseusdone     ; 2 / 0
00016A D000           06709         bra     $ + 2           ; 0 / 2
00016C 0000           06710         nop                     ; 0 / 1
00016E 0012           06711 pauseusdone return              ; 2 + 3 (call + setup)
                      07791   LIST
000170 1002           07792 LOR     iorwf   R0, W
000172 A4D8           07793         btfss   STATUS, Z
000174 0EFF           07794         movlw   -1
000176 EFD5 F000      07795         goto    DUNN
                      07959   LIST
00017A 6A07           07960 DIV     clrf    R2 + 1
00017C 6A06           07961         clrf    R2
                      07962 
00017E 0E10           07963 DIV32DIV movlw   16
000180 6E08           07964         movwf   R3
                      07965 
000182 3403           07966 divloop rlcf    R0 + 1, W
000184 3606           07967         rlcf    R2, F
000186 3607           07968         rlcf    R2 + 1, F
000188 5004           07969         movf    R1, W
00018A 5E06           07970         subwf   R2, F
00018C 5005           07971         movf    R1 + 1, W
00018E 5A07           07972         subwfb  R2 + 1, F
                      07973 
000190 E205           07974         bc      divok
000192 5004           07975         movf    R1, W
000194 2606           07976         addwf   R2, F
000196 5005           07977         movf    R1 + 1, W
000198 2207           07978         addwfc  R2 + 1, F
                      07979 
00019A 90D8           07980         bcf     STATUS, C
                      07981 
00019C 3602           07982 divok   rlcf    R0, F
00019E 3603           07983         rlcf    R0 + 1, F
                      07984 
0001A0 2E08           07985         decfsz  R3, F
0001A2 D7EF           07986         bra     divloop
0001A4 5002           07987         movf    R0, W           ; Get low byte to W
MPASM 5.81                   PICKBYLIGHT.ASM   1-20-2021  23:46:00         PAGE 13


LOC  OBJECT CODE     LINE SOURCE TEXT
  VALUE

0001A6 EFD5 F000      07988         goto    DUNN
                      08071   LIST
0001AA 0100           08072 DUNN    movlb   0               ; 1 Reset banks to 0
                      08073 DUNN5   CLRWDT?NOP              ; 1 Hit Watchdog timer
                          M     ifndef NO_CLRWDT
0001AC 0004               M         clrwdt
                          M     else
                          M         nop
                          M     endif
0001AE 0012           08074         return                  ; 2 Done
                      08087   LIST
0001B0                08088 INIT
                      08124   LIST
0001B0                08125 main
                      00302 
                      00303 
                      00304 ; C:\PROGRAM FILES (X86)\PBP3\DEVICES\PIC18F4550.PBPINC 00036   #HEADER
                      00305 ; C:\PROGRAM FILES (X86)\PBP3\DEVICES\PIC18F4550.PBPINC 00062   #CONFIG
                      00306 ; C:\PROGRAM FILES (X86)\PBP3\DEVICES\PIC18F4550.PBPINC 00252   BANKA   $0000, $005F
                      00307 ; C:\PROGRAM FILES (X86)\PBP3\DEVICES\PIC18F4550.PBPINC 00253   BANK0   $0060, $00FF
                      00308 ; C:\PROGRAM FILES (X86)\PBP3\DEVICES\PIC18F4550.PBPINC 00254   BANK1   $0100, $01FF
                      00309 ; C:\PROGRAM FILES (X86)\PBP3\DEVICES\PIC18F4550.PBPINC 00255   BANK2   $0200, $02FF
                      00310 ; C:\PROGRAM FILES (X86)\PBP3\DEVICES\PIC18F4550.PBPINC 00256   BANK3   $0300, $03FF
                      00311 ; C:\PROGRAM FILES (X86)\PBP3\DEVICES\PIC18F4550.PBPINC 00257   BANK4   $0400, $04FF
                      00312 ; C:\PROGRAM FILES (X86)\PBP3\DEVICES\PIC18F4550.PBPINC 00258   BANK5   $0500, $05FF
                      00313 ; C:\PROGRAM FILES (X86)\PBP3\DEVICES\PIC18F4550.PBPINC 00259   BANK6   $0600, $06FF
                      00314 ; C:\PROGRAM FILES (X86)\PBP3\DEVICES\PIC18F4550.PBPINC 00260   BANK7   $0700, $07FF
                      00315 ; C:\PROGRAM FILES (X86)\PBP3\DEVICES\PIC18F4550.PBPINC 00266       INCLUDE "PBPPI18L.RAM"
                      00316 ; C:\PROGRAM FILES (X86)\PBP3\DEVICES\PIC18F4550.PBPINC 00267   #ELSE
                      00317 ; C:\PROGRAM FILES (X86)\PBP3\DEVICES\PIC18F4550.PBPINC 00268       LIBRARY  "PBPPIC18"
                      00318 
                      00319 ; C:\PROGRAM FILES (X86)\PBP3\DEVICES\PIC18F4550.PBPINC 00269       INCLUDE "PBPPIC18.RAM"
                      00320 ; C:\PROGRAM FILES (X86)\PBP3\DEVICES\PIC18F4550.PBPINC 00270   #ENDIF
                      00321 ; C:\PROGRAM FILES (X86)\PBP3\DEVICES\PIC18F4550.PBPINC 00275   USBMEMORYADDRESS Con    $400    ' USB RA
                            M starts here
                      00322 ; C:\PROGRAM FILES (X86)\PBP3\DEVICES\PIC18F4550.PBPINC 00279   #HEADER
                      00323 ; C:\USERS\DMILOSAVLJEVIC\DOCUMENTS\PROJECT\TECOMATIC\PICKBYLIGHT\PICKBYLIGHT.PBP       00014       DEFI
                            NE OSC 8
                      00324 
                      00325 ; C:\USERS\DMILOSAVLJEVIC\DOCUMENTS\PROJECT\TECOMATIC\PICKBYLIGHT\PICKBYLIGHT.PBP       00015       asm
                      00326 
                      00327         ASM?
                          M         RST?RP
                          M     if (PREV_ALT != 0)
                          M         bcf     WDTCON, ADSHR
                          M PREV_ALT = 0
                          M     endif
                          M     if (PREV_BANK != 0)
                          M         movlb   0
                          M PREV_BANK = 0
                          M     endif
                      00328 
                      00329             __CONFIG    _CONFIG1L, _PLLDIV_1_1L & _CPUDIV_OSC1_PLL2_1L & _USBDIV_1_1L
MPASM 5.81                   PICKBYLIGHT.ASM   1-20-2021  23:46:00         PAGE 14


LOC  OBJECT CODE     LINE SOURCE TEXT
  VALUE

300000 3BC0           00330             __CONFIG    _CONFIG1H, _FOSC_INTOSC_HS_1H & _FCMEN_OFF_1H & _IESO_OFF_1H
                      00331             __CONFIG    _CONFIG2L, _PWRT_ON_2L & _BOR_OFF_2L & _BORV_3_2L & _VREGEN_OFF_2L
300002 F2D8           00332             __CONFIG    _CONFIG2H, _WDT_OFF_2H & _WDTPS_512_2H
300004 78FF           00333             __CONFIG    _CONFIG3H, _CCP2MX_OFF_3H & _PBADEN_OFF_3H & _LPT1OSC_OFF_3H & _MCLRE_OFF_3H
300006 FFBA           00334             __CONFIG    _CONFIG4L, _STVREN_OFF_4L & _LVP_OFF_4L & _XINST_OFF_4L   
                      00335             __CONFIG    _CONFIG5L, _CP1_ON_5L & _CP0_ON_5L
300008 3FFC           00336             __CONFIG    _CONFIG5H, _CPB_ON_5H & _CPD_ON_5H          
                      00337     
                      00338 
                      00339         ENDASM?
                      00340 
                      00341 ; C:\USERS\DMILOSAVLJEVIC\DOCUMENTS\PROJECT\TECOMATIC\PICKBYLIGHT\PICKBYLIGHT.PBP       00027       DEFI
                            NE SER2_BITS 8
                      00342 ; C:\USERS\DMILOSAVLJEVIC\DOCUMENTS\PROJECT\TECOMATIC\PICKBYLIGHT\PICKBYLIGHT.PBP       00028       DEFI
                            NE CHAR_PACING 1000
                      00343 
                      00344 ; C:\USERS\DMILOSAVLJEVIC\DOCUMENTS\PROJECT\TECOMATIC\PICKBYLIGHT\PICKBYLIGHT.PBP       00031       outp
                            ut _rs232tx
                      00345         OUTPUT?T        __rs232Tx
                          M         MOVE?CT 0, ((PORTD) + 12h), 007h
                          M         CHK?RP  ((PORTD) + 12h)
                          M     if (((((PORTD) + 12h)) & 8000h) != PREV_ALT)
                          M       if ((((PORTD) + 12h)) & 8000h)
                          M         bsf     WDTCON, ADSHR
                          M       else
                          M         bcf     WDTCON, ADSHR
                          M       endif
                          M PREV_ALT = (((PORTD) + 12h)) & 8000h
                          M     endif
                          M     if ((((((PORTD) + 12h)) & 0fffh) > BANKA_END) & (((((PORTD) + 12h)) & 0fffh) < (0f01h + BANKA_END)))
                          M       if (((((PORTD) + 12h)) & 0f00h) != (PREV_BANK << 8))
                          M         movlb   high (((PORTD) + 12h))
                          M PREV_BANK = high (((PORTD) + 12h))
                          M       endif
                          M     endif
                          M     if (((0)   & 1) == 1)
                          M         bsf     ((PORTD) + 12h), 007h
                          M     else
0001B0 9E95               M         bcf     ((PORTD) + 12h), 007h
                          M     endif
                      00346 
                      00347 ; C:\USERS\DMILOSAVLJEVIC\DOCUMENTS\PROJECT\TECOMATIC\PICKBYLIGHT\PICKBYLIGHT.PBP       00032       inpu
                            t _rs232Rx
                      00348         INPUT?T __rs232Rx
                          M         MOVE?CT 1, ((PORTD) + 12h), 006h
                          M         CHK?RP  ((PORTD) + 12h)
                          M     if (((((PORTD) + 12h)) & 8000h) != PREV_ALT)
                          M       if ((((PORTD) + 12h)) & 8000h)
                          M         bsf     WDTCON, ADSHR
                          M       else
                          M         bcf     WDTCON, ADSHR
                          M       endif
                          M PREV_ALT = (((PORTD) + 12h)) & 8000h
MPASM 5.81                   PICKBYLIGHT.ASM   1-20-2021  23:46:00         PAGE 15


LOC  OBJECT CODE     LINE SOURCE TEXT
  VALUE

                          M     endif
                          M     if ((((((PORTD) + 12h)) & 0fffh) > BANKA_END) & (((((PORTD) + 12h)) & 0fffh) < (0f01h + BANKA_END)))
                          M       if (((((PORTD) + 12h)) & 0f00h) != (PREV_BANK << 8))
                          M         movlb   high (((PORTD) + 12h))
                          M PREV_BANK = high (((PORTD) + 12h))
                          M       endif
                          M     endif
                          M     if (((1)   & 1) == 1)
0001B2 8C95               M         bsf     ((PORTD) + 12h), 006h
                          M     else
                          M         bcf     ((PORTD) + 12h), 006h
                          M     endif
                      00349 
                      00350 ; C:\USERS\DMILOSAVLJEVIC\DOCUMENTS\PROJECT\TECOMATIC\PICKBYLIGHT\PICKBYLIGHT.PBP       00040       inpu
                            t _inputA1 
                      00351         INPUT?T __inputA1
                          M         MOVE?CT 1, ((PORTA) + 12h), 000h
                          M         CHK?RP  ((PORTA) + 12h)
                          M     if (((((PORTA) + 12h)) & 8000h) != PREV_ALT)
                          M       if ((((PORTA) + 12h)) & 8000h)
                          M         bsf     WDTCON, ADSHR
                          M       else
                          M         bcf     WDTCON, ADSHR
                          M       endif
                          M PREV_ALT = (((PORTA) + 12h)) & 8000h
                          M     endif
                          M     if ((((((PORTA) + 12h)) & 0fffh) > BANKA_END) & (((((PORTA) + 12h)) & 0fffh) < (0f01h + BANKA_END)))
                          M       if (((((PORTA) + 12h)) & 0f00h) != (PREV_BANK << 8))
                          M         movlb   high (((PORTA) + 12h))
                          M PREV_BANK = high (((PORTA) + 12h))
                          M       endif
                          M     endif
                          M     if (((1)   & 1) == 1)
0001B4 8092               M         bsf     ((PORTA) + 12h), 000h
                          M     else
                          M         bcf     ((PORTA) + 12h), 000h
                          M     endif
                      00352 
                      00353 ; C:\USERS\DMILOSAVLJEVIC\DOCUMENTS\PROJECT\TECOMATIC\PICKBYLIGHT\PICKBYLIGHT.PBP       00041       inpu
                            t _inputa2 
                      00354         INPUT?T __inputA2
                          M         MOVE?CT 1, ((PORTA) + 12h), 001h
                          M         CHK?RP  ((PORTA) + 12h)
                          M     if (((((PORTA) + 12h)) & 8000h) != PREV_ALT)
                          M       if ((((PORTA) + 12h)) & 8000h)
                          M         bsf     WDTCON, ADSHR
                          M       else
                          M         bcf     WDTCON, ADSHR
                          M       endif
                          M PREV_ALT = (((PORTA) + 12h)) & 8000h
                          M     endif
                          M     if ((((((PORTA) + 12h)) & 0fffh) > BANKA_END) & (((((PORTA) + 12h)) & 0fffh) < (0f01h + BANKA_END)))
                          M       if (((((PORTA) + 12h)) & 0f00h) != (PREV_BANK << 8))
MPASM 5.81                   PICKBYLIGHT.ASM   1-20-2021  23:46:00         PAGE 16


LOC  OBJECT CODE     LINE SOURCE TEXT
  VALUE

                          M         movlb   high (((PORTA) + 12h))
                          M PREV_BANK = high (((PORTA) + 12h))
                          M       endif
                          M     endif
                          M     if (((1)   & 1) == 1)
0001B6 8292               M         bsf     ((PORTA) + 12h), 001h
                          M     else
                          M         bcf     ((PORTA) + 12h), 001h
                          M     endif
                      00355 
                      00356 ; C:\USERS\DMILOSAVLJEVIC\DOCUMENTS\PROJECT\TECOMATIC\PICKBYLIGHT\PICKBYLIGHT.PBP       00042       inpu
                            t _inputA3 
                      00357         INPUT?T __inputA3
                          M         MOVE?CT 1, ((PORTA) + 12h), 002h
                          M         CHK?RP  ((PORTA) + 12h)
                          M     if (((((PORTA) + 12h)) & 8000h) != PREV_ALT)
                          M       if ((((PORTA) + 12h)) & 8000h)
                          M         bsf     WDTCON, ADSHR
                          M       else
                          M         bcf     WDTCON, ADSHR
                          M       endif
                          M PREV_ALT = (((PORTA) + 12h)) & 8000h
                          M     endif
                          M     if ((((((PORTA) + 12h)) & 0fffh) > BANKA_END) & (((((PORTA) + 12h)) & 0fffh) < (0f01h + BANKA_END)))
                          M       if (((((PORTA) + 12h)) & 0f00h) != (PREV_BANK << 8))
                          M         movlb   high (((PORTA) + 12h))
                          M PREV_BANK = high (((PORTA) + 12h))
                          M       endif
                          M     endif
                          M     if (((1)   & 1) == 1)
0001B8 8492               M         bsf     ((PORTA) + 12h), 002h
                          M     else
                          M         bcf     ((PORTA) + 12h), 002h
                          M     endif
                      00358 
                      00359 ; C:\USERS\DMILOSAVLJEVIC\DOCUMENTS\PROJECT\TECOMATIC\PICKBYLIGHT\PICKBYLIGHT.PBP       00043       inpu
                            t _inputA4 
                      00360         INPUT?T __inputA4
                          M         MOVE?CT 1, ((PORTA) + 12h), 003h
                          M         CHK?RP  ((PORTA) + 12h)
                          M     if (((((PORTA) + 12h)) & 8000h) != PREV_ALT)
                          M       if ((((PORTA) + 12h)) & 8000h)
                          M         bsf     WDTCON, ADSHR
                          M       else
                          M         bcf     WDTCON, ADSHR
                          M       endif
                          M PREV_ALT = (((PORTA) + 12h)) & 8000h
                          M     endif
                          M     if ((((((PORTA) + 12h)) & 0fffh) > BANKA_END) & (((((PORTA) + 12h)) & 0fffh) < (0f01h + BANKA_END)))
                          M       if (((((PORTA) + 12h)) & 0f00h) != (PREV_BANK << 8))
                          M         movlb   high (((PORTA) + 12h))
                          M PREV_BANK = high (((PORTA) + 12h))
                          M       endif
MPASM 5.81                   PICKBYLIGHT.ASM   1-20-2021  23:46:00         PAGE 17


LOC  OBJECT CODE     LINE SOURCE TEXT
  VALUE

                          M     endif
                          M     if (((1)   & 1) == 1)
0001BA 8692               M         bsf     ((PORTA) + 12h), 003h
                          M     else
                          M         bcf     ((PORTA) + 12h), 003h
                          M     endif
                      00361 
                      00362 ; C:\USERS\DMILOSAVLJEVIC\DOCUMENTS\PROJECT\TECOMATIC\PICKBYLIGHT\PICKBYLIGHT.PBP       00049       outp
                            ut _OutputA1
                      00363         OUTPUT?T        __OutputA1
                          M         MOVE?CT 0, ((PORTD) + 12h), 002h
                          M         CHK?RP  ((PORTD) + 12h)
                          M     if (((((PORTD) + 12h)) & 8000h) != PREV_ALT)
                          M       if ((((PORTD) + 12h)) & 8000h)
                          M         bsf     WDTCON, ADSHR
                          M       else
                          M         bcf     WDTCON, ADSHR
                          M       endif
                          M PREV_ALT = (((PORTD) + 12h)) & 8000h
                          M     endif
                          M     if ((((((PORTD) + 12h)) & 0fffh) > BANKA_END) & (((((PORTD) + 12h)) & 0fffh) < (0f01h + BANKA_END)))
                          M       if (((((PORTD) + 12h)) & 0f00h) != (PREV_BANK << 8))
                          M         movlb   high (((PORTD) + 12h))
                          M PREV_BANK = high (((PORTD) + 12h))
                          M       endif
                          M     endif
                          M     if (((0)   & 1) == 1)
                          M         bsf     ((PORTD) + 12h), 002h
                          M     else
0001BC 9495               M         bcf     ((PORTD) + 12h), 002h
                          M     endif
                      00364 
                      00365 ; C:\USERS\DMILOSAVLJEVIC\DOCUMENTS\PROJECT\TECOMATIC\PICKBYLIGHT\PICKBYLIGHT.PBP       00050       outp
                            ut _OutputA2
                      00366         OUTPUT?T        __OutputA2
                          M         MOVE?CT 0, ((PORTD) + 12h), 003h
                          M         CHK?RP  ((PORTD) + 12h)
                          M     if (((((PORTD) + 12h)) & 8000h) != PREV_ALT)
                          M       if ((((PORTD) + 12h)) & 8000h)
                          M         bsf     WDTCON, ADSHR
                          M       else
                          M         bcf     WDTCON, ADSHR
                          M       endif
                          M PREV_ALT = (((PORTD) + 12h)) & 8000h
                          M     endif
                          M     if ((((((PORTD) + 12h)) & 0fffh) > BANKA_END) & (((((PORTD) + 12h)) & 0fffh) < (0f01h + BANKA_END)))
                          M       if (((((PORTD) + 12h)) & 0f00h) != (PREV_BANK << 8))
                          M         movlb   high (((PORTD) + 12h))
                          M PREV_BANK = high (((PORTD) + 12h))
                          M       endif
                          M     endif
                          M     if (((0)   & 1) == 1)
                          M         bsf     ((PORTD) + 12h), 003h
MPASM 5.81                   PICKBYLIGHT.ASM   1-20-2021  23:46:00         PAGE 18


LOC  OBJECT CODE     LINE SOURCE TEXT
  VALUE

                          M     else
0001BE 9695               M         bcf     ((PORTD) + 12h), 003h
                          M     endif
                      00367 
                      00368 ; C:\USERS\DMILOSAVLJEVIC\DOCUMENTS\PROJECT\TECOMATIC\PICKBYLIGHT\PICKBYLIGHT.PBP       00051       outp
                            ut _OutputA3
                      00369         OUTPUT?T        __OutputA3
                          M         MOVE?CT 0, ((PORTD) + 12h), 001h
                          M         CHK?RP  ((PORTD) + 12h)
                          M     if (((((PORTD) + 12h)) & 8000h) != PREV_ALT)
                          M       if ((((PORTD) + 12h)) & 8000h)
                          M         bsf     WDTCON, ADSHR
                          M       else
                          M         bcf     WDTCON, ADSHR
                          M       endif
                          M PREV_ALT = (((PORTD) + 12h)) & 8000h
                          M     endif
                          M     if ((((((PORTD) + 12h)) & 0fffh) > BANKA_END) & (((((PORTD) + 12h)) & 0fffh) < (0f01h + BANKA_END)))
                          M       if (((((PORTD) + 12h)) & 0f00h) != (PREV_BANK << 8))
                          M         movlb   high (((PORTD) + 12h))
                          M PREV_BANK = high (((PORTD) + 12h))
                          M       endif
                          M     endif
                          M     if (((0)   & 1) == 1)
                          M         bsf     ((PORTD) + 12h), 001h
                          M     else
0001C0 9295               M         bcf     ((PORTD) + 12h), 001h
                          M     endif
                      00370 
                      00371 ; C:\USERS\DMILOSAVLJEVIC\DOCUMENTS\PROJECT\TECOMATIC\PICKBYLIGHT\PICKBYLIGHT.PBP       00052       outp
                            ut _OutputA4
                      00372         OUTPUT?T        __OutputA4
                          M         MOVE?CT 0, ((PORTD) + 12h), 000h
                          M         CHK?RP  ((PORTD) + 12h)
                          M     if (((((PORTD) + 12h)) & 8000h) != PREV_ALT)
                          M       if ((((PORTD) + 12h)) & 8000h)
                          M         bsf     WDTCON, ADSHR
                          M       else
                          M         bcf     WDTCON, ADSHR
                          M       endif
                          M PREV_ALT = (((PORTD) + 12h)) & 8000h
                          M     endif
                          M     if ((((((PORTD) + 12h)) & 0fffh) > BANKA_END) & (((((PORTD) + 12h)) & 0fffh) < (0f01h + BANKA_END)))
                          M       if (((((PORTD) + 12h)) & 0f00h) != (PREV_BANK << 8))
                          M         movlb   high (((PORTD) + 12h))
                          M PREV_BANK = high (((PORTD) + 12h))
                          M       endif
                          M     endif
                          M     if (((0)   & 1) == 1)
                          M         bsf     ((PORTD) + 12h), 000h
                          M     else
0001C2 9095               M         bcf     ((PORTD) + 12h), 000h
                          M     endif
MPASM 5.81                   PICKBYLIGHT.ASM   1-20-2021  23:46:00         PAGE 19


LOC  OBJECT CODE     LINE SOURCE TEXT
  VALUE

                      00373 
                      00374 ; C:\USERS\DMILOSAVLJEVIC\DOCUMENTS\PROJECT\TECOMATIC\PICKBYLIGHT\PICKBYLIGHT.PBP       00067       clea
                            r
                      00375         CLEAR?  
  0000                    M     local loop
                          M       ifdef USE_LFSR
                          M         lfsr    0, RAM_END
                          M       else
                          M         MOVE?CW RAM_END, FSR0L
                          M     ifdef USE_LINKER
                          M         CHK?RP  FSR0L
                          M         movlw   low (RAM_END)
                          M         movwf   FSR0L
                          M         movlw   high (RAM_END)
                          M         movwf   (FSR0L) + 1
                          M     else
                          M         MOVE?CB low (RAM_END), FSR0L
                          M         CHK?RP  FSR0L
                          M     if (((FSR0L) & 8000h) != PREV_ALT)
                          M       if ((FSR0L) & 8000h)
                          M         bsf     WDTCON, ADSHR
                          M       else
                          M         bcf     WDTCON, ADSHR
                          M       endif
                          M PREV_ALT = (FSR0L) & 8000h
                          M     endif
                          M     if ((((FSR0L) & 0fffh) > BANKA_END) & (((FSR0L) & 0fffh) < (0f01h + BANKA_END)))
                          M       if (((FSR0L) & 0f00h) != (PREV_BANK << 8))
                          M         movlb   high (FSR0L)
                          M PREV_BANK = high (FSR0L)
                          M       endif
                          M     endif
                          M     if (low (low (RAM_END)) == 0)
                          M         clrf    FSR0L
                          M     else
                          M       if (low (low (RAM_END)) == 255)
0001C4 68E9               M         setf    FSR0L
                          M       else
                          M         movlw   low (low (RAM_END))
                          M         movwf   FSR0L
                          M       endif
                          M     endif
                          M         MOVE?CB high (RAM_END), (FSR0L) + 1
                          M         CHK?RP  (FSR0L) + 1
                          M     if ((((FSR0L) + 1) & 8000h) != PREV_ALT)
                          M       if (((FSR0L) + 1) & 8000h)
                          M         bsf     WDTCON, ADSHR
                          M       else
                          M         bcf     WDTCON, ADSHR
                          M       endif
                          M PREV_ALT = ((FSR0L) + 1) & 8000h
                          M     endif
                          M     if (((((FSR0L) + 1) & 0fffh) > BANKA_END) & ((((FSR0L) + 1) & 0fffh) < (0f01h + BANKA_END)))
MPASM 5.81                   PICKBYLIGHT.ASM   1-20-2021  23:46:00         PAGE 20


LOC  OBJECT CODE     LINE SOURCE TEXT
  VALUE

                          M       if ((((FSR0L) + 1) & 0f00h) != (PREV_BANK << 8))
                          M         movlb   high ((FSR0L) + 1)
                          M PREV_BANK = high ((FSR0L) + 1)
                          M       endif
                          M     endif
                          M     if (low (high (RAM_END)) == 0)
                          M         clrf    (FSR0L) + 1
                          M     else
                          M       if (low (high (RAM_END)) == 255)
                          M         setf    (FSR0L) + 1
                          M       else
0001C6 0E07               M         movlw   low (high (RAM_END))
0001C8 6EEA               M         movwf   (FSR0L) + 1
                          M       endif
                          M     endif
                          M     endif
                          M       endif
0001CA 6AED               M loop    clrf    POSTDEC0
0001CC 50E9               M         movf    FSR0L, W
0001CE 10EA               M         iorwf   FSR0H, W
0001D0 E1FC               M         bnz     loop
0001D2 6AEF               M         clrf    INDF0
                      00376 ; C:\USERS\DMILOSAVLJEVIC\DOCUMENTS\PROJECT\TECOMATIC\PICKBYLIGHT\PICKBYLIGHT.PBP       00069       majo
                            rVer con 1
                      00377 ; C:\USERS\DMILOSAVLJEVIC\DOCUMENTS\PROJECT\TECOMATIC\PICKBYLIGHT\PICKBYLIGHT.PBP       00070       revi
                            sionVer con 5
                      00378 ; C:\USERS\DMILOSAVLJEVIC\DOCUMENTS\PROJECT\TECOMATIC\PICKBYLIGHT\PICKBYLIGHT.PBP       00071       rs23
                            2_bps con 6 '9600 bps
                      00379 
                      00380 ; C:\USERS\DMILOSAVLJEVIC\DOCUMENTS\PROJECT\TECOMATIC\PICKBYLIGHT\PICKBYLIGHT.PBP       00073       ADCO
                            N1              = $0F 'iskljui komparatore na  portevima
                      00381         MOVE?CB 00Fh, ADCON1
                          M         CHK?RP  ADCON1
                          M     if (((ADCON1) & 8000h) != PREV_ALT)
                          M       if ((ADCON1) & 8000h)
                          M         bsf     WDTCON, ADSHR
                          M       else
                          M         bcf     WDTCON, ADSHR
                          M       endif
                          M PREV_ALT = (ADCON1) & 8000h
                          M     endif
                          M     if ((((ADCON1) & 0fffh) > BANKA_END) & (((ADCON1) & 0fffh) < (0f01h + BANKA_END)))
                          M       if (((ADCON1) & 0f00h) != (PREV_BANK << 8))
                          M         movlb   high (ADCON1)
                          M PREV_BANK = high (ADCON1)
                          M       endif
                          M     endif
                          M     if (low (00Fh) == 0)
                          M         clrf    ADCON1
                          M     else
                          M       if (low (00Fh) == 255)
                          M         setf    ADCON1
                          M       else
MPASM 5.81                   PICKBYLIGHT.ASM   1-20-2021  23:46:00         PAGE 21


LOC  OBJECT CODE     LINE SOURCE TEXT
  VALUE

0001D4 0E0F               M         movlw   low (00Fh)
0001D6 6EC1               M         movwf   ADCON1
                          M       endif
                          M     endif
                      00382 
                      00383 ; C:\USERS\DMILOSAVLJEVIC\DOCUMENTS\PROJECT\TECOMATIC\PICKBYLIGHT\PICKBYLIGHT.PBP       00074       CMCO
                            N               = $7
                      00384         MOVE?CB 007h, CMCON
                          M         CHK?RP  CMCON
                          M     if (((CMCON) & 8000h) != PREV_ALT)
                          M       if ((CMCON) & 8000h)
                          M         bsf     WDTCON, ADSHR
                          M       else
                          M         bcf     WDTCON, ADSHR
                          M       endif
                          M PREV_ALT = (CMCON) & 8000h
                          M     endif
                          M     if ((((CMCON) & 0fffh) > BANKA_END) & (((CMCON) & 0fffh) < (0f01h + BANKA_END)))
                          M       if (((CMCON) & 0f00h) != (PREV_BANK << 8))
                          M         movlb   high (CMCON)
                          M PREV_BANK = high (CMCON)
                          M       endif
                          M     endif
                          M     if (low (007h) == 0)
                          M         clrf    CMCON
                          M     else
                          M       if (low (007h) == 255)
                          M         setf    CMCON
                          M       else
0001D8 0E07               M         movlw   low (007h)
0001DA 6EB4               M         movwf   CMCON
                          M       endif
                          M     endif
                      00385 
                      00386 ; C:\USERS\DMILOSAVLJEVIC\DOCUMENTS\PROJECT\TECOMATIC\PICKBYLIGHT\PICKBYLIGHT.PBP       00075       INTC
                            ON2.7           = $0 'ukljuciti interne pull na portb
                      00387         MOVE?CT 000h, _INTCON2??7
                          M         CHK?RP  INTCON2
                          M     if (((INTCON2) & 8000h) != PREV_ALT)
                          M       if ((INTCON2) & 8000h)
                          M         bsf     WDTCON, ADSHR
                          M       else
                          M         bcf     WDTCON, ADSHR
                          M       endif
                          M PREV_ALT = (INTCON2) & 8000h
                          M     endif
                          M     if ((((INTCON2) & 0fffh) > BANKA_END) & (((INTCON2) & 0fffh) < (0f01h + BANKA_END)))
                          M       if (((INTCON2) & 0f00h) != (PREV_BANK << 8))
                          M         movlb   high (INTCON2)
                          M PREV_BANK = high (INTCON2)
                          M       endif
                          M     endif
                          M     if (((000h) & 1) == 1)
MPASM 5.81                   PICKBYLIGHT.ASM   1-20-2021  23:46:00         PAGE 22


LOC  OBJECT CODE     LINE SOURCE TEXT
  VALUE

                          M         bsf     INTCON2, 007h
                          M     else
0001DC 9EF1               M         bcf     INTCON2, 007h
                          M     endif
                      00388 
                      00389 ; C:\USERS\DMILOSAVLJEVIC\DOCUMENTS\PROJECT\TECOMATIC\PICKBYLIGHT\PICKBYLIGHT.PBP       00076       UCON
                            .3              = $0 '
                      00390         MOVE?CT 000h, _UCON??3
                          M         CHK?RP  UCON
                          M     if (((UCON)  & 8000h) != PREV_ALT)
                          M       if ((UCON)  & 8000h)
                          M         bsf     WDTCON, ADSHR
                          M       else
                          M         bcf     WDTCON, ADSHR
                          M       endif
                          M PREV_ALT = (UCON)  & 8000h
                          M     endif
                          M     if ((((UCON)  & 0fffh) > BANKA_END) & (((UCON)  & 0fffh) < (0f01h + BANKA_END)))
                          M       if (((UCON)  & 0f00h) != (PREV_BANK << 8))
                          M         movlb   high (UCON)
                          M PREV_BANK = high (UCON)
                          M       endif
                          M     endif
                          M     if (((000h) & 1) == 1)
                          M         bsf     UCON,   003h
                          M     else
0001DE 966D               M         bcf     UCON,   003h
                          M     endif
                      00391 
                      00392 ; C:\USERS\DMILOSAVLJEVIC\DOCUMENTS\PROJECT\TECOMATIC\PICKBYLIGHT\PICKBYLIGHT.PBP       00077       UCFG
                            .3              = $1 
                      00393         MOVE?CT 001h, _UCFG??3
                          M         CHK?RP  UCFG
                          M     if (((UCFG)  & 8000h) != PREV_ALT)
                          M       if ((UCFG)  & 8000h)
                          M         bsf     WDTCON, ADSHR
                          M       else
                          M         bcf     WDTCON, ADSHR
                          M       endif
                          M PREV_ALT = (UCFG)  & 8000h
                          M     endif
                          M     if ((((UCFG)  & 0fffh) > BANKA_END) & (((UCFG)  & 0fffh) < (0f01h + BANKA_END)))
                          M       if (((UCFG)  & 0f00h) != (PREV_BANK << 8))
                          M         movlb   high (UCFG)
                          M PREV_BANK = high (UCFG)
                          M       endif
                          M     endif
                          M     if (((001h) & 1) == 1)
0001E0 866F               M         bsf     UCFG,   003h
                          M     else
                          M         bcf     UCFG,   003h
                          M     endif
                      00394 
MPASM 5.81                   PICKBYLIGHT.ASM   1-20-2021  23:46:00         PAGE 23


LOC  OBJECT CODE     LINE SOURCE TEXT
  VALUE

                      00395 ; C:\USERS\DMILOSAVLJEVIC\DOCUMENTS\PROJECT\TECOMATIC\PICKBYLIGHT\PICKBYLIGHT.PBP       00078       PORT
                            B               = $00 'postavi sve na portu B na 0
                      00396         MOVE?CB 000h, PORTB
                          M         CHK?RP  PORTB
                          M     if (((PORTB) & 8000h) != PREV_ALT)
                          M       if ((PORTB) & 8000h)
                          M         bsf     WDTCON, ADSHR
                          M       else
                          M         bcf     WDTCON, ADSHR
                          M       endif
                          M PREV_ALT = (PORTB) & 8000h
                          M     endif
                          M     if ((((PORTB) & 0fffh) > BANKA_END) & (((PORTB) & 0fffh) < (0f01h + BANKA_END)))
                          M       if (((PORTB) & 0f00h) != (PREV_BANK << 8))
                          M         movlb   high (PORTB)
                          M PREV_BANK = high (PORTB)
                          M       endif
                          M     endif
                          M     if (low (000h) == 0)
0001E2 6A81               M         clrf    PORTB
                          M     else
                          M       if (low (000h) == 255)
                          M         setf    PORTB
                          M       else
                          M         movlw   low (000h)
                          M         movwf   PORTB
                          M       endif
                          M     endif
                      00397 
                      00398 ; C:\USERS\DMILOSAVLJEVIC\DOCUMENTS\PROJECT\TECOMATIC\PICKBYLIGHT\PICKBYLIGHT.PBP       00079       PORT
                            C               = $00 'postavi sve na portu B na 0
                      00399         MOVE?CB 000h, PORTC
                          M         CHK?RP  PORTC
                          M     if (((PORTC) & 8000h) != PREV_ALT)
                          M       if ((PORTC) & 8000h)
                          M         bsf     WDTCON, ADSHR
                          M       else
                          M         bcf     WDTCON, ADSHR
                          M       endif
                          M PREV_ALT = (PORTC) & 8000h
                          M     endif
                          M     if ((((PORTC) & 0fffh) > BANKA_END) & (((PORTC) & 0fffh) < (0f01h + BANKA_END)))
                          M       if (((PORTC) & 0f00h) != (PREV_BANK << 8))
                          M         movlb   high (PORTC)
                          M PREV_BANK = high (PORTC)
                          M       endif
                          M     endif
                          M     if (low (000h) == 0)
0001E4 6A82               M         clrf    PORTC
                          M     else
                          M       if (low (000h) == 255)
                          M         setf    PORTC
                          M       else
MPASM 5.81                   PICKBYLIGHT.ASM   1-20-2021  23:46:00         PAGE 24


LOC  OBJECT CODE     LINE SOURCE TEXT
  VALUE

                          M         movlw   low (000h)
                          M         movwf   PORTC
                          M       endif
                          M     endif
                      00400 
                      00401 ; C:\USERS\DMILOSAVLJEVIC\DOCUMENTS\PROJECT\TECOMATIC\PICKBYLIGHT\PICKBYLIGHT.PBP       00080       OSCC
                            ON              = %01110110 'setovanje osccon registra    
                      00402         MOVE?CB 076h, OSCCON
                          M         CHK?RP  OSCCON
                          M     if (((OSCCON) & 8000h) != PREV_ALT)
                          M       if ((OSCCON) & 8000h)
                          M         bsf     WDTCON, ADSHR
                          M       else
                          M         bcf     WDTCON, ADSHR
                          M       endif
                          M PREV_ALT = (OSCCON) & 8000h
                          M     endif
                          M     if ((((OSCCON) & 0fffh) > BANKA_END) & (((OSCCON) & 0fffh) < (0f01h + BANKA_END)))
                          M       if (((OSCCON) & 0f00h) != (PREV_BANK << 8))
                          M         movlb   high (OSCCON)
                          M PREV_BANK = high (OSCCON)
                          M       endif
                          M     endif
                          M     if (low (076h) == 0)
                          M         clrf    OSCCON
                          M     else
                          M       if (low (076h) == 255)
                          M         setf    OSCCON
                          M       else
0001E6 0E76               M         movlw   low (076h)
0001E8 6ED3               M         movwf   OSCCON
                          M       endif
                          M     endif
                      00403 
                      00404 ; C:\USERS\DMILOSAVLJEVIC\DOCUMENTS\PROJECT\TECOMATIC\PICKBYLIGHT\PICKBYLIGHT.PBP       00084       INCL
                            UDE "DT_INTS-18.bas"         ; Base Interrupt System
                      00405 
                      00406 ; C:\USERS\DMILOSAVLJEVIC\DOCUMENTS\PROJECT\TECOMATIC\PICKBYLIGHT\DT_INTS-18.BAS        00018   DISABLE 
                            DEBUG
                      00407         DDISABLE?       
                      00408 ; C:\USERS\DMILOSAVLJEVIC\DOCUMENTS\PROJECT\TECOMATIC\PICKBYLIGHT\DT_INTS-18.BAS        00020   DEFINE  
                            INTHAND       INT_ENTRY_H  ' Context saving for High Priority Ints
                      00409 ; C:\USERS\DMILOSAVLJEVIC\DOCUMENTS\PROJECT\TECOMATIC\PICKBYLIGHT\DT_INTS-18.BAS        00021   DEFINE  
                            INTLHAND      INT_ENTRY_L  ' Context saving for Low Priority Ints
                      00410 
                      00411 ; C:\USERS\DMILOSAVLJEVIC\DOCUMENTS\PROJECT\TECOMATIC\PICKBYLIGHT\DT_INTS-18.BAS        00044   INT_Flag
                            s = 0 
                      00412         MOVE?CB 000h, INT_Flags
                          M         CHK?RP  INT_Flags
                          M     if (((INT_Flags) & 8000h) != PREV_ALT)
                          M       if ((INT_Flags) & 8000h)
                          M         bsf     WDTCON, ADSHR
                          M       else
MPASM 5.81                   PICKBYLIGHT.ASM   1-20-2021  23:46:00         PAGE 25


LOC  OBJECT CODE     LINE SOURCE TEXT
  VALUE

                          M         bcf     WDTCON, ADSHR
                          M       endif
                          M PREV_ALT = (INT_Flags) & 8000h
                          M     endif
                          M     if ((((INT_Flags) & 0fffh) > BANKA_END) & (((INT_Flags) & 0fffh) < (0f01h + BANKA_END)))
                          M       if (((INT_Flags) & 0f00h) != (PREV_BANK << 8))
                          M         movlb   high (INT_Flags)
                          M PREV_BANK = high (INT_Flags)
                          M       endif
                          M     endif
                          M     if (low (000h) == 0)
0001EA 6A1C               M         clrf    INT_Flags
                          M     else
                          M       if (low (000h) == 255)
                          M         setf    INT_Flags
                          M       else
                          M         movlw   low (000h)
                          M         movwf   INT_Flags
                          M       endif
                          M     endif
                      00413 
                      00414 ; C:\USERS\DMILOSAVLJEVIC\DOCUMENTS\PROJECT\TECOMATIC\PICKBYLIGHT\DT_INTS-18.BAS        00046   goto  OV
                            ER_DT_INTS_18
                      00415         GOTO?L  _OVER_DT_INTS_18
                          M         L?GOTO  _OVER_DT_INTS_18
                          M     ifdef USE_LINKER
                          M         CLRWDT?
                          M     else
                          M       if ($ == (_OVER_DT_INTS_18))
                          M         CLRWDT?
                          M       endif
                          M     endif
                          M 
                          M         RST?RP
                          M     if (PREV_ALT != 0)
                          M         bcf     WDTCON, ADSHR
                          M PREV_ALT = 0
                          M     endif
                          M     if (PREV_BANK != 0)
                          M         movlb   0
                          M PREV_BANK = 0
                          M     endif
                          M 
                          M     ifdef USE_LINKER
                          M         goto    _OVER_DT_INTS_18
                          M     else
                          M       if ((_OVER_DT_INTS_18) < 1)
                          M         goto    _OVER_DT_INTS_18
                          M       else
                          M         if ((_OVER_DT_INTS_18) > $)
0001EC EFF9 F000          M         goto    _OVER_DT_INTS_18
                          M         else
                          M           if ((_OVER_DT_INTS_18) < ($ - 3ffh))
MPASM 5.81                   PICKBYLIGHT.ASM   1-20-2021  23:46:00         PAGE 26


LOC  OBJECT CODE     LINE SOURCE TEXT
  VALUE

                          M         goto    _OVER_DT_INTS_18
                          M           else
                          M         bra     _OVER_DT_INTS_18
                          M           endif
                          M         endif
                          M       endif
                          M     endif
                      00416 
                      00417 ; C:\USERS\DMILOSAVLJEVIC\DOCUMENTS\PROJECT\TECOMATIC\PICKBYLIGHT\DT_INTS-18.BAS        00048   ASM
                      00418 
                      00419         ASM?
                          M         RST?RP
                          M     if (PREV_ALT != 0)
                          M         bcf     WDTCON, ADSHR
                          M PREV_ALT = 0
                          M     endif
                          M     if (PREV_BANK != 0)
                          M         movlb   0
                          M PREV_BANK = 0
                          M     endif
                      00420 
                      00421 ;____ Check for PBPL (PBP ver. 2.50 and above only)__________________________
  00000000            00422 PBPLongs_Used = 0
                      00423   if (R1 - R0 == 4)
                      00424 PBPLongs_Used = 1
                      00425 ;    messg PBPL Used = 1
                      00426   endif
                      00427 
                      00881   list  
                      00882 
                      00883 
                      00884         ENDASM?
                      00885 
                      00886 
                      00887 ; C:\USERS\DMILOSAVLJEVIC\DOCUMENTS\PROJECT\TECOMATIC\PICKBYLIGHT\DT_INTS-18.BAS        00478   ASM
                      00888 
                      00889         ASM?
                          M         RST?RP
                          M     if (PREV_ALT != 0)
                          M         bcf     WDTCON, ADSHR
                          M PREV_ALT = 0
                          M     endif
                          M     if (PREV_BANK != 0)
                          M         movlb   0
                          M PREV_BANK = 0
                          M     endif
                      00890 
                      00891     ifndef  USE_LOWPRIORITY
0001F0                00892 INT_ENTRY_L
0001F0 0010           00893         retfie
                      00894     else
                      00895         if (USE_LOWPRIORITY != 1)
                      00896 INT_ENTRY_L
MPASM 5.81                   PICKBYLIGHT.ASM   1-20-2021  23:46:00         PAGE 27


LOC  OBJECT CODE     LINE SOURCE TEXT
  VALUE

                      00897             retfie
                      00898         endif
                      00899     endif        
                      00900 
                      00901 
                      00902         ENDASM?
                      00903 
                      00904 
                      00905 ; C:\USERS\DMILOSAVLJEVIC\DOCUMENTS\PROJECT\TECOMATIC\PICKBYLIGHT\DT_INTS-18.BAS        00491   Asm
                      00906 
                      00907         ASM?
                          M         RST?RP
                          M     if (PREV_ALT != 0)
                          M         bcf     WDTCON, ADSHR
                          M PREV_ALT = 0
                          M     endif
                          M     if (PREV_BANK != 0)
                          M         movlb   0
                          M PREV_BANK = 0
                          M     endif
                      00908 
  00000000            00909 asm = 0    ; Assembly language Interrupts
  00000000            00910 ASM = 0
  00000000            00911 Asm = 0
  00000001            00912 pbp = 1    ; Basic language interrupts
  00000001            00913 PBP = 1
  00000001            00914 Pbp = 1
  00000001            00915 YES = 1
  00000001            00916 yes = 1
  00000001            00917 Yes = 1
  00000000            00918 NO = 0
  00000000            00919 no = 0
  00000000            00920 No = 0
  00000048            00921 H equ 'H'  ; High Priority
  00000048            00922 h equ 'H'
  0000004C            00923 L equ 'L'  ; Low Priority
  0000004C            00924 l equ 'L'
                      00925 
Warning[207]: Found label after column 1. (INT_LIST)
                          M   list
                          M     if (0 >= 0) && (0 <= 2)
                          M         if (H  == H) || (H  == L)
000384 CFE9 F060          M             movff    FSR0L,     fsave0H
000388 CFEA F061          M             movff    FSR0H,     fsave0H      + 1
                          M     list
                          M     SaveFSR  1, H
                          M   list
                          M     if (1 >= 0) && (1 <= 2)
                          M         if (H  == H) || (H  == L)
00038C CFE1 F064          M             movff    FSR1L,     fsave1H
000390 CFE2 F065          M             movff    FSR1H,     fsave1H      + 1
                          M     list
                          M     SaveFSR  2, H
MPASM 5.81                   PICKBYLIGHT.ASM   1-20-2021  23:46:00         PAGE 28


LOC  OBJECT CODE     LINE SOURCE TEXT
  VALUE

                          M   list
                          M     if (2 >= 0) && (2 <= 2)
                          M         if (H  == H) || (H  == L)
000394 CFD9 F068          M             movff    FSR2L,     fsave2H
000398 CFDA F069          M             movff    FSR2H,     fsave2H      + 1
                          M     list
00039C 841C               M     bsf      _InHPint, 0
00039E                    M List_Start_H
00039E 901C               M     bcf      _Serviced_H, 0         ; Clear Serviced flag
0003A0 6AE0               M     clrf  BSR
  00000000                M PREV_BANK = 0
                          M     ifdef INT_LIST_H
                          M         INT_LIST_H                  ; Expand the users list of HP INT handlers
                          M     else
                          M         ifdef INT_LIST
                          M             INT_LIST                ; Expand the 16F Compatible List
                          M          INT_Handler   TMR1_INT,  _DoInputs,   PBP,  yes
                          M   list
  0000                    M     local AfterSave, AfterUser, NoInt
  00000001                M INT_Count += 1
  00000F9E                M PrList1R             = PIR1
  00000000                M PrList1B             = TMR1IF
  00000048                M PrList1Priority             = Priority
                          M         GetIntInfo   PIR1,       TMR1IF
                          M   list  
  00000F9E                M INT_Flag_Reg = PIR1
  00000000                M INT_Flag_Bit = TMR1IF
  00000F9D                M INT_Enable_Reg = PIE1
  00000000                M INT_Enable_Bit = TMR1IE
  00000F9F                M INT_Priority_Reg = IPR1
  00000000                M INT_Priority_Bit = TMR1IP
  00000001                M Found = 1
                          M     endif
                          M   list
                          M         if (Found == YES)
0003A2 A09D               M             btfss    INT_Enable_Reg, INT_Enable_Bit, 0  ; if INT is enabled
0003A4 EFE9 F001          M             goto   NoInt
0003A8 A09E               M             btfss    INT_Flag_Reg, INT_Flag_Bit, 0      ; and the Flag set?
0003AA EFE9 F001          M             goto     NoInt
                          M             if (Priority == H)
0003AE 801C               M                 bsf      _Serviced_H, 0
                          M             else
                          M                 bsf      _Serviced_L, 0
                          M             endif
                          M             ifdef NO_CLRWDT
                          M                 if  (NO_CLRWDT != 1)
                          M                     CLRWDT
                          M                 endif
                          M             else
0003B0 0004               M                 CLRWDT
                          M             endif
                          M                 
                          M             if (PBP  == PBP)                         ; If INT handler is PBP
MPASM 5.81                   PICKBYLIGHT.ASM   1-20-2021  23:46:00         PAGE 29


LOC  OBJECT CODE     LINE SOURCE TEXT
  VALUE

                          M               if (Priority == H)
                          M                 ifdef ReEnterHPused
                          M                     GetAddress21  AfterSave, RetAddrH  
                          M     CHK?RP RetAddrH
                          M     if (((RetAddrH) & 8000h) != PREV_ALT)
                          M       if ((RetAddrH) & 8000h)
                          M         bsf     WDTCON, ADSHR
                          M       else
                          M         bcf     WDTCON, ADSHR
                          M       endif
                          M PREV_ALT = (RetAddrH) & 8000h
                          M     endif
                          M     if ((((RetAddrH) & 0fffh) > BANKA_END) & (((RetAddrH) & 0fffh) < (0f01h + BANKA_END)))
                          M       if (((RetAddrH) & 0f00h) != (PREV_BANK << 8))
                          M         movlb   high (RetAddrH)
                          M PREV_BANK = high (RetAddrH)
                          M       endif
                          M     endif
0003B2 0EC0               M     movlw low _277AfterSave  ; get low byte
0003B4 6E24               M     movwf RetAddrH
0003B6 0E03               M     movlw high _277AfterSave ; get high byte
0003B8 6E25               M     movwf RetAddrH + 1
0003BA 0E00               M     movlw upper _277AfterSave ; get upper byte
0003BC 6E26               M     movwf RetAddrH + 2
                          M                     L?GOTO  _SavePBP_H        ; Save PBP system Vars in HP INT
                          M     ifdef USE_LINKER
                          M         CLRWDT?
                          M     else
                          M       if ($ == (_SavePBP_H))
                          M         CLRWDT?
                          M       endif
                          M     endif
                          M 
                          M         RST?RP
                          M     if (PREV_ALT != 0)
                          M         bcf     WDTCON, ADSHR
                          M PREV_ALT = 0
                          M     endif
                          M     if (PREV_BANK != 0)
                          M         movlb   0
                          M PREV_BANK = 0
                          M     endif
                          M 
                          M     ifdef USE_LINKER
                          M         goto    _SavePBP_H
                          M     else
                          M       if ((_SavePBP_H) < 1)
                          M         goto    _SavePBP_H
                          M       else
                          M         if ((_SavePBP_H) > $)
                          M         goto    _SavePBP_H
                          M         else
                          M           if ((_SavePBP_H) < ($ - 3ffh))
MPASM 5.81                   PICKBYLIGHT.ASM   1-20-2021  23:46:00         PAGE 30


LOC  OBJECT CODE     LINE SOURCE TEXT
  VALUE

                          M         goto    _SavePBP_H
                          M           else
0003BE D71C               M         bra     _SavePBP_H
                          M           endif
                          M         endif
                          M       endif
                          M     endif
                          M                 else
                          M     error "ReEnterPBP-18 must be INCLUDEd to use High Priority PBP interrupts"
                          M                 endif
                          M               else ; Priority = L
                          M                 ifdef ReEnterLPused
                          M                     GetAddress21  AfterSave, RetAddrL  
                          M                     L?GOTO  _SavePBP_L        ; Save PBP system Vars in LP INT
                          M                 else
                          M    error "ReEnterPBP-18LP must be INCLUDEd to use Low Priority PBP interrupts"
                          M                 endif
                          M               endif
                          M             endif
0003C0                    M AfterSave
  00000000                M PREV_BANK = 0
                          M             if (Priority == H)
                          M                   GetAddress21  AfterUser, RetAddrH  
                          M     CHK?RP RetAddrH
                          M     if (((RetAddrH) & 8000h) != PREV_ALT)
                          M       if ((RetAddrH) & 8000h)
                          M         bsf     WDTCON, ADSHR
                          M       else
                          M         bcf     WDTCON, ADSHR
                          M       endif
                          M PREV_ALT = (RetAddrH) & 8000h
                          M     endif
                          M     if ((((RetAddrH) & 0fffh) > BANKA_END) & (((RetAddrH) & 0fffh) < (0f01h + BANKA_END)))
                          M       if (((RetAddrH) & 0f00h) != (PREV_BANK << 8))
                          M         movlb   high (RetAddrH)
                          M PREV_BANK = high (RetAddrH)
                          M       endif
                          M     endif
0003C0 0ED0               M     movlw low _277AfterUser  ; get low byte
0003C2 6E24               M     movwf RetAddrH
0003C4 0E03               M     movlw high _277AfterUser ; get high byte
0003C6 6E25               M     movwf RetAddrH + 1
0003C8 0E00               M     movlw upper _277AfterUser ; get upper byte
0003CA 6E26               M     movwf RetAddrH + 2
                          M             else ; Priority = L
                          M                   GetAddress21  AfterUser, RetAddrL
                          M             endif  
                          M             L?GOTO   _DoInputs                    ; goto the users INT handler
                          M     ifdef USE_LINKER
                          M         CLRWDT?
                          M     else
                          M       if ($ == (_DoInputs))
                          M         CLRWDT?
MPASM 5.81                   PICKBYLIGHT.ASM   1-20-2021  23:46:00         PAGE 31


LOC  OBJECT CODE     LINE SOURCE TEXT
  VALUE

                          M       endif
                          M     endif
                          M 
                          M         RST?RP
                          M     if (PREV_ALT != 0)
                          M         bcf     WDTCON, ADSHR
                          M PREV_ALT = 0
                          M     endif
                          M     if (PREV_BANK != 0)
                          M         movlb   0
                          M PREV_BANK = 0
                          M     endif
                          M 
                          M     ifdef USE_LINKER
                          M         goto    _DoInputs
                          M     else
                          M       if ((_DoInputs) < 1)
                          M         goto    _DoInputs
                          M       else
                          M         if ((_DoInputs) > $)
0003CC EF1E F005          M         goto    _DoInputs
                          M         else
                          M           if ((_DoInputs) < ($ - 3ffh))
                          M         goto    _DoInputs
                          M           else
                          M         bra     _DoInputs
                          M           endif
                          M         endif
                          M       endif
                          M     endif
                          M                     
0003D0                    M AfterUser
  00000000                M PREV_BANK = 0
                          M             if (yes   == YES)                      ; reset flag (if specified)
0003D0 909E               M                 bcf      INT_Flag_Reg, INT_Flag_Bit, 0 
                          M             endif
                          M         else
                          M             error Interrupt Source (PIR1,TMR1IF)           not found
                          M         endif
0003D2                    M NoInt
0003D2 6AE0               M     clrf  BSR
  00000000                M PREV_BANK = 0
                          M         else
                          M             error "INT_CREATE_H - INT_LIST or INT_LIST_H not found"
                          M         endif
                          M     endif
0003D4 B01C               M     btfsc    _Serviced_H,0          ; if anything was serviced
0003D6 EFCF F001          M     goto     List_Start_H           ; go around, and check again
                          M 
                          M     ifdef ReEnterHPused             ; was ReEnterPBP-18.bas included
                          M         GetAddress21  INT_EXIT_H, RetAddrH
                          M     CHK?RP RetAddrH
                          M     if (((RetAddrH) & 8000h) != PREV_ALT)
MPASM 5.81                   PICKBYLIGHT.ASM   1-20-2021  23:46:00         PAGE 32


LOC  OBJECT CODE     LINE SOURCE TEXT
  VALUE

                          M       if ((RetAddrH) & 8000h)
                          M         bsf     WDTCON, ADSHR
                          M       else
                          M         bcf     WDTCON, ADSHR
                          M       endif
                          M PREV_ALT = (RetAddrH) & 8000h
                          M     endif
                          M     if ((((RetAddrH) & 0fffh) > BANKA_END) & (((RetAddrH) & 0fffh) < (0f01h + BANKA_END)))
                          M       if (((RetAddrH) & 0f00h) != (PREV_BANK << 8))
                          M         movlb   high (RetAddrH)
                          M PREV_BANK = high (RetAddrH)
                          M       endif
                          M     endif
0003DA 0EE8               M     movlw low INT_EXIT_H     ; get low byte
0003DC 6E24               M     movwf RetAddrH
0003DE 0E03               M     movlw high INT_EXIT_H    ; get high byte
0003E0 6E25               M     movwf RetAddrH + 1
0003E2 0E00               M     movlw upper INT_EXIT_H   ; get upper byte
0003E4 6E26               M     movwf RetAddrH + 2
                          M         L?GOTO   _RestorePBP_H      ; Restore PBP system Vars
                          M     ifdef USE_LINKER
                          M         CLRWDT?
                          M     else
                          M       if ($ == (_RestorePBP_H))
                          M         CLRWDT?
                          M       endif
                          M     endif
                          M 
                          M         RST?RP
                          M     if (PREV_ALT != 0)
                          M         bcf     WDTCON, ADSHR
                          M PREV_ALT = 0
                          M     endif
                          M     if (PREV_BANK != 0)
                          M         movlb   0
                          M PREV_BANK = 0
                          M     endif
                          M 
                          M     ifdef USE_LINKER
                          M         goto    _RestorePBP_H
                          M     else
                          M       if ((_RestorePBP_H) < 1)
                          M         goto    _RestorePBP_H
                          M       else
                          M         if ((_RestorePBP_H) > $)
                          M         goto    _RestorePBP_H
                          M         else
                          M           if ((_RestorePBP_H) < ($ - 3ffh))
                          M         goto    _RestorePBP_H
                          M           else
0003E6 D768               M         bra     _RestorePBP_H
                          M           endif
                          M         endif
MPASM 5.81                   PICKBYLIGHT.ASM   1-20-2021  23:46:00         PAGE 33


LOC  OBJECT CODE     LINE SOURCE TEXT
  VALUE

                          M       endif
                          M     endif
                          M     endif
                          M 
0003E8                    M INT_EXIT_H
  00000000                M PREV_BANK = 0
0003E8 941C               M     bcf      _InHPint, 0
                          M     RestFSR  0, H                   ; Restore FSR0, if it was saved?
                          M   list
                          M     if (0 >= 0) && (0 <= 2)
                          M         if (H  == H) || (H  == L)
0003EA C060 FFE9          M             movff    fsave0H      , FSR0L
0003EE C061 FFEA          M             movff    fsave0H      + 1 , FSR0H     
                          M     list
                          M     RestFSR  1, H                   ; Restore FSR1, if it was saved?
                          M   list
                          M     if (1 >= 0) && (1 <= 2)
                          M         if (H  == H) || (H  == L)
0003F2 C064 FFE1          M             movff    fsave1H      , FSR1L
0003F6 C065 FFE2          M             movff    fsave1H      + 1 , FSR1H     
                          M     list
                          M     RestFSR  2, H                   ; Restore FSR2, if it was saved?
                          M   list
                          M     if (2 >= 0) && (2 <= 2)
                          M         if (H  == H) || (H  == L)
0003FA C068 FFD9          M             movff    fsave2H      , FSR2L
0003FE C069 FFDA          M             movff    fsave2H      + 1 , FSR2H     
                          M     list
000402 C06D FFFA          M     movff    psaveH, PCLATH
000406 C06F FFFB          M     movff    psaveUH, PCLATU
00040A 0011               M     retfie    FAST                  ; Return from Interrupt
00040C                    M OverCREATE
00040C 8EF2               M     bsf   INTCON,GIE, 0             ; Enable High Priority Interrupts
00040E 8CF2               M     bsf   INTCON,PEIE, 0            ; Enable Peripheral Interrupts
                      01786     
                      01787 
                      01788         ENDASM?
                      01789 
                      01790 
                      01791 ; C:\USERS\DMILOSAVLJEVIC\DOCUMENTS\PROJECT\TECOMATIC\PICKBYLIGHT\PICKBYLIGHT.PBP       00093       T1CO
                            N = %00110001                      
                      01792         MOVE?CB 031h, T1CON
                          M         CHK?RP  T1CON
                          M     if (((T1CON) & 8000h) != PREV_ALT)
                          M       if ((T1CON) & 8000h)
                          M         bsf     WDTCON, ADSHR
                          M       else
                          M         bcf     WDTCON, ADSHR
                          M       endif
                          M PREV_ALT = (T1CON) & 8000h
                          M     endif
                          M     if ((((T1CON) & 0fffh) > BANKA_END) & (((T1CON) & 0fffh) < (0f01h + BANKA_END)))
                          M       if (((T1CON) & 0f00h) != (PREV_BANK << 8))
MPASM 5.81                   PICKBYLIGHT.ASM   1-20-2021  23:46:00         PAGE 34


LOC  OBJECT CODE     LINE SOURCE TEXT
  VALUE

                          M         movlb   high (T1CON)
                          M PREV_BANK = high (T1CON)
                          M       endif
                          M     endif
                          M     if (low (031h) == 0)
                          M         clrf    T1CON
                          M     else
                          M       if (low (031h) == 255)
                          M         setf    T1CON
                          M       else
000410 0E31               M         movlw   low (031h)
000412 6ECD               M         movwf   T1CON
                          M       endif
                          M     endif
                      01793 
                      01794 ; C:\USERS\DMILOSAVLJEVIC\DOCUMENTS\PROJECT\TECOMATIC\PICKBYLIGHT\PICKBYLIGHT.PBP       00094       @ IN
                            T_ENABLE  TMR1_INT  'Upali tajmer  
                      01795 
                      01796         ASM?
                          M         RST?RP
                          M     if (PREV_ALT != 0)
                          M         bcf     WDTCON, ADSHR
                          M PREV_ALT = 0
                          M     endif
                          M     if (PREV_BANK != 0)
                          M         movlb   0
                          M PREV_BANK = 0
                          M     endif
                      01797  INT_ENABLE  TMR1_INT  
                          M       GetIntInfo   PIR1,       TMR1IF
                          M   list  
  00000F9E                M INT_Flag_Reg = PIR1
  00000000                M INT_Flag_Bit = TMR1IF
  00000F9D                M INT_Enable_Reg = PIE1
  00000000                M INT_Enable_Bit = TMR1IE
  00000F9F                M INT_Priority_Reg = IPR1
  00000000                M INT_Priority_Bit = TMR1IP
  00000001                M Found = 1
                          M     endif
                          M   list
                          M       if (Found == YES)
                          M           FindIntPriority  PIR1,       TMR1IF
  0000                    M   local LoopCount
                          M   list
  00000048                M Priority =  PrList1Priority
  00000001                M Pfound = 1
                          M              endif
                          M           endif
  00000002                M LoopCount += 1
                          M       endw
                          M           if (Pfound == 1)
                          M               if (INT_Priority_Reg != -1)
                          M                   if (Priority == H)
MPASM 5.81                   PICKBYLIGHT.ASM   1-20-2021  23:46:00         PAGE 35


LOC  OBJECT CODE     LINE SOURCE TEXT
  VALUE

000414 809F               M                       bsf  INT_Priority_Reg, INT_Priority_Bit, 0
                          M                   else
                          M                       if (Priority == L)
                          M                           bcf  INT_Priority_Reg, INT_Priority_Bit, 0
                          M                       else
                          M                           error "INT_ENABLE - Invalid Priority Specified"
                          M                       endif
                          M                   endif
                          M               else
                          M                   if (Priority == L)
                          M                       error "INT0_INT can NOT be assigned to Low Priority"
                          M                   endif
                          M               endif
                          M           else
                          M               error "INT_ENABLE - Priority State Not Found"
                          M           endif
                          M ;          bcf     INT_Flag_Reg, INT_Flag_Bit, 0        ; clear the flag first 
000416 809D               M           bsf     INT_Enable_Reg, INT_Enable_Bit, 0    ; enable the INT source  
                          M       else
                          M           error  "INT_ENABLE - Interrupt Source not found!"
                          M       endif
                      01798 
                      01799         ENDASM?
                      01800 
                      01801 
                      01802 ; C:\USERS\DMILOSAVLJEVIC\DOCUMENTS\PROJECT\TECOMATIC\PICKBYLIGHT\PICKBYLIGHT.PBP       00095         _O
                            utputA1 = 0
                      01803         MOVE?CT 000h, __OutputA1
                          M         CHK?RP  PORTD
                          M     if (((PORTD) & 8000h) != PREV_ALT)
                          M       if ((PORTD) & 8000h)
                          M         bsf     WDTCON, ADSHR
                          M       else
                          M         bcf     WDTCON, ADSHR
                          M       endif
                          M PREV_ALT = (PORTD) & 8000h
                          M     endif
                          M     if ((((PORTD) & 0fffh) > BANKA_END) & (((PORTD) & 0fffh) < (0f01h + BANKA_END)))
                          M       if (((PORTD) & 0f00h) != (PREV_BANK << 8))
                          M         movlb   high (PORTD)
                          M PREV_BANK = high (PORTD)
                          M       endif
                          M     endif
                          M     if (((000h) & 1) == 1)
                          M         bsf     PORTD,  002h
                          M     else
000418 9483               M         bcf     PORTD,  002h
                          M     endif
                      01804 
                      01805 ; C:\USERS\DMILOSAVLJEVIC\DOCUMENTS\PROJECT\TECOMATIC\PICKBYLIGHT\PICKBYLIGHT.PBP       00096         _O
                            utputA2 = 0
                      01806         MOVE?CT 000h, __OutputA2
                          M         CHK?RP  PORTD
MPASM 5.81                   PICKBYLIGHT.ASM   1-20-2021  23:46:00         PAGE 36


LOC  OBJECT CODE     LINE SOURCE TEXT
  VALUE

                          M     if (((PORTD) & 8000h) != PREV_ALT)
                          M       if ((PORTD) & 8000h)
                          M         bsf     WDTCON, ADSHR
                          M       else
                          M         bcf     WDTCON, ADSHR
                          M       endif
                          M PREV_ALT = (PORTD) & 8000h
                          M     endif
                          M     if ((((PORTD) & 0fffh) > BANKA_END) & (((PORTD) & 0fffh) < (0f01h + BANKA_END)))
                          M       if (((PORTD) & 0f00h) != (PREV_BANK << 8))
                          M         movlb   high (PORTD)
                          M PREV_BANK = high (PORTD)
                          M       endif
                          M     endif
                          M     if (((000h) & 1) == 1)
                          M         bsf     PORTD,  003h
                          M     else
00041A 9683               M         bcf     PORTD,  003h
                          M     endif
                      01807 
                      01808 ; C:\USERS\DMILOSAVLJEVIC\DOCUMENTS\PROJECT\TECOMATIC\PICKBYLIGHT\PICKBYLIGHT.PBP       00097         _O
                            utputA3 = 0
                      01809         MOVE?CT 000h, __OutputA3
                          M         CHK?RP  PORTD
                          M     if (((PORTD) & 8000h) != PREV_ALT)
                          M       if ((PORTD) & 8000h)
                          M         bsf     WDTCON, ADSHR
                          M       else
                          M         bcf     WDTCON, ADSHR
                          M       endif
                          M PREV_ALT = (PORTD) & 8000h
                          M     endif
                          M     if ((((PORTD) & 0fffh) > BANKA_END) & (((PORTD) & 0fffh) < (0f01h + BANKA_END)))
                          M       if (((PORTD) & 0f00h) != (PREV_BANK << 8))
                          M         movlb   high (PORTD)
                          M PREV_BANK = high (PORTD)
                          M       endif
                          M     endif
                          M     if (((000h) & 1) == 1)
                          M         bsf     PORTD,  001h
                          M     else
00041C 9283               M         bcf     PORTD,  001h
                          M     endif
                      01810 
                      01811 ; C:\USERS\DMILOSAVLJEVIC\DOCUMENTS\PROJECT\TECOMATIC\PICKBYLIGHT\PICKBYLIGHT.PBP       00098         _O
                            utputA4 = 0
                      01812         MOVE?CT 000h, __OutputA4
                          M         CHK?RP  PORTD
                          M     if (((PORTD) & 8000h) != PREV_ALT)
                          M       if ((PORTD) & 8000h)
                          M         bsf     WDTCON, ADSHR
                          M       else
                          M         bcf     WDTCON, ADSHR
MPASM 5.81                   PICKBYLIGHT.ASM   1-20-2021  23:46:00         PAGE 37


LOC  OBJECT CODE     LINE SOURCE TEXT
  VALUE

                          M       endif
                          M PREV_ALT = (PORTD) & 8000h
                          M     endif
                          M     if ((((PORTD) & 0fffh) > BANKA_END) & (((PORTD) & 0fffh) < (0f01h + BANKA_END)))
                          M       if (((PORTD) & 0f00h) != (PREV_BANK << 8))
                          M         movlb   high (PORTD)
                          M PREV_BANK = high (PORTD)
                          M       endif
                          M     endif
                          M     if (((000h) & 1) == 1)
                          M         bsf     PORTD,  000h
                          M     else
00041E 9083               M         bcf     PORTD,  000h
                          M     endif
                      01813 
                      01814 ; C:\USERS\DMILOSAVLJEVIC\DOCUMENTS\PROJECT\TECOMATIC\PICKBYLIGHT\PICKBYLIGHT.PBP       00100       paus
                            e 500                      
                      01815         PAUSE?C 001F4h
                          M     if (((001F4h) >> 8) == 0)
                          M         MOVE?CA 001F4h
                          M         L?CALL  PAUSE
                          M     else
                          M         MOVE?CB (001F4h) >> 8, R1 + 1
                          M         CHK?RP  R1 + 1
                          M     if (((R1 + 1) & 8000h) != PREV_ALT)
                          M       if ((R1 + 1) & 8000h)
                          M         bsf     WDTCON, ADSHR
                          M       else
                          M         bcf     WDTCON, ADSHR
                          M       endif
                          M PREV_ALT = (R1 + 1) & 8000h
                          M     endif
                          M     if ((((R1 + 1) & 0fffh) > BANKA_END) & (((R1 + 1) & 0fffh) < (0f01h + BANKA_END)))
                          M       if (((R1 + 1) & 0f00h) != (PREV_BANK << 8))
                          M         movlb   high (R1 + 1)
                          M PREV_BANK = high (R1 + 1)
                          M       endif
                          M     endif
                          M     if (low ((001F4h) >> 8) == 0)
                          M         clrf    R1 + 1
                          M     else
                          M       if (low ((001F4h) >> 8) == 255)
                          M         setf    R1 + 1
                          M       else
000420 0E01               M         movlw   low ((001F4h) >> 8)
000422 6E05               M         movwf   R1 + 1
                          M       endif
                          M     endif
                          M         MOVE?CA low (001F4h)
000424 0EF4               M         movlw   low (low (001F4h))
                          M         L?CALL  PAUSEL
                          M         RST?RP
                          M     if (PREV_ALT != 0)
MPASM 5.81                   PICKBYLIGHT.ASM   1-20-2021  23:46:00         PAGE 38


LOC  OBJECT CODE     LINE SOURCE TEXT
  VALUE

                          M         bcf     WDTCON, ADSHR
                          M PREV_ALT = 0
                          M     endif
                          M     if (PREV_BANK != 0)
                          M         movlb   0
                          M PREV_BANK = 0
                          M     endif
                          M 
                          M     ifdef USE_LINKER
                          M         call    PAUSEL
                          M     else
                          M       if ((PAUSEL) < 1)
                          M         call    PAUSEL
                          M       else
                          M         if ((PAUSEL) > $)
                          M         call    PAUSEL
                          M         else
                          M           if ((PAUSEL) < ($ - 3ffh))
                          M         call    PAUSEL
                          M           else
000426 DE86               M         rcall   PAUSEL
                          M           endif
                          M         endif
                          M       endif
                          M     endif
                          M     endif
                      01816 
                      01817 ; C:\USERS\DMILOSAVLJEVIC\DOCUMENTS\PROJECT\TECOMATIC\PICKBYLIGHT\PICKBYLIGHT.PBP       00102   Init:  
                      01818 
                      01819         LABEL?L _Init   
                          M         RST?RP
                          M     if (PREV_ALT != 0)
                          M         bcf     WDTCON, ADSHR
                          M PREV_ALT = 0
                          M     endif
                          M     if (PREV_BANK != 0)
                          M         movlb   0
                          M PREV_BANK = 0
                          M     endif
                          M     ifdef PM_USED
                          M         LALL
                          M _Init
                          M         XALL
                          M     else
000428                    M _Init
                          M     endif
                      01820 
                      01821 ; C:\USERS\DMILOSAVLJEVIC\DOCUMENTS\PROJECT\TECOMATIC\PICKBYLIGHT\PICKBYLIGHT.PBP       00103       sERO
                            UT _rs232Tx,rs232_bps,["........................................................................
                      01822         SERPIN?T        __rs232Tx
                          M         BIT?R1  PORTD, 007h
000428 0E83               M         movlw   low ((PORTD) + ((007h)  >> 3))
                          M         CHK?RP  RR1
MPASM 5.81                   PICKBYLIGHT.ASM   1-20-2021  23:46:00         PAGE 39


LOC  OBJECT CODE     LINE SOURCE TEXT
  VALUE

                          M     if (((RR1)   & 8000h) != PREV_ALT)
                          M       if ((RR1)   & 8000h)
                          M         bsf     WDTCON, ADSHR
                          M       else
                          M         bcf     WDTCON, ADSHR
                          M       endif
                          M PREV_ALT = (RR1)   & 8000h
                          M     endif
                          M     if ((((RR1)   & 0fffh) > BANKA_END) & (((RR1)   & 0fffh) < (0f01h + BANKA_END)))
                          M       if (((RR1)   & 0f00h) != (PREV_BANK << 8))
                          M         movlb   high (RR1)
                          M PREV_BANK = high (RR1)
                          M       endif
                          M     endif
00042A 6E1F               M         movwf   RR1
00042C 0E0F               M         movlw   high ((PORTD) + ((007h)  >> 3))
00042E 6E21               M         movwf   RS1
                          M         BIT?W   007h
                          M     if (((007h)  & 7) == 0)
                          M         movlw   01h
                          M     endif
                          M     if (((007h)  & 7) == 1)
                          M         movlw   02h
                          M     endif
                          M     if (((007h)  & 7) == 2)
                          M         movlw   04h
                          M     endif
                          M     if (((007h)  & 7) == 3)
                          M         movlw   08h
                          M     endif
                          M     if (((007h)  & 7) == 4)
                          M         movlw   10h
                          M     endif
                          M     if (((007h)  & 7) == 5)
                          M         movlw   20h
                          M     endif
                          M     if (((007h)  & 7) == 6)
                          M         movlw   40h
                          M     endif
                          M     if (((007h)  & 7) == 7)
000430 0E80               M         movlw   80h
                          M     endif
000432 6E1D               M         movwf   RM1
                      01823         SERMODE?C       _rs232_bps
                          M         MOVE?CB _rs232_bps, GOP
                          M         CHK?RP  GOP
                          M     if (((GOP)   & 8000h) != PREV_ALT)
                          M       if ((GOP)   & 8000h)
                          M         bsf     WDTCON, ADSHR
                          M       else
                          M         bcf     WDTCON, ADSHR
                          M       endif
                          M PREV_ALT = (GOP)   & 8000h
MPASM 5.81                   PICKBYLIGHT.ASM   1-20-2021  23:46:00         PAGE 40


LOC  OBJECT CODE     LINE SOURCE TEXT
  VALUE

                          M     endif
                          M     if ((((GOP)   & 0fffh) > BANKA_END) & (((GOP)   & 0fffh) < (0f01h + BANKA_END)))
                          M       if (((GOP)   & 0f00h) != (PREV_BANK << 8))
                          M         movlb   high (GOP)
                          M PREV_BANK = high (GOP)
                          M       endif
                          M     endif
                          M     if (low (_rs232_bps) == 0)
                          M         clrf    GOP
                          M     else
                          M       if (low (_rs232_bps) == 255)
                          M         setf    GOP
                          M       else
000434 0E06               M         movlw   low (_rs232_bps)
000436 6E01               M         movwf   GOP
                          M       endif
                          M     endif
                      01824         SEROUT?C        02Eh
000438 0E2E               M         movlw   02Eh
                          M         L?CALL  SEROUT
                          M         RST?RP
                          M     if (PREV_ALT != 0)
                          M         bcf     WDTCON, ADSHR
                          M PREV_ALT = 0
                          M     endif
                          M     if (PREV_BANK != 0)
                          M         movlb   0
                          M PREV_BANK = 0
                          M     endif
                          M 
                          M     ifdef USE_LINKER
                          M         call    SEROUT
                          M     else
                          M       if ((SEROUT) < 1)
                          M         call    SEROUT
                          M       else
                          M         if ((SEROUT) > $)
                          M         call    SEROUT
                          M         else
                          M           if ((SEROUT) < ($ - 3ffh))
                          M         call    SEROUT
                          M           else
00043A DE2D               M         rcall   SEROUT
                          M           endif
                          M         endif
                          M       endif
                          M     endif
                      01825         SEROUT?C        02Eh
00043C 0E2E               M         movlw   02Eh
                          M         L?CALL  SEROUT
                          M         RST?RP
                          M     if (PREV_ALT != 0)
                          M         bcf     WDTCON, ADSHR
MPASM 5.81                   PICKBYLIGHT.ASM   1-20-2021  23:46:00         PAGE 41


LOC  OBJECT CODE     LINE SOURCE TEXT
  VALUE

                          M PREV_ALT = 0
                          M     endif
                          M     if (PREV_BANK != 0)
                          M         movlb   0
                          M PREV_BANK = 0
                          M     endif
                          M 
                          M     ifdef USE_LINKER
                          M         call    SEROUT
                          M     else
                          M       if ((SEROUT) < 1)
                          M         call    SEROUT
                          M       else
                          M         if ((SEROUT) > $)
                          M         call    SEROUT
                          M         else
                          M           if ((SEROUT) < ($ - 3ffh))
                          M         call    SEROUT
                          M           else
00043E DE2B               M         rcall   SEROUT
                          M           endif
                          M         endif
                          M       endif
                          M     endif
                      01826         SEROUT?C        02Eh
000440 0E2E               M         movlw   02Eh
                          M         L?CALL  SEROUT
                          M         RST?RP
                          M     if (PREV_ALT != 0)
                          M         bcf     WDTCON, ADSHR
                          M PREV_ALT = 0
                          M     endif
                          M     if (PREV_BANK != 0)
                          M         movlb   0
                          M PREV_BANK = 0
                          M     endif
                          M 
                          M     ifdef USE_LINKER
                          M         call    SEROUT
                          M     else
                          M       if ((SEROUT) < 1)
                          M         call    SEROUT
                          M       else
                          M         if ((SEROUT) > $)
                          M         call    SEROUT
                          M         else
                          M           if ((SEROUT) < ($ - 3ffh))
                          M         call    SEROUT
                          M           else
000442 DE29               M         rcall   SEROUT
                          M           endif
                          M         endif
                          M       endif
MPASM 5.81                   PICKBYLIGHT.ASM   1-20-2021  23:46:00         PAGE 42


LOC  OBJECT CODE     LINE SOURCE TEXT
  VALUE

                          M     endif
                      01827         SEROUT?C        02Eh
000444 0E2E               M         movlw   02Eh
                          M         L?CALL  SEROUT
                          M         RST?RP
                          M     if (PREV_ALT != 0)
                          M         bcf     WDTCON, ADSHR
                          M PREV_ALT = 0
                          M     endif
                          M     if (PREV_BANK != 0)
                          M         movlb   0
                          M PREV_BANK = 0
                          M     endif
                          M 
                          M     ifdef USE_LINKER
                          M         call    SEROUT
                          M     else
                          M       if ((SEROUT) < 1)
                          M         call    SEROUT
                          M       else
                          M         if ((SEROUT) > $)
                          M         call    SEROUT
                          M         else
                          M           if ((SEROUT) < ($ - 3ffh))
                          M         call    SEROUT
                          M           else
000446 DE27               M         rcall   SEROUT
                          M           endif
                          M         endif
                          M       endif
                          M     endif
                      01828         SEROUT?C        02Eh
000448 0E2E               M         movlw   02Eh
                          M         L?CALL  SEROUT
                          M         RST?RP
                          M     if (PREV_ALT != 0)
                          M         bcf     WDTCON, ADSHR
                          M PREV_ALT = 0
                          M     endif
                          M     if (PREV_BANK != 0)
                          M         movlb   0
                          M PREV_BANK = 0
                          M     endif
                          M 
                          M     ifdef USE_LINKER
                          M         call    SEROUT
                          M     else
                          M       if ((SEROUT) < 1)
                          M         call    SEROUT
                          M       else
                          M         if ((SEROUT) > $)
                          M         call    SEROUT
                          M         else
MPASM 5.81                   PICKBYLIGHT.ASM   1-20-2021  23:46:00         PAGE 43


LOC  OBJECT CODE     LINE SOURCE TEXT
  VALUE

                          M           if ((SEROUT) < ($ - 3ffh))
                          M         call    SEROUT
                          M           else
00044A DE25               M         rcall   SEROUT
                          M           endif
                          M         endif
                          M       endif
                          M     endif
                      01829         SEROUT?C        02Eh
00044C 0E2E               M         movlw   02Eh
                          M         L?CALL  SEROUT
                          M         RST?RP
                          M     if (PREV_ALT != 0)
                          M         bcf     WDTCON, ADSHR
                          M PREV_ALT = 0
                          M     endif
                          M     if (PREV_BANK != 0)
                          M         movlb   0
                          M PREV_BANK = 0
                          M     endif
                          M 
                          M     ifdef USE_LINKER
                          M         call    SEROUT
                          M     else
                          M       if ((SEROUT) < 1)
                          M         call    SEROUT
                          M       else
                          M         if ((SEROUT) > $)
                          M         call    SEROUT
                          M         else
                          M           if ((SEROUT) < ($ - 3ffh))
                          M         call    SEROUT
                          M           else
00044E DE23               M         rcall   SEROUT
                          M           endif
                          M         endif
                          M       endif
                          M     endif
                      01830         SEROUT?C        02Eh
000450 0E2E               M         movlw   02Eh
                          M         L?CALL  SEROUT
                          M         RST?RP
                          M     if (PREV_ALT != 0)
                          M         bcf     WDTCON, ADSHR
                          M PREV_ALT = 0
                          M     endif
                          M     if (PREV_BANK != 0)
                          M         movlb   0
                          M PREV_BANK = 0
                          M     endif
                          M 
                          M     ifdef USE_LINKER
                          M         call    SEROUT
MPASM 5.81                   PICKBYLIGHT.ASM   1-20-2021  23:46:00         PAGE 44


LOC  OBJECT CODE     LINE SOURCE TEXT
  VALUE

                          M     else
                          M       if ((SEROUT) < 1)
                          M         call    SEROUT
                          M       else
                          M         if ((SEROUT) > $)
                          M         call    SEROUT
                          M         else
                          M           if ((SEROUT) < ($ - 3ffh))
                          M         call    SEROUT
                          M           else
000452 DE21               M         rcall   SEROUT
                          M           endif
                          M         endif
                          M       endif
                          M     endif
                      01831         SEROUT?C        02Eh
000454 0E2E               M         movlw   02Eh
                          M         L?CALL  SEROUT
                          M         RST?RP
                          M     if (PREV_ALT != 0)
                          M         bcf     WDTCON, ADSHR
                          M PREV_ALT = 0
                          M     endif
                          M     if (PREV_BANK != 0)
                          M         movlb   0
                          M PREV_BANK = 0
                          M     endif
                          M 
                          M     ifdef USE_LINKER
                          M         call    SEROUT
                          M     else
                          M       if ((SEROUT) < 1)
                          M         call    SEROUT
                          M       else
                          M         if ((SEROUT) > $)
                          M         call    SEROUT
                          M         else
                          M           if ((SEROUT) < ($ - 3ffh))
                          M         call    SEROUT
                          M           else
000456 DE1F               M         rcall   SEROUT
                          M           endif
                          M         endif
                          M       endif
                          M     endif
                      01832         SEROUT?C        02Eh
000458 0E2E               M         movlw   02Eh
                          M         L?CALL  SEROUT
                          M         RST?RP
                          M     if (PREV_ALT != 0)
                          M         bcf     WDTCON, ADSHR
                          M PREV_ALT = 0
                          M     endif
MPASM 5.81                   PICKBYLIGHT.ASM   1-20-2021  23:46:00         PAGE 45


LOC  OBJECT CODE     LINE SOURCE TEXT
  VALUE

                          M     if (PREV_BANK != 0)
                          M         movlb   0
                          M PREV_BANK = 0
                          M     endif
                          M 
                          M     ifdef USE_LINKER
                          M         call    SEROUT
                          M     else
                          M       if ((SEROUT) < 1)
                          M         call    SEROUT
                          M       else
                          M         if ((SEROUT) > $)
                          M         call    SEROUT
                          M         else
                          M           if ((SEROUT) < ($ - 3ffh))
                          M         call    SEROUT
                          M           else
00045A DE1D               M         rcall   SEROUT
                          M           endif
                          M         endif
                          M       endif
                          M     endif
                      01833         SEROUT?C        02Eh
00045C 0E2E               M         movlw   02Eh
                          M         L?CALL  SEROUT
                          M         RST?RP
                          M     if (PREV_ALT != 0)
                          M         bcf     WDTCON, ADSHR
                          M PREV_ALT = 0
                          M     endif
                          M     if (PREV_BANK != 0)
                          M         movlb   0
                          M PREV_BANK = 0
                          M     endif
                          M 
                          M     ifdef USE_LINKER
                          M         call    SEROUT
                          M     else
                          M       if ((SEROUT) < 1)
                          M         call    SEROUT
                          M       else
                          M         if ((SEROUT) > $)
                          M         call    SEROUT
                          M         else
                          M           if ((SEROUT) < ($ - 3ffh))
                          M         call    SEROUT
                          M           else
00045E DE1B               M         rcall   SEROUT
                          M           endif
                          M         endif
                          M       endif
                          M     endif
                      01834         SEROUT?C        02Eh
MPASM 5.81                   PICKBYLIGHT.ASM   1-20-2021  23:46:00         PAGE 46


LOC  OBJECT CODE     LINE SOURCE TEXT
  VALUE

000460 0E2E               M         movlw   02Eh
                          M         L?CALL  SEROUT
                          M         RST?RP
                          M     if (PREV_ALT != 0)
                          M         bcf     WDTCON, ADSHR
                          M PREV_ALT = 0
                          M     endif
                          M     if (PREV_BANK != 0)
                          M         movlb   0
                          M PREV_BANK = 0
                          M     endif
                          M 
                          M     ifdef USE_LINKER
                          M         call    SEROUT
                          M     else
                          M       if ((SEROUT) < 1)
                          M         call    SEROUT
                          M       else
                          M         if ((SEROUT) > $)
                          M         call    SEROUT
                          M         else
                          M           if ((SEROUT) < ($ - 3ffh))
                          M         call    SEROUT
                          M           else
000462 DE19               M         rcall   SEROUT
                          M           endif
                          M         endif
                          M       endif
                          M     endif
                      01835         SEROUT?C        02Eh
000464 0E2E               M         movlw   02Eh
                          M         L?CALL  SEROUT
                          M         RST?RP
                          M     if (PREV_ALT != 0)
                          M         bcf     WDTCON, ADSHR
                          M PREV_ALT = 0
                          M     endif
                          M     if (PREV_BANK != 0)
                          M         movlb   0
                          M PREV_BANK = 0
                          M     endif
                          M 
                          M     ifdef USE_LINKER
                          M         call    SEROUT
                          M     else
                          M       if ((SEROUT) < 1)
                          M         call    SEROUT
                          M       else
                          M         if ((SEROUT) > $)
                          M         call    SEROUT
                          M         else
                          M           if ((SEROUT) < ($ - 3ffh))
                          M         call    SEROUT
MPASM 5.81                   PICKBYLIGHT.ASM   1-20-2021  23:46:00         PAGE 47


LOC  OBJECT CODE     LINE SOURCE TEXT
  VALUE

                          M           else
000466 DE17               M         rcall   SEROUT
                          M           endif
                          M         endif
                          M       endif
                          M     endif
                      01836         SEROUT?C        02Eh
000468 0E2E               M         movlw   02Eh
                          M         L?CALL  SEROUT
                          M         RST?RP
                          M     if (PREV_ALT != 0)
                          M         bcf     WDTCON, ADSHR
                          M PREV_ALT = 0
                          M     endif
                          M     if (PREV_BANK != 0)
                          M         movlb   0
                          M PREV_BANK = 0
                          M     endif
                          M 
                          M     ifdef USE_LINKER
                          M         call    SEROUT
                          M     else
                          M       if ((SEROUT) < 1)
                          M         call    SEROUT
                          M       else
                          M         if ((SEROUT) > $)
                          M         call    SEROUT
                          M         else
                          M           if ((SEROUT) < ($ - 3ffh))
                          M         call    SEROUT
                          M           else
00046A DE15               M         rcall   SEROUT
                          M           endif
                          M         endif
                          M       endif
                          M     endif
                      01837         SEROUT?C        02Eh
00046C 0E2E               M         movlw   02Eh
                          M         L?CALL  SEROUT
                          M         RST?RP
                          M     if (PREV_ALT != 0)
                          M         bcf     WDTCON, ADSHR
                          M PREV_ALT = 0
                          M     endif
                          M     if (PREV_BANK != 0)
                          M         movlb   0
                          M PREV_BANK = 0
                          M     endif
                          M 
                          M     ifdef USE_LINKER
                          M         call    SEROUT
                          M     else
                          M       if ((SEROUT) < 1)
MPASM 5.81                   PICKBYLIGHT.ASM   1-20-2021  23:46:00         PAGE 48


LOC  OBJECT CODE     LINE SOURCE TEXT
  VALUE

                          M         call    SEROUT
                          M       else
                          M         if ((SEROUT) > $)
                          M         call    SEROUT
                          M         else
                          M           if ((SEROUT) < ($ - 3ffh))
                          M         call    SEROUT
                          M           else
00046E DE13               M         rcall   SEROUT
                          M           endif
                          M         endif
                          M       endif
                          M     endif
                      01838         SEROUT?C        02Eh
000470 0E2E               M         movlw   02Eh
                          M         L?CALL  SEROUT
                          M         RST?RP
                          M     if (PREV_ALT != 0)
                          M         bcf     WDTCON, ADSHR
                          M PREV_ALT = 0
                          M     endif
                          M     if (PREV_BANK != 0)
                          M         movlb   0
                          M PREV_BANK = 0
                          M     endif
                          M 
                          M     ifdef USE_LINKER
                          M         call    SEROUT
                          M     else
                          M       if ((SEROUT) < 1)
                          M         call    SEROUT
                          M       else
                          M         if ((SEROUT) > $)
                          M         call    SEROUT
                          M         else
                          M           if ((SEROUT) < ($ - 3ffh))
                          M         call    SEROUT
                          M           else
000472 DE11               M         rcall   SEROUT
                          M           endif
                          M         endif
                          M       endif
                          M     endif
                      01839         SEROUT?C        02Eh
000474 0E2E               M         movlw   02Eh
                          M         L?CALL  SEROUT
                          M         RST?RP
                          M     if (PREV_ALT != 0)
                          M         bcf     WDTCON, ADSHR
                          M PREV_ALT = 0
                          M     endif
                          M     if (PREV_BANK != 0)
                          M         movlb   0
MPASM 5.81                   PICKBYLIGHT.ASM   1-20-2021  23:46:00         PAGE 49


LOC  OBJECT CODE     LINE SOURCE TEXT
  VALUE

                          M PREV_BANK = 0
                          M     endif
                          M 
                          M     ifdef USE_LINKER
                          M         call    SEROUT
                          M     else
                          M       if ((SEROUT) < 1)
                          M         call    SEROUT
                          M       else
                          M         if ((SEROUT) > $)
                          M         call    SEROUT
                          M         else
                          M           if ((SEROUT) < ($ - 3ffh))
                          M         call    SEROUT
                          M           else
000476 DE0F               M         rcall   SEROUT
                          M           endif
                          M         endif
                          M       endif
                          M     endif
                      01840         SEROUT?C        02Eh
000478 0E2E               M         movlw   02Eh
                          M         L?CALL  SEROUT
                          M         RST?RP
                          M     if (PREV_ALT != 0)
                          M         bcf     WDTCON, ADSHR
                          M PREV_ALT = 0
                          M     endif
                          M     if (PREV_BANK != 0)
                          M         movlb   0
                          M PREV_BANK = 0
                          M     endif
                          M 
                          M     ifdef USE_LINKER
                          M         call    SEROUT
                          M     else
                          M       if ((SEROUT) < 1)
                          M         call    SEROUT
                          M       else
                          M         if ((SEROUT) > $)
                          M         call    SEROUT
                          M         else
                          M           if ((SEROUT) < ($ - 3ffh))
                          M         call    SEROUT
                          M           else
00047A DE0D               M         rcall   SEROUT
                          M           endif
                          M         endif
                          M       endif
                          M     endif
                      01841         SEROUT?C        02Eh
00047C 0E2E               M         movlw   02Eh
                          M         L?CALL  SEROUT
MPASM 5.81                   PICKBYLIGHT.ASM   1-20-2021  23:46:00         PAGE 50


LOC  OBJECT CODE     LINE SOURCE TEXT
  VALUE

                          M         RST?RP
                          M     if (PREV_ALT != 0)
                          M         bcf     WDTCON, ADSHR
                          M PREV_ALT = 0
                          M     endif
                          M     if (PREV_BANK != 0)
                          M         movlb   0
                          M PREV_BANK = 0
                          M     endif
                          M 
                          M     ifdef USE_LINKER
                          M         call    SEROUT
                          M     else
                          M       if ((SEROUT) < 1)
                          M         call    SEROUT
                          M       else
                          M         if ((SEROUT) > $)
                          M         call    SEROUT
                          M         else
                          M           if ((SEROUT) < ($ - 3ffh))
                          M         call    SEROUT
                          M           else
00047E DE0B               M         rcall   SEROUT
                          M           endif
                          M         endif
                          M       endif
                          M     endif
                      01842         SEROUT?C        02Eh
000480 0E2E               M         movlw   02Eh
                          M         L?CALL  SEROUT
                          M         RST?RP
                          M     if (PREV_ALT != 0)
                          M         bcf     WDTCON, ADSHR
                          M PREV_ALT = 0
                          M     endif
                          M     if (PREV_BANK != 0)
                          M         movlb   0
                          M PREV_BANK = 0
                          M     endif
                          M 
                          M     ifdef USE_LINKER
                          M         call    SEROUT
                          M     else
                          M       if ((SEROUT) < 1)
                          M         call    SEROUT
                          M       else
                          M         if ((SEROUT) > $)
                          M         call    SEROUT
                          M         else
                          M           if ((SEROUT) < ($ - 3ffh))
                          M         call    SEROUT
                          M           else
000482 DE09               M         rcall   SEROUT
MPASM 5.81                   PICKBYLIGHT.ASM   1-20-2021  23:46:00         PAGE 51


LOC  OBJECT CODE     LINE SOURCE TEXT
  VALUE

                          M           endif
                          M         endif
                          M       endif
                          M     endif
                      01843         SEROUT?C        02Eh
000484 0E2E               M         movlw   02Eh
                          M         L?CALL  SEROUT
                          M         RST?RP
                          M     if (PREV_ALT != 0)
                          M         bcf     WDTCON, ADSHR
                          M PREV_ALT = 0
                          M     endif
                          M     if (PREV_BANK != 0)
                          M         movlb   0
                          M PREV_BANK = 0
                          M     endif
                          M 
                          M     ifdef USE_LINKER
                          M         call    SEROUT
                          M     else
                          M       if ((SEROUT) < 1)
                          M         call    SEROUT
                          M       else
                          M         if ((SEROUT) > $)
                          M         call    SEROUT
                          M         else
                          M           if ((SEROUT) < ($ - 3ffh))
                          M         call    SEROUT
                          M           else
000486 DE07               M         rcall   SEROUT
                          M           endif
                          M         endif
                          M       endif
                          M     endif
                      01844         SEROUT?C        02Eh
000488 0E2E               M         movlw   02Eh
                          M         L?CALL  SEROUT
                          M         RST?RP
                          M     if (PREV_ALT != 0)
                          M         bcf     WDTCON, ADSHR
                          M PREV_ALT = 0
                          M     endif
                          M     if (PREV_BANK != 0)
                          M         movlb   0
                          M PREV_BANK = 0
                          M     endif
                          M 
                          M     ifdef USE_LINKER
                          M         call    SEROUT
                          M     else
                          M       if ((SEROUT) < 1)
                          M         call    SEROUT
                          M       else
MPASM 5.81                   PICKBYLIGHT.ASM   1-20-2021  23:46:00         PAGE 52


LOC  OBJECT CODE     LINE SOURCE TEXT
  VALUE

                          M         if ((SEROUT) > $)
                          M         call    SEROUT
                          M         else
                          M           if ((SEROUT) < ($ - 3ffh))
                          M         call    SEROUT
                          M           else
00048A DE05               M         rcall   SEROUT
                          M           endif
                          M         endif
                          M       endif
                          M     endif
                      01845         SEROUT?C        02Eh
00048C 0E2E               M         movlw   02Eh
                          M         L?CALL  SEROUT
                          M         RST?RP
                          M     if (PREV_ALT != 0)
                          M         bcf     WDTCON, ADSHR
                          M PREV_ALT = 0
                          M     endif
                          M     if (PREV_BANK != 0)
                          M         movlb   0
                          M PREV_BANK = 0
                          M     endif
                          M 
                          M     ifdef USE_LINKER
                          M         call    SEROUT
                          M     else
                          M       if ((SEROUT) < 1)
                          M         call    SEROUT
                          M       else
                          M         if ((SEROUT) > $)
                          M         call    SEROUT
                          M         else
                          M           if ((SEROUT) < ($ - 3ffh))
                          M         call    SEROUT
                          M           else
00048E DE03               M         rcall   SEROUT
                          M           endif
                          M         endif
                          M       endif
                          M     endif
                      01846         SEROUT?C        02Eh
000490 0E2E               M         movlw   02Eh
                          M         L?CALL  SEROUT
                          M         RST?RP
                          M     if (PREV_ALT != 0)
                          M         bcf     WDTCON, ADSHR
                          M PREV_ALT = 0
                          M     endif
                          M     if (PREV_BANK != 0)
                          M         movlb   0
                          M PREV_BANK = 0
                          M     endif
MPASM 5.81                   PICKBYLIGHT.ASM   1-20-2021  23:46:00         PAGE 53


LOC  OBJECT CODE     LINE SOURCE TEXT
  VALUE

                          M 
                          M     ifdef USE_LINKER
                          M         call    SEROUT
                          M     else
                          M       if ((SEROUT) < 1)
                          M         call    SEROUT
                          M       else
                          M         if ((SEROUT) > $)
                          M         call    SEROUT
                          M         else
                          M           if ((SEROUT) < ($ - 3ffh))
                          M         call    SEROUT
                          M           else
000492 DE01               M         rcall   SEROUT
                          M           endif
                          M         endif
                          M       endif
                          M     endif
                      01847         SEROUT?C        02Eh
000494 0E2E               M         movlw   02Eh
                          M         L?CALL  SEROUT
                          M         RST?RP
                          M     if (PREV_ALT != 0)
                          M         bcf     WDTCON, ADSHR
                          M PREV_ALT = 0
                          M     endif
                          M     if (PREV_BANK != 0)
                          M         movlb   0
                          M PREV_BANK = 0
                          M     endif
                          M 
                          M     ifdef USE_LINKER
                          M         call    SEROUT
                          M     else
                          M       if ((SEROUT) < 1)
                          M         call    SEROUT
                          M       else
                          M         if ((SEROUT) > $)
                          M         call    SEROUT
                          M         else
                          M           if ((SEROUT) < ($ - 3ffh))
000496 EC4B F000          M         call    SEROUT
                          M           else
                          M         rcall   SEROUT
                          M           endif
                          M         endif
                          M       endif
                          M     endif
                      01848         SEROUT?C        02Eh
00049A 0E2E               M         movlw   02Eh
                          M         L?CALL  SEROUT
                          M         RST?RP
                          M     if (PREV_ALT != 0)
MPASM 5.81                   PICKBYLIGHT.ASM   1-20-2021  23:46:00         PAGE 54


LOC  OBJECT CODE     LINE SOURCE TEXT
  VALUE

                          M         bcf     WDTCON, ADSHR
                          M PREV_ALT = 0
                          M     endif
                          M     if (PREV_BANK != 0)
                          M         movlb   0
                          M PREV_BANK = 0
                          M     endif
                          M 
                          M     ifdef USE_LINKER
                          M         call    SEROUT
                          M     else
                          M       if ((SEROUT) < 1)
                          M         call    SEROUT
                          M       else
                          M         if ((SEROUT) > $)
                          M         call    SEROUT
                          M         else
                          M           if ((SEROUT) < ($ - 3ffh))
00049C EC4B F000          M         call    SEROUT
                          M           else
                          M         rcall   SEROUT
                          M           endif
                          M         endif
                          M       endif
                          M     endif
                      01849         SEROUT?C        02Eh
0004A0 0E2E               M         movlw   02Eh
                          M         L?CALL  SEROUT
                          M         RST?RP
                          M     if (PREV_ALT != 0)
                          M         bcf     WDTCON, ADSHR
                          M PREV_ALT = 0
                          M     endif
                          M     if (PREV_BANK != 0)
                          M         movlb   0
                          M PREV_BANK = 0
                          M     endif
                          M 
                          M     ifdef USE_LINKER
                          M         call    SEROUT
                          M     else
                          M       if ((SEROUT) < 1)
                          M         call    SEROUT
                          M       else
                          M         if ((SEROUT) > $)
                          M         call    SEROUT
                          M         else
                          M           if ((SEROUT) < ($ - 3ffh))
0004A2 EC4B F000          M         call    SEROUT
                          M           else
                          M         rcall   SEROUT
                          M           endif
                          M         endif
MPASM 5.81                   PICKBYLIGHT.ASM   1-20-2021  23:46:00         PAGE 55


LOC  OBJECT CODE     LINE SOURCE TEXT
  VALUE

                          M       endif
                          M     endif
                      01850         SEROUT?C        02Eh
0004A6 0E2E               M         movlw   02Eh
                          M         L?CALL  SEROUT
                          M         RST?RP
                          M     if (PREV_ALT != 0)
                          M         bcf     WDTCON, ADSHR
                          M PREV_ALT = 0
                          M     endif
                          M     if (PREV_BANK != 0)
                          M         movlb   0
                          M PREV_BANK = 0
                          M     endif
                          M 
                          M     ifdef USE_LINKER
                          M         call    SEROUT
                          M     else
                          M       if ((SEROUT) < 1)
                          M         call    SEROUT
                          M       else
                          M         if ((SEROUT) > $)
                          M         call    SEROUT
                          M         else
                          M           if ((SEROUT) < ($ - 3ffh))
0004A8 EC4B F000          M         call    SEROUT
                          M           else
                          M         rcall   SEROUT
                          M           endif
                          M         endif
                          M       endif
                          M     endif
                      01851         SEROUT?C        02Eh
0004AC 0E2E               M         movlw   02Eh
                          M         L?CALL  SEROUT
                          M         RST?RP
                          M     if (PREV_ALT != 0)
                          M         bcf     WDTCON, ADSHR
                          M PREV_ALT = 0
                          M     endif
                          M     if (PREV_BANK != 0)
                          M         movlb   0
                          M PREV_BANK = 0
                          M     endif
                          M 
                          M     ifdef USE_LINKER
                          M         call    SEROUT
                          M     else
                          M       if ((SEROUT) < 1)
                          M         call    SEROUT
                          M       else
                          M         if ((SEROUT) > $)
                          M         call    SEROUT
MPASM 5.81                   PICKBYLIGHT.ASM   1-20-2021  23:46:00         PAGE 56


LOC  OBJECT CODE     LINE SOURCE TEXT
  VALUE

                          M         else
                          M           if ((SEROUT) < ($ - 3ffh))
0004AE EC4B F000          M         call    SEROUT
                          M           else
                          M         rcall   SEROUT
                          M           endif
                          M         endif
                          M       endif
                          M     endif
                      01852         SEROUT?C        02Eh
0004B2 0E2E               M         movlw   02Eh
                          M         L?CALL  SEROUT
                          M         RST?RP
                          M     if (PREV_ALT != 0)
                          M         bcf     WDTCON, ADSHR
                          M PREV_ALT = 0
                          M     endif
                          M     if (PREV_BANK != 0)
                          M         movlb   0
                          M PREV_BANK = 0
                          M     endif
                          M 
                          M     ifdef USE_LINKER
                          M         call    SEROUT
                          M     else
                          M       if ((SEROUT) < 1)
                          M         call    SEROUT
                          M       else
                          M         if ((SEROUT) > $)
                          M         call    SEROUT
                          M         else
                          M           if ((SEROUT) < ($ - 3ffh))
0004B4 EC4B F000          M         call    SEROUT
                          M           else
                          M         rcall   SEROUT
                          M           endif
                          M         endif
                          M       endif
                          M     endif
                      01853         SEROUT?C        02Eh
0004B8 0E2E               M         movlw   02Eh
                          M         L?CALL  SEROUT
                          M         RST?RP
                          M     if (PREV_ALT != 0)
                          M         bcf     WDTCON, ADSHR
                          M PREV_ALT = 0
                          M     endif
                          M     if (PREV_BANK != 0)
                          M         movlb   0
                          M PREV_BANK = 0
                          M     endif
                          M 
                          M     ifdef USE_LINKER
MPASM 5.81                   PICKBYLIGHT.ASM   1-20-2021  23:46:00         PAGE 57


LOC  OBJECT CODE     LINE SOURCE TEXT
  VALUE

                          M         call    SEROUT
                          M     else
                          M       if ((SEROUT) < 1)
                          M         call    SEROUT
                          M       else
                          M         if ((SEROUT) > $)
                          M         call    SEROUT
                          M         else
                          M           if ((SEROUT) < ($ - 3ffh))
0004BA EC4B F000          M         call    SEROUT
                          M           else
                          M         rcall   SEROUT
                          M           endif
                          M         endif
                          M       endif
                          M     endif
                      01854         SEROUT?C        02Eh
0004BE 0E2E               M         movlw   02Eh
                          M         L?CALL  SEROUT
                          M         RST?RP
                          M     if (PREV_ALT != 0)
                          M         bcf     WDTCON, ADSHR
                          M PREV_ALT = 0
                          M     endif
                          M     if (PREV_BANK != 0)
                          M         movlb   0
                          M PREV_BANK = 0
                          M     endif
                          M 
                          M     ifdef USE_LINKER
                          M         call    SEROUT
                          M     else
                          M       if ((SEROUT) < 1)
                          M         call    SEROUT
                          M       else
                          M         if ((SEROUT) > $)
                          M         call    SEROUT
                          M         else
                          M           if ((SEROUT) < ($ - 3ffh))
0004C0 EC4B F000          M         call    SEROUT
                          M           else
                          M         rcall   SEROUT
                          M           endif
                          M         endif
                          M       endif
                          M     endif
                      01855         SEROUT?C        02Eh
0004C4 0E2E               M         movlw   02Eh
                          M         L?CALL  SEROUT
                          M         RST?RP
                          M     if (PREV_ALT != 0)
                          M         bcf     WDTCON, ADSHR
                          M PREV_ALT = 0
MPASM 5.81                   PICKBYLIGHT.ASM   1-20-2021  23:46:00         PAGE 58


LOC  OBJECT CODE     LINE SOURCE TEXT
  VALUE

                          M     endif
                          M     if (PREV_BANK != 0)
                          M         movlb   0
                          M PREV_BANK = 0
                          M     endif
                          M 
                          M     ifdef USE_LINKER
                          M         call    SEROUT
                          M     else
                          M       if ((SEROUT) < 1)
                          M         call    SEROUT
                          M       else
                          M         if ((SEROUT) > $)
                          M         call    SEROUT
                          M         else
                          M           if ((SEROUT) < ($ - 3ffh))
0004C6 EC4B F000          M         call    SEROUT
                          M           else
                          M         rcall   SEROUT
                          M           endif
                          M         endif
                          M       endif
                          M     endif
                      01856         SEROUT?C        02Eh
0004CA 0E2E               M         movlw   02Eh
                          M         L?CALL  SEROUT
                          M         RST?RP
                          M     if (PREV_ALT != 0)
                          M         bcf     WDTCON, ADSHR
                          M PREV_ALT = 0
                          M     endif
                          M     if (PREV_BANK != 0)
                          M         movlb   0
                          M PREV_BANK = 0
                          M     endif
                          M 
                          M     ifdef USE_LINKER
                          M         call    SEROUT
                          M     else
                          M       if ((SEROUT) < 1)
                          M         call    SEROUT
                          M       else
                          M         if ((SEROUT) > $)
                          M         call    SEROUT
                          M         else
                          M           if ((SEROUT) < ($ - 3ffh))
0004CC EC4B F000          M         call    SEROUT
                          M           else
                          M         rcall   SEROUT
                          M           endif
                          M         endif
                          M       endif
                          M     endif
MPASM 5.81                   PICKBYLIGHT.ASM   1-20-2021  23:46:00         PAGE 59


LOC  OBJECT CODE     LINE SOURCE TEXT
  VALUE

                      01857         SEROUT?C        02Eh
0004D0 0E2E               M         movlw   02Eh
                          M         L?CALL  SEROUT
                          M         RST?RP
                          M     if (PREV_ALT != 0)
                          M         bcf     WDTCON, ADSHR
                          M PREV_ALT = 0
                          M     endif
                          M     if (PREV_BANK != 0)
                          M         movlb   0
                          M PREV_BANK = 0
                          M     endif
                          M 
                          M     ifdef USE_LINKER
                          M         call    SEROUT
                          M     else
                          M       if ((SEROUT) < 1)
                          M         call    SEROUT
                          M       else
                          M         if ((SEROUT) > $)
                          M         call    SEROUT
                          M         else
                          M           if ((SEROUT) < ($ - 3ffh))
0004D2 EC4B F000          M         call    SEROUT
                          M           else
                          M         rcall   SEROUT
                          M           endif
                          M         endif
                          M       endif
                          M     endif
                      01858         SEROUT?C        02Eh
0004D6 0E2E               M         movlw   02Eh
                          M         L?CALL  SEROUT
                          M         RST?RP
                          M     if (PREV_ALT != 0)
                          M         bcf     WDTCON, ADSHR
                          M PREV_ALT = 0
                          M     endif
                          M     if (PREV_BANK != 0)
                          M         movlb   0
                          M PREV_BANK = 0
                          M     endif
                          M 
                          M     ifdef USE_LINKER
                          M         call    SEROUT
                          M     else
                          M       if ((SEROUT) < 1)
                          M         call    SEROUT
                          M       else
                          M         if ((SEROUT) > $)
                          M         call    SEROUT
                          M         else
                          M           if ((SEROUT) < ($ - 3ffh))
MPASM 5.81                   PICKBYLIGHT.ASM   1-20-2021  23:46:00         PAGE 60


LOC  OBJECT CODE     LINE SOURCE TEXT
  VALUE

0004D8 EC4B F000          M         call    SEROUT
                          M           else
                          M         rcall   SEROUT
                          M           endif
                          M         endif
                          M       endif
                          M     endif
                      01859         SEROUT?C        02Eh
0004DC 0E2E               M         movlw   02Eh
                          M         L?CALL  SEROUT
                          M         RST?RP
                          M     if (PREV_ALT != 0)
                          M         bcf     WDTCON, ADSHR
                          M PREV_ALT = 0
                          M     endif
                          M     if (PREV_BANK != 0)
                          M         movlb   0
                          M PREV_BANK = 0
                          M     endif
                          M 
                          M     ifdef USE_LINKER
                          M         call    SEROUT
                          M     else
                          M       if ((SEROUT) < 1)
                          M         call    SEROUT
                          M       else
                          M         if ((SEROUT) > $)
                          M         call    SEROUT
                          M         else
                          M           if ((SEROUT) < ($ - 3ffh))
0004DE EC4B F000          M         call    SEROUT
                          M           else
                          M         rcall   SEROUT
                          M           endif
                          M         endif
                          M       endif
                          M     endif
                      01860         SEROUT?C        02Eh
0004E2 0E2E               M         movlw   02Eh
                          M         L?CALL  SEROUT
                          M         RST?RP
                          M     if (PREV_ALT != 0)
                          M         bcf     WDTCON, ADSHR
                          M PREV_ALT = 0
                          M     endif
                          M     if (PREV_BANK != 0)
                          M         movlb   0
                          M PREV_BANK = 0
                          M     endif
                          M 
                          M     ifdef USE_LINKER
                          M         call    SEROUT
                          M     else
MPASM 5.81                   PICKBYLIGHT.ASM   1-20-2021  23:46:00         PAGE 61


LOC  OBJECT CODE     LINE SOURCE TEXT
  VALUE

                          M       if ((SEROUT) < 1)
                          M         call    SEROUT
                          M       else
                          M         if ((SEROUT) > $)
                          M         call    SEROUT
                          M         else
                          M           if ((SEROUT) < ($ - 3ffh))
0004E4 EC4B F000          M         call    SEROUT
                          M           else
                          M         rcall   SEROUT
                          M           endif
                          M         endif
                          M       endif
                          M     endif
                      01861         SEROUT?C        02Eh
0004E8 0E2E               M         movlw   02Eh
                          M         L?CALL  SEROUT
                          M         RST?RP
                          M     if (PREV_ALT != 0)
                          M         bcf     WDTCON, ADSHR
                          M PREV_ALT = 0
                          M     endif
                          M     if (PREV_BANK != 0)
                          M         movlb   0
                          M PREV_BANK = 0
                          M     endif
                          M 
                          M     ifdef USE_LINKER
                          M         call    SEROUT
                          M     else
                          M       if ((SEROUT) < 1)
                          M         call    SEROUT
                          M       else
                          M         if ((SEROUT) > $)
                          M         call    SEROUT
                          M         else
                          M           if ((SEROUT) < ($ - 3ffh))
0004EA EC4B F000          M         call    SEROUT
                          M           else
                          M         rcall   SEROUT
                          M           endif
                          M         endif
                          M       endif
                          M     endif
                      01862         SEROUT?C        02Eh
0004EE 0E2E               M         movlw   02Eh
                          M         L?CALL  SEROUT
                          M         RST?RP
                          M     if (PREV_ALT != 0)
                          M         bcf     WDTCON, ADSHR
                          M PREV_ALT = 0
                          M     endif
                          M     if (PREV_BANK != 0)
MPASM 5.81                   PICKBYLIGHT.ASM   1-20-2021  23:46:00         PAGE 62


LOC  OBJECT CODE     LINE SOURCE TEXT
  VALUE

                          M         movlb   0
                          M PREV_BANK = 0
                          M     endif
                          M 
                          M     ifdef USE_LINKER
                          M         call    SEROUT
                          M     else
                          M       if ((SEROUT) < 1)
                          M         call    SEROUT
                          M       else
                          M         if ((SEROUT) > $)
                          M         call    SEROUT
                          M         else
                          M           if ((SEROUT) < ($ - 3ffh))
0004F0 EC4B F000          M         call    SEROUT
                          M           else
                          M         rcall   SEROUT
                          M           endif
                          M         endif
                          M       endif
                          M     endif
                      01863         SEROUT?C        02Eh
0004F4 0E2E               M         movlw   02Eh
                          M         L?CALL  SEROUT
                          M         RST?RP
                          M     if (PREV_ALT != 0)
                          M         bcf     WDTCON, ADSHR
                          M PREV_ALT = 0
                          M     endif
                          M     if (PREV_BANK != 0)
                          M         movlb   0
                          M PREV_BANK = 0
                          M     endif
                          M 
                          M     ifdef USE_LINKER
                          M         call    SEROUT
                          M     else
                          M       if ((SEROUT) < 1)
                          M         call    SEROUT
                          M       else
                          M         if ((SEROUT) > $)
                          M         call    SEROUT
                          M         else
                          M           if ((SEROUT) < ($ - 3ffh))
0004F6 EC4B F000          M         call    SEROUT
                          M           else
                          M         rcall   SEROUT
                          M           endif
                          M         endif
                          M       endif
                          M     endif
                      01864         SEROUT?C        02Eh
0004FA 0E2E               M         movlw   02Eh
MPASM 5.81                   PICKBYLIGHT.ASM   1-20-2021  23:46:00         PAGE 63


LOC  OBJECT CODE     LINE SOURCE TEXT
  VALUE

                          M         L?CALL  SEROUT
                          M         RST?RP
                          M     if (PREV_ALT != 0)
                          M         bcf     WDTCON, ADSHR
                          M PREV_ALT = 0
                          M     endif
                          M     if (PREV_BANK != 0)
                          M         movlb   0
                          M PREV_BANK = 0
                          M     endif
                          M 
                          M     ifdef USE_LINKER
                          M         call    SEROUT
                          M     else
                          M       if ((SEROUT) < 1)
                          M         call    SEROUT
                          M       else
                          M         if ((SEROUT) > $)
                          M         call    SEROUT
                          M         else
                          M           if ((SEROUT) < ($ - 3ffh))
0004FC EC4B F000          M         call    SEROUT
                          M           else
                          M         rcall   SEROUT
                          M           endif
                          M         endif
                          M       endif
                          M     endif
                      01865         SEROUT?C        02Eh
000500 0E2E               M         movlw   02Eh
                          M         L?CALL  SEROUT
                          M         RST?RP
                          M     if (PREV_ALT != 0)
                          M         bcf     WDTCON, ADSHR
                          M PREV_ALT = 0
                          M     endif
                          M     if (PREV_BANK != 0)
                          M         movlb   0
                          M PREV_BANK = 0
                          M     endif
                          M 
                          M     ifdef USE_LINKER
                          M         call    SEROUT
                          M     else
                          M       if ((SEROUT) < 1)
                          M         call    SEROUT
                          M       else
                          M         if ((SEROUT) > $)
                          M         call    SEROUT
                          M         else
                          M           if ((SEROUT) < ($ - 3ffh))
000502 EC4B F000          M         call    SEROUT
                          M           else
MPASM 5.81                   PICKBYLIGHT.ASM   1-20-2021  23:46:00         PAGE 64


LOC  OBJECT CODE     LINE SOURCE TEXT
  VALUE

                          M         rcall   SEROUT
                          M           endif
                          M         endif
                          M       endif
                          M     endif
                      01866         SEROUT?C        02Eh
000506 0E2E               M         movlw   02Eh
                          M         L?CALL  SEROUT
                          M         RST?RP
                          M     if (PREV_ALT != 0)
                          M         bcf     WDTCON, ADSHR
                          M PREV_ALT = 0
                          M     endif
                          M     if (PREV_BANK != 0)
                          M         movlb   0
                          M PREV_BANK = 0
                          M     endif
                          M 
                          M     ifdef USE_LINKER
                          M         call    SEROUT
                          M     else
                          M       if ((SEROUT) < 1)
                          M         call    SEROUT
                          M       else
                          M         if ((SEROUT) > $)
                          M         call    SEROUT
                          M         else
                          M           if ((SEROUT) < ($ - 3ffh))
000508 EC4B F000          M         call    SEROUT
                          M           else
                          M         rcall   SEROUT
                          M           endif
                          M         endif
                          M       endif
                          M     endif
                      01867         SEROUT?C        02Eh
00050C 0E2E               M         movlw   02Eh
                          M         L?CALL  SEROUT
                          M         RST?RP
                          M     if (PREV_ALT != 0)
                          M         bcf     WDTCON, ADSHR
                          M PREV_ALT = 0
                          M     endif
                          M     if (PREV_BANK != 0)
                          M         movlb   0
                          M PREV_BANK = 0
                          M     endif
                          M 
                          M     ifdef USE_LINKER
                          M         call    SEROUT
                          M     else
                          M       if ((SEROUT) < 1)
                          M         call    SEROUT
MPASM 5.81                   PICKBYLIGHT.ASM   1-20-2021  23:46:00         PAGE 65


LOC  OBJECT CODE     LINE SOURCE TEXT
  VALUE

                          M       else
                          M         if ((SEROUT) > $)
                          M         call    SEROUT
                          M         else
                          M           if ((SEROUT) < ($ - 3ffh))
00050E EC4B F000          M         call    SEROUT
                          M           else
                          M         rcall   SEROUT
                          M           endif
                          M         endif
                          M       endif
                          M     endif
                      01868         SEROUT?C        02Eh
000512 0E2E               M         movlw   02Eh
                          M         L?CALL  SEROUT
                          M         RST?RP
                          M     if (PREV_ALT != 0)
                          M         bcf     WDTCON, ADSHR
                          M PREV_ALT = 0
                          M     endif
                          M     if (PREV_BANK != 0)
                          M         movlb   0
                          M PREV_BANK = 0
                          M     endif
                          M 
                          M     ifdef USE_LINKER
                          M         call    SEROUT
                          M     else
                          M       if ((SEROUT) < 1)
                          M         call    SEROUT
                          M       else
                          M         if ((SEROUT) > $)
                          M         call    SEROUT
                          M         else
                          M           if ((SEROUT) < ($ - 3ffh))
000514 EC4B F000          M         call    SEROUT
                          M           else
                          M         rcall   SEROUT
                          M           endif
                          M         endif
                          M       endif
                          M     endif
                      01869         SEROUT?C        02Eh
000518 0E2E               M         movlw   02Eh
                          M         L?CALL  SEROUT
                          M         RST?RP
                          M     if (PREV_ALT != 0)
                          M         bcf     WDTCON, ADSHR
                          M PREV_ALT = 0
                          M     endif
                          M     if (PREV_BANK != 0)
                          M         movlb   0
                          M PREV_BANK = 0
MPASM 5.81                   PICKBYLIGHT.ASM   1-20-2021  23:46:00         PAGE 66


LOC  OBJECT CODE     LINE SOURCE TEXT
  VALUE

                          M     endif
                          M 
                          M     ifdef USE_LINKER
                          M         call    SEROUT
                          M     else
                          M       if ((SEROUT) < 1)
                          M         call    SEROUT
                          M       else
                          M         if ((SEROUT) > $)
                          M         call    SEROUT
                          M         else
                          M           if ((SEROUT) < ($ - 3ffh))
00051A EC4B F000          M         call    SEROUT
                          M           else
                          M         rcall   SEROUT
                          M           endif
                          M         endif
                          M       endif
                          M     endif
                      01870         SEROUT?C        02Eh
00051E 0E2E               M         movlw   02Eh
                          M         L?CALL  SEROUT
                          M         RST?RP
                          M     if (PREV_ALT != 0)
                          M         bcf     WDTCON, ADSHR
                          M PREV_ALT = 0
                          M     endif
                          M     if (PREV_BANK != 0)
                          M         movlb   0
                          M PREV_BANK = 0
                          M     endif
                          M 
                          M     ifdef USE_LINKER
                          M         call    SEROUT
                          M     else
                          M       if ((SEROUT) < 1)
                          M         call    SEROUT
                          M       else
                          M         if ((SEROUT) > $)
                          M         call    SEROUT
                          M         else
                          M           if ((SEROUT) < ($ - 3ffh))
000520 EC4B F000          M         call    SEROUT
                          M           else
                          M         rcall   SEROUT
                          M           endif
                          M         endif
                          M       endif
                          M     endif
                      01871         SEROUT?C        02Eh
000524 0E2E               M         movlw   02Eh
                          M         L?CALL  SEROUT
                          M         RST?RP
MPASM 5.81                   PICKBYLIGHT.ASM   1-20-2021  23:46:00         PAGE 67


LOC  OBJECT CODE     LINE SOURCE TEXT
  VALUE

                          M     if (PREV_ALT != 0)
                          M         bcf     WDTCON, ADSHR
                          M PREV_ALT = 0
                          M     endif
                          M     if (PREV_BANK != 0)
                          M         movlb   0
                          M PREV_BANK = 0
                          M     endif
                          M 
                          M     ifdef USE_LINKER
                          M         call    SEROUT
                          M     else
                          M       if ((SEROUT) < 1)
                          M         call    SEROUT
                          M       else
                          M         if ((SEROUT) > $)
                          M         call    SEROUT
                          M         else
                          M           if ((SEROUT) < ($ - 3ffh))
000526 EC4B F000          M         call    SEROUT
                          M           else
                          M         rcall   SEROUT
                          M           endif
                          M         endif
                          M       endif
                          M     endif
                      01872         SEROUT?C        02Eh
00052A 0E2E               M         movlw   02Eh
                          M         L?CALL  SEROUT
                          M         RST?RP
                          M     if (PREV_ALT != 0)
                          M         bcf     WDTCON, ADSHR
                          M PREV_ALT = 0
                          M     endif
                          M     if (PREV_BANK != 0)
                          M         movlb   0
                          M PREV_BANK = 0
                          M     endif
                          M 
                          M     ifdef USE_LINKER
                          M         call    SEROUT
                          M     else
                          M       if ((SEROUT) < 1)
                          M         call    SEROUT
                          M       else
                          M         if ((SEROUT) > $)
                          M         call    SEROUT
                          M         else
                          M           if ((SEROUT) < ($ - 3ffh))
00052C EC4B F000          M         call    SEROUT
                          M           else
                          M         rcall   SEROUT
                          M           endif
MPASM 5.81                   PICKBYLIGHT.ASM   1-20-2021  23:46:00         PAGE 68


LOC  OBJECT CODE     LINE SOURCE TEXT
  VALUE

                          M         endif
                          M       endif
                          M     endif
                      01873         SEROUT?C        02Eh
000530 0E2E               M         movlw   02Eh
                          M         L?CALL  SEROUT
                          M         RST?RP
                          M     if (PREV_ALT != 0)
                          M         bcf     WDTCON, ADSHR
                          M PREV_ALT = 0
                          M     endif
                          M     if (PREV_BANK != 0)
                          M         movlb   0
                          M PREV_BANK = 0
                          M     endif
                          M 
                          M     ifdef USE_LINKER
                          M         call    SEROUT
                          M     else
                          M       if ((SEROUT) < 1)
                          M         call    SEROUT
                          M       else
                          M         if ((SEROUT) > $)
                          M         call    SEROUT
                          M         else
                          M           if ((SEROUT) < ($ - 3ffh))
000532 EC4B F000          M         call    SEROUT
                          M           else
                          M         rcall   SEROUT
                          M           endif
                          M         endif
                          M       endif
                          M     endif
                      01874         SEROUT?C        02Eh
000536 0E2E               M         movlw   02Eh
                          M         L?CALL  SEROUT
                          M         RST?RP
                          M     if (PREV_ALT != 0)
                          M         bcf     WDTCON, ADSHR
                          M PREV_ALT = 0
                          M     endif
                          M     if (PREV_BANK != 0)
                          M         movlb   0
                          M PREV_BANK = 0
                          M     endif
                          M 
                          M     ifdef USE_LINKER
                          M         call    SEROUT
                          M     else
                          M       if ((SEROUT) < 1)
                          M         call    SEROUT
                          M       else
                          M         if ((SEROUT) > $)
MPASM 5.81                   PICKBYLIGHT.ASM   1-20-2021  23:46:00         PAGE 69


LOC  OBJECT CODE     LINE SOURCE TEXT
  VALUE

                          M         call    SEROUT
                          M         else
                          M           if ((SEROUT) < ($ - 3ffh))
000538 EC4B F000          M         call    SEROUT
                          M           else
                          M         rcall   SEROUT
                          M           endif
                          M         endif
                          M       endif
                          M     endif
                      01875         SEROUT?C        02Eh
00053C 0E2E               M         movlw   02Eh
                          M         L?CALL  SEROUT
                          M         RST?RP
                          M     if (PREV_ALT != 0)
                          M         bcf     WDTCON, ADSHR
                          M PREV_ALT = 0
                          M     endif
                          M     if (PREV_BANK != 0)
                          M         movlb   0
                          M PREV_BANK = 0
                          M     endif
                          M 
                          M     ifdef USE_LINKER
                          M         call    SEROUT
                          M     else
                          M       if ((SEROUT) < 1)
                          M         call    SEROUT
                          M       else
                          M         if ((SEROUT) > $)
                          M         call    SEROUT
                          M         else
                          M           if ((SEROUT) < ($ - 3ffh))
00053E EC4B F000          M         call    SEROUT
                          M           else
                          M         rcall   SEROUT
                          M           endif
                          M         endif
                          M       endif
                          M     endif
                      01876         SEROUT?C        02Eh
000542 0E2E               M         movlw   02Eh
                          M         L?CALL  SEROUT
                          M         RST?RP
                          M     if (PREV_ALT != 0)
                          M         bcf     WDTCON, ADSHR
                          M PREV_ALT = 0
                          M     endif
                          M     if (PREV_BANK != 0)
                          M         movlb   0
                          M PREV_BANK = 0
                          M     endif
                          M 
MPASM 5.81                   PICKBYLIGHT.ASM   1-20-2021  23:46:00         PAGE 70


LOC  OBJECT CODE     LINE SOURCE TEXT
  VALUE

                          M     ifdef USE_LINKER
                          M         call    SEROUT
                          M     else
                          M       if ((SEROUT) < 1)
                          M         call    SEROUT
                          M       else
                          M         if ((SEROUT) > $)
                          M         call    SEROUT
                          M         else
                          M           if ((SEROUT) < ($ - 3ffh))
000544 EC4B F000          M         call    SEROUT
                          M           else
                          M         rcall   SEROUT
                          M           endif
                          M         endif
                          M       endif
                          M     endif
                      01877         SEROUT?C        02Eh
000548 0E2E               M         movlw   02Eh
                          M         L?CALL  SEROUT
                          M         RST?RP
                          M     if (PREV_ALT != 0)
                          M         bcf     WDTCON, ADSHR
                          M PREV_ALT = 0
                          M     endif
                          M     if (PREV_BANK != 0)
                          M         movlb   0
                          M PREV_BANK = 0
                          M     endif
                          M 
                          M     ifdef USE_LINKER
                          M         call    SEROUT
                          M     else
                          M       if ((SEROUT) < 1)
                          M         call    SEROUT
                          M       else
                          M         if ((SEROUT) > $)
                          M         call    SEROUT
                          M         else
                          M           if ((SEROUT) < ($ - 3ffh))
00054A EC4B F000          M         call    SEROUT
                          M           else
                          M         rcall   SEROUT
                          M           endif
                          M         endif
                          M       endif
                          M     endif
                      01878         SEROUT?C        02Eh
00054E 0E2E               M         movlw   02Eh
                          M         L?CALL  SEROUT
                          M         RST?RP
                          M     if (PREV_ALT != 0)
                          M         bcf     WDTCON, ADSHR
MPASM 5.81                   PICKBYLIGHT.ASM   1-20-2021  23:46:00         PAGE 71


LOC  OBJECT CODE     LINE SOURCE TEXT
  VALUE

                          M PREV_ALT = 0
                          M     endif
                          M     if (PREV_BANK != 0)
                          M         movlb   0
                          M PREV_BANK = 0
                          M     endif
                          M 
                          M     ifdef USE_LINKER
                          M         call    SEROUT
                          M     else
                          M       if ((SEROUT) < 1)
                          M         call    SEROUT
                          M       else
                          M         if ((SEROUT) > $)
                          M         call    SEROUT
                          M         else
                          M           if ((SEROUT) < ($ - 3ffh))
000550 EC4B F000          M         call    SEROUT
                          M           else
                          M         rcall   SEROUT
                          M           endif
                          M         endif
                          M       endif
                          M     endif
                      01879         SEROUT?C        02Eh
000554 0E2E               M         movlw   02Eh
                          M         L?CALL  SEROUT
                          M         RST?RP
                          M     if (PREV_ALT != 0)
                          M         bcf     WDTCON, ADSHR
                          M PREV_ALT = 0
                          M     endif
                          M     if (PREV_BANK != 0)
                          M         movlb   0
                          M PREV_BANK = 0
                          M     endif
                          M 
                          M     ifdef USE_LINKER
                          M         call    SEROUT
                          M     else
                          M       if ((SEROUT) < 1)
                          M         call    SEROUT
                          M       else
                          M         if ((SEROUT) > $)
                          M         call    SEROUT
                          M         else
                          M           if ((SEROUT) < ($ - 3ffh))
000556 EC4B F000          M         call    SEROUT
                          M           else
                          M         rcall   SEROUT
                          M           endif
                          M         endif
                          M       endif
MPASM 5.81                   PICKBYLIGHT.ASM   1-20-2021  23:46:00         PAGE 72


LOC  OBJECT CODE     LINE SOURCE TEXT
  VALUE

                          M     endif
                      01880         SEROUT?C        02Eh
00055A 0E2E               M         movlw   02Eh
                          M         L?CALL  SEROUT
                          M         RST?RP
                          M     if (PREV_ALT != 0)
                          M         bcf     WDTCON, ADSHR
                          M PREV_ALT = 0
                          M     endif
                          M     if (PREV_BANK != 0)
                          M         movlb   0
                          M PREV_BANK = 0
                          M     endif
                          M 
                          M     ifdef USE_LINKER
                          M         call    SEROUT
                          M     else
                          M       if ((SEROUT) < 1)
                          M         call    SEROUT
                          M       else
                          M         if ((SEROUT) > $)
                          M         call    SEROUT
                          M         else
                          M           if ((SEROUT) < ($ - 3ffh))
00055C EC4B F000          M         call    SEROUT
                          M           else
                          M         rcall   SEROUT
                          M           endif
                          M         endif
                          M       endif
                          M     endif
                      01881         SEROUT?C        02Eh
000560 0E2E               M         movlw   02Eh
                          M         L?CALL  SEROUT
                          M         RST?RP
                          M     if (PREV_ALT != 0)
                          M         bcf     WDTCON, ADSHR
                          M PREV_ALT = 0
                          M     endif
                          M     if (PREV_BANK != 0)
                          M         movlb   0
                          M PREV_BANK = 0
                          M     endif
                          M 
                          M     ifdef USE_LINKER
                          M         call    SEROUT
                          M     else
                          M       if ((SEROUT) < 1)
                          M         call    SEROUT
                          M       else
                          M         if ((SEROUT) > $)
                          M         call    SEROUT
                          M         else
MPASM 5.81                   PICKBYLIGHT.ASM   1-20-2021  23:46:00         PAGE 73


LOC  OBJECT CODE     LINE SOURCE TEXT
  VALUE

                          M           if ((SEROUT) < ($ - 3ffh))
000562 EC4B F000          M         call    SEROUT
                          M           else
                          M         rcall   SEROUT
                          M           endif
                          M         endif
                          M       endif
                          M     endif
                      01882         SEROUT?C        02Eh
000566 0E2E               M         movlw   02Eh
                          M         L?CALL  SEROUT
                          M         RST?RP
                          M     if (PREV_ALT != 0)
                          M         bcf     WDTCON, ADSHR
                          M PREV_ALT = 0
                          M     endif
                          M     if (PREV_BANK != 0)
                          M         movlb   0
                          M PREV_BANK = 0
                          M     endif
                          M 
                          M     ifdef USE_LINKER
                          M         call    SEROUT
                          M     else
                          M       if ((SEROUT) < 1)
                          M         call    SEROUT
                          M       else
                          M         if ((SEROUT) > $)
                          M         call    SEROUT
                          M         else
                          M           if ((SEROUT) < ($ - 3ffh))
000568 EC4B F000          M         call    SEROUT
                          M           else
                          M         rcall   SEROUT
                          M           endif
                          M         endif
                          M       endif
                          M     endif
                      01883         SEROUT?C        02Eh
00056C 0E2E               M         movlw   02Eh
                          M         L?CALL  SEROUT
                          M         RST?RP
                          M     if (PREV_ALT != 0)
                          M         bcf     WDTCON, ADSHR
                          M PREV_ALT = 0
                          M     endif
                          M     if (PREV_BANK != 0)
                          M         movlb   0
                          M PREV_BANK = 0
                          M     endif
                          M 
                          M     ifdef USE_LINKER
                          M         call    SEROUT
MPASM 5.81                   PICKBYLIGHT.ASM   1-20-2021  23:46:00         PAGE 74


LOC  OBJECT CODE     LINE SOURCE TEXT
  VALUE

                          M     else
                          M       if ((SEROUT) < 1)
                          M         call    SEROUT
                          M       else
                          M         if ((SEROUT) > $)
                          M         call    SEROUT
                          M         else
                          M           if ((SEROUT) < ($ - 3ffh))
00056E EC4B F000          M         call    SEROUT
                          M           else
                          M         rcall   SEROUT
                          M           endif
                          M         endif
                          M       endif
                          M     endif
                      01884         SEROUT?C        02Eh
000572 0E2E               M         movlw   02Eh
                          M         L?CALL  SEROUT
                          M         RST?RP
                          M     if (PREV_ALT != 0)
                          M         bcf     WDTCON, ADSHR
                          M PREV_ALT = 0
                          M     endif
                          M     if (PREV_BANK != 0)
                          M         movlb   0
                          M PREV_BANK = 0
                          M     endif
                          M 
                          M     ifdef USE_LINKER
                          M         call    SEROUT
                          M     else
                          M       if ((SEROUT) < 1)
                          M         call    SEROUT
                          M       else
                          M         if ((SEROUT) > $)
                          M         call    SEROUT
                          M         else
                          M           if ((SEROUT) < ($ - 3ffh))
000574 EC4B F000          M         call    SEROUT
                          M           else
                          M         rcall   SEROUT
                          M           endif
                          M         endif
                          M       endif
                          M     endif
                      01885         SEROUT?C        02Eh
000578 0E2E               M         movlw   02Eh
                          M         L?CALL  SEROUT
                          M         RST?RP
                          M     if (PREV_ALT != 0)
                          M         bcf     WDTCON, ADSHR
                          M PREV_ALT = 0
                          M     endif
MPASM 5.81                   PICKBYLIGHT.ASM   1-20-2021  23:46:00         PAGE 75


LOC  OBJECT CODE     LINE SOURCE TEXT
  VALUE

                          M     if (PREV_BANK != 0)
                          M         movlb   0
                          M PREV_BANK = 0
                          M     endif
                          M 
                          M     ifdef USE_LINKER
                          M         call    SEROUT
                          M     else
                          M       if ((SEROUT) < 1)
                          M         call    SEROUT
                          M       else
                          M         if ((SEROUT) > $)
                          M         call    SEROUT
                          M         else
                          M           if ((SEROUT) < ($ - 3ffh))
00057A EC4B F000          M         call    SEROUT
                          M           else
                          M         rcall   SEROUT
                          M           endif
                          M         endif
                          M       endif
                          M     endif
                      01886         SEROUT?C        02Eh
00057E 0E2E               M         movlw   02Eh
                          M         L?CALL  SEROUT
                          M         RST?RP
                          M     if (PREV_ALT != 0)
                          M         bcf     WDTCON, ADSHR
                          M PREV_ALT = 0
                          M     endif
                          M     if (PREV_BANK != 0)
                          M         movlb   0
                          M PREV_BANK = 0
                          M     endif
                          M 
                          M     ifdef USE_LINKER
                          M         call    SEROUT
                          M     else
                          M       if ((SEROUT) < 1)
                          M         call    SEROUT
                          M       else
                          M         if ((SEROUT) > $)
                          M         call    SEROUT
                          M         else
                          M           if ((SEROUT) < ($ - 3ffh))
000580 EC4B F000          M         call    SEROUT
                          M           else
                          M         rcall   SEROUT
                          M           endif
                          M         endif
                          M       endif
                          M     endif
                      01887         SEROUT?C        02Eh
MPASM 5.81                   PICKBYLIGHT.ASM   1-20-2021  23:46:00         PAGE 76


LOC  OBJECT CODE     LINE SOURCE TEXT
  VALUE

000584 0E2E               M         movlw   02Eh
                          M         L?CALL  SEROUT
                          M         RST?RP
                          M     if (PREV_ALT != 0)
                          M         bcf     WDTCON, ADSHR
                          M PREV_ALT = 0
                          M     endif
                          M     if (PREV_BANK != 0)
                          M         movlb   0
                          M PREV_BANK = 0
                          M     endif
                          M 
                          M     ifdef USE_LINKER
                          M         call    SEROUT
                          M     else
                          M       if ((SEROUT) < 1)
                          M         call    SEROUT
                          M       else
                          M         if ((SEROUT) > $)
                          M         call    SEROUT
                          M         else
                          M           if ((SEROUT) < ($ - 3ffh))
000586 EC4B F000          M         call    SEROUT
                          M           else
                          M         rcall   SEROUT
                          M           endif
                          M         endif
                          M       endif
                          M     endif
                      01888         SEROUT?C        02Eh
00058A 0E2E               M         movlw   02Eh
                          M         L?CALL  SEROUT
                          M         RST?RP
                          M     if (PREV_ALT != 0)
                          M         bcf     WDTCON, ADSHR
                          M PREV_ALT = 0
                          M     endif
                          M     if (PREV_BANK != 0)
                          M         movlb   0
                          M PREV_BANK = 0
                          M     endif
                          M 
                          M     ifdef USE_LINKER
                          M         call    SEROUT
                          M     else
                          M       if ((SEROUT) < 1)
                          M         call    SEROUT
                          M       else
                          M         if ((SEROUT) > $)
                          M         call    SEROUT
                          M         else
                          M           if ((SEROUT) < ($ - 3ffh))
00058C EC4B F000          M         call    SEROUT
MPASM 5.81                   PICKBYLIGHT.ASM   1-20-2021  23:46:00         PAGE 77


LOC  OBJECT CODE     LINE SOURCE TEXT
  VALUE

                          M           else
                          M         rcall   SEROUT
                          M           endif
                          M         endif
                          M       endif
                          M     endif
                      01889         SEROUT?C        02Eh
000590 0E2E               M         movlw   02Eh
                          M         L?CALL  SEROUT
                          M         RST?RP
                          M     if (PREV_ALT != 0)
                          M         bcf     WDTCON, ADSHR
                          M PREV_ALT = 0
                          M     endif
                          M     if (PREV_BANK != 0)
                          M         movlb   0
                          M PREV_BANK = 0
                          M     endif
                          M 
                          M     ifdef USE_LINKER
                          M         call    SEROUT
                          M     else
                          M       if ((SEROUT) < 1)
                          M         call    SEROUT
                          M       else
                          M         if ((SEROUT) > $)
                          M         call    SEROUT
                          M         else
                          M           if ((SEROUT) < ($ - 3ffh))
000592 EC4B F000          M         call    SEROUT
                          M           else
                          M         rcall   SEROUT
                          M           endif
                          M         endif
                          M       endif
                          M     endif
                      01890         SEROUT?C        02Eh
000596 0E2E               M         movlw   02Eh
                          M         L?CALL  SEROUT
                          M         RST?RP
                          M     if (PREV_ALT != 0)
                          M         bcf     WDTCON, ADSHR
                          M PREV_ALT = 0
                          M     endif
                          M     if (PREV_BANK != 0)
                          M         movlb   0
                          M PREV_BANK = 0
                          M     endif
                          M 
                          M     ifdef USE_LINKER
                          M         call    SEROUT
                          M     else
                          M       if ((SEROUT) < 1)
MPASM 5.81                   PICKBYLIGHT.ASM   1-20-2021  23:46:00         PAGE 78


LOC  OBJECT CODE     LINE SOURCE TEXT
  VALUE

                          M         call    SEROUT
                          M       else
                          M         if ((SEROUT) > $)
                          M         call    SEROUT
                          M         else
                          M           if ((SEROUT) < ($ - 3ffh))
000598 EC4B F000          M         call    SEROUT
                          M           else
                          M         rcall   SEROUT
                          M           endif
                          M         endif
                          M       endif
                          M     endif
                      01891         SEROUT?C        02Eh
00059C 0E2E               M         movlw   02Eh
                          M         L?CALL  SEROUT
                          M         RST?RP
                          M     if (PREV_ALT != 0)
                          M         bcf     WDTCON, ADSHR
                          M PREV_ALT = 0
                          M     endif
                          M     if (PREV_BANK != 0)
                          M         movlb   0
                          M PREV_BANK = 0
                          M     endif
                          M 
                          M     ifdef USE_LINKER
                          M         call    SEROUT
                          M     else
                          M       if ((SEROUT) < 1)
                          M         call    SEROUT
                          M       else
                          M         if ((SEROUT) > $)
                          M         call    SEROUT
                          M         else
                          M           if ((SEROUT) < ($ - 3ffh))
00059E EC4B F000          M         call    SEROUT
                          M           else
                          M         rcall   SEROUT
                          M           endif
                          M         endif
                          M       endif
                          M     endif
                      01892         SEROUT?C        02Eh
0005A2 0E2E               M         movlw   02Eh
                          M         L?CALL  SEROUT
                          M         RST?RP
                          M     if (PREV_ALT != 0)
                          M         bcf     WDTCON, ADSHR
                          M PREV_ALT = 0
                          M     endif
                          M     if (PREV_BANK != 0)
                          M         movlb   0
MPASM 5.81                   PICKBYLIGHT.ASM   1-20-2021  23:46:00         PAGE 79


LOC  OBJECT CODE     LINE SOURCE TEXT
  VALUE

                          M PREV_BANK = 0
                          M     endif
                          M 
                          M     ifdef USE_LINKER
                          M         call    SEROUT
                          M     else
                          M       if ((SEROUT) < 1)
                          M         call    SEROUT
                          M       else
                          M         if ((SEROUT) > $)
                          M         call    SEROUT
                          M         else
                          M           if ((SEROUT) < ($ - 3ffh))
0005A4 EC4B F000          M         call    SEROUT
                          M           else
                          M         rcall   SEROUT
                          M           endif
                          M         endif
                          M       endif
                          M     endif
                      01893         SEROUT?C        02Eh
0005A8 0E2E               M         movlw   02Eh
                          M         L?CALL  SEROUT
                          M         RST?RP
                          M     if (PREV_ALT != 0)
                          M         bcf     WDTCON, ADSHR
                          M PREV_ALT = 0
                          M     endif
                          M     if (PREV_BANK != 0)
                          M         movlb   0
                          M PREV_BANK = 0
                          M     endif
                          M 
                          M     ifdef USE_LINKER
                          M         call    SEROUT
                          M     else
                          M       if ((SEROUT) < 1)
                          M         call    SEROUT
                          M       else
                          M         if ((SEROUT) > $)
                          M         call    SEROUT
                          M         else
                          M           if ((SEROUT) < ($ - 3ffh))
0005AA EC4B F000          M         call    SEROUT
                          M           else
                          M         rcall   SEROUT
                          M           endif
                          M         endif
                          M       endif
                          M     endif
                      01894         SEROUT?C        02Eh
0005AE 0E2E               M         movlw   02Eh
                          M         L?CALL  SEROUT
MPASM 5.81                   PICKBYLIGHT.ASM   1-20-2021  23:46:00         PAGE 80


LOC  OBJECT CODE     LINE SOURCE TEXT
  VALUE

                          M         RST?RP
                          M     if (PREV_ALT != 0)
                          M         bcf     WDTCON, ADSHR
                          M PREV_ALT = 0
                          M     endif
                          M     if (PREV_BANK != 0)
                          M         movlb   0
                          M PREV_BANK = 0
                          M     endif
                          M 
                          M     ifdef USE_LINKER
                          M         call    SEROUT
                          M     else
                          M       if ((SEROUT) < 1)
                          M         call    SEROUT
                          M       else
                          M         if ((SEROUT) > $)
                          M         call    SEROUT
                          M         else
                          M           if ((SEROUT) < ($ - 3ffh))
0005B0 EC4B F000          M         call    SEROUT
                          M           else
                          M         rcall   SEROUT
                          M           endif
                          M         endif
                          M       endif
                          M     endif
                      01895         SEROUT?C        02Eh
0005B4 0E2E               M         movlw   02Eh
                          M         L?CALL  SEROUT
                          M         RST?RP
                          M     if (PREV_ALT != 0)
                          M         bcf     WDTCON, ADSHR
                          M PREV_ALT = 0
                          M     endif
                          M     if (PREV_BANK != 0)
                          M         movlb   0
                          M PREV_BANK = 0
                          M     endif
                          M 
                          M     ifdef USE_LINKER
                          M         call    SEROUT
                          M     else
                          M       if ((SEROUT) < 1)
                          M         call    SEROUT
                          M       else
                          M         if ((SEROUT) > $)
                          M         call    SEROUT
                          M         else
                          M           if ((SEROUT) < ($ - 3ffh))
0005B6 EC4B F000          M         call    SEROUT
                          M           else
                          M         rcall   SEROUT
MPASM 5.81                   PICKBYLIGHT.ASM   1-20-2021  23:46:00         PAGE 81


LOC  OBJECT CODE     LINE SOURCE TEXT
  VALUE

                          M           endif
                          M         endif
                          M       endif
                          M     endif
                      01896         SEROUT?C        02Eh
0005BA 0E2E               M         movlw   02Eh
                          M         L?CALL  SEROUT
                          M         RST?RP
                          M     if (PREV_ALT != 0)
                          M         bcf     WDTCON, ADSHR
                          M PREV_ALT = 0
                          M     endif
                          M     if (PREV_BANK != 0)
                          M         movlb   0
                          M PREV_BANK = 0
                          M     endif
                          M 
                          M     ifdef USE_LINKER
                          M         call    SEROUT
                          M     else
                          M       if ((SEROUT) < 1)
                          M         call    SEROUT
                          M       else
                          M         if ((SEROUT) > $)
                          M         call    SEROUT
                          M         else
                          M           if ((SEROUT) < ($ - 3ffh))
0005BC EC4B F000          M         call    SEROUT
                          M           else
                          M         rcall   SEROUT
                          M           endif
                          M         endif
                          M       endif
                          M     endif
                      01897         SEROUT?C        00Dh
0005C0 0E0D               M         movlw   00Dh
                          M         L?CALL  SEROUT
                          M         RST?RP
                          M     if (PREV_ALT != 0)
                          M         bcf     WDTCON, ADSHR
                          M PREV_ALT = 0
                          M     endif
                          M     if (PREV_BANK != 0)
                          M         movlb   0
                          M PREV_BANK = 0
                          M     endif
                          M 
                          M     ifdef USE_LINKER
                          M         call    SEROUT
                          M     else
                          M       if ((SEROUT) < 1)
                          M         call    SEROUT
                          M       else
MPASM 5.81                   PICKBYLIGHT.ASM   1-20-2021  23:46:00         PAGE 82


LOC  OBJECT CODE     LINE SOURCE TEXT
  VALUE

                          M         if ((SEROUT) > $)
                          M         call    SEROUT
                          M         else
                          M           if ((SEROUT) < ($ - 3ffh))
0005C2 EC4B F000          M         call    SEROUT
                          M           else
                          M         rcall   SEROUT
                          M           endif
                          M         endif
                          M       endif
                          M     endif
                      01898         SEROUT?C        00Ah
0005C6 0E0A               M         movlw   00Ah
                          M         L?CALL  SEROUT
                          M         RST?RP
                          M     if (PREV_ALT != 0)
                          M         bcf     WDTCON, ADSHR
                          M PREV_ALT = 0
                          M     endif
                          M     if (PREV_BANK != 0)
                          M         movlb   0
                          M PREV_BANK = 0
                          M     endif
                          M 
                          M     ifdef USE_LINKER
                          M         call    SEROUT
                          M     else
                          M       if ((SEROUT) < 1)
                          M         call    SEROUT
                          M       else
                          M         if ((SEROUT) > $)
                          M         call    SEROUT
                          M         else
                          M           if ((SEROUT) < ($ - 3ffh))
0005C8 EC4B F000          M         call    SEROUT
                          M           else
                          M         rcall   SEROUT
                          M           endif
                          M         endif
                          M       endif
                          M     endif
                      01899 
                      01900 ; C:\USERS\DMILOSAVLJEVIC\DOCUMENTS\PROJECT\TECOMATIC\PICKBYLIGHT\PICKBYLIGHT.PBP       00104       sERO
                            UT _rs232Tx,rs232_bps,["Init start", 13,10] 
                      01901         SERPIN?T        __rs232Tx
                          M         BIT?R1  PORTD, 007h
0005CC 0E83               M         movlw   low ((PORTD) + ((007h)  >> 3))
                          M         CHK?RP  RR1
                          M     if (((RR1)   & 8000h) != PREV_ALT)
                          M       if ((RR1)   & 8000h)
                          M         bsf     WDTCON, ADSHR
                          M       else
                          M         bcf     WDTCON, ADSHR
MPASM 5.81                   PICKBYLIGHT.ASM   1-20-2021  23:46:00         PAGE 83


LOC  OBJECT CODE     LINE SOURCE TEXT
  VALUE

                          M       endif
                          M PREV_ALT = (RR1)   & 8000h
                          M     endif
                          M     if ((((RR1)   & 0fffh) > BANKA_END) & (((RR1)   & 0fffh) < (0f01h + BANKA_END)))
                          M       if (((RR1)   & 0f00h) != (PREV_BANK << 8))
                          M         movlb   high (RR1)
                          M PREV_BANK = high (RR1)
                          M       endif
                          M     endif
0005CE 6E1F               M         movwf   RR1
0005D0 0E0F               M         movlw   high ((PORTD) + ((007h)  >> 3))
0005D2 6E21               M         movwf   RS1
                          M         BIT?W   007h
                          M     if (((007h)  & 7) == 0)
                          M         movlw   01h
                          M     endif
                          M     if (((007h)  & 7) == 1)
                          M         movlw   02h
                          M     endif
                          M     if (((007h)  & 7) == 2)
                          M         movlw   04h
                          M     endif
                          M     if (((007h)  & 7) == 3)
                          M         movlw   08h
                          M     endif
                          M     if (((007h)  & 7) == 4)
                          M         movlw   10h
                          M     endif
                          M     if (((007h)  & 7) == 5)
                          M         movlw   20h
                          M     endif
                          M     if (((007h)  & 7) == 6)
                          M         movlw   40h
                          M     endif
                          M     if (((007h)  & 7) == 7)
0005D4 0E80               M         movlw   80h
                          M     endif
0005D6 6E1D               M         movwf   RM1
                      01902         SERMODE?C       _rs232_bps
                          M         MOVE?CB _rs232_bps, GOP
                          M         CHK?RP  GOP
                          M     if (((GOP)   & 8000h) != PREV_ALT)
                          M       if ((GOP)   & 8000h)
                          M         bsf     WDTCON, ADSHR
                          M       else
                          M         bcf     WDTCON, ADSHR
                          M       endif
                          M PREV_ALT = (GOP)   & 8000h
                          M     endif
                          M     if ((((GOP)   & 0fffh) > BANKA_END) & (((GOP)   & 0fffh) < (0f01h + BANKA_END)))
                          M       if (((GOP)   & 0f00h) != (PREV_BANK << 8))
                          M         movlb   high (GOP)
                          M PREV_BANK = high (GOP)
MPASM 5.81                   PICKBYLIGHT.ASM   1-20-2021  23:46:00         PAGE 84


LOC  OBJECT CODE     LINE SOURCE TEXT
  VALUE

                          M       endif
                          M     endif
                          M     if (low (_rs232_bps) == 0)
                          M         clrf    GOP
                          M     else
                          M       if (low (_rs232_bps) == 255)
                          M         setf    GOP
                          M       else
0005D8 0E06               M         movlw   low (_rs232_bps)
0005DA 6E01               M         movwf   GOP
                          M       endif
                          M     endif
                      01903         SEROUT?C        049h
0005DC 0E49               M         movlw   049h
                          M         L?CALL  SEROUT
                          M         RST?RP
                          M     if (PREV_ALT != 0)
                          M         bcf     WDTCON, ADSHR
                          M PREV_ALT = 0
                          M     endif
                          M     if (PREV_BANK != 0)
                          M         movlb   0
                          M PREV_BANK = 0
                          M     endif
                          M 
                          M     ifdef USE_LINKER
                          M         call    SEROUT
                          M     else
                          M       if ((SEROUT) < 1)
                          M         call    SEROUT
                          M       else
                          M         if ((SEROUT) > $)
                          M         call    SEROUT
                          M         else
                          M           if ((SEROUT) < ($ - 3ffh))
0005DE EC4B F000          M         call    SEROUT
                          M           else
                          M         rcall   SEROUT
                          M           endif
                          M         endif
                          M       endif
                          M     endif
                      01904         SEROUT?C        06Eh
0005E2 0E6E               M         movlw   06Eh
                          M         L?CALL  SEROUT
                          M         RST?RP
                          M     if (PREV_ALT != 0)
                          M         bcf     WDTCON, ADSHR
                          M PREV_ALT = 0
                          M     endif
                          M     if (PREV_BANK != 0)
                          M         movlb   0
                          M PREV_BANK = 0
MPASM 5.81                   PICKBYLIGHT.ASM   1-20-2021  23:46:00         PAGE 85


LOC  OBJECT CODE     LINE SOURCE TEXT
  VALUE

                          M     endif
                          M 
                          M     ifdef USE_LINKER
                          M         call    SEROUT
                          M     else
                          M       if ((SEROUT) < 1)
                          M         call    SEROUT
                          M       else
                          M         if ((SEROUT) > $)
                          M         call    SEROUT
                          M         else
                          M           if ((SEROUT) < ($ - 3ffh))
0005E4 EC4B F000          M         call    SEROUT
                          M           else
                          M         rcall   SEROUT
                          M           endif
                          M         endif
                          M       endif
                          M     endif
                      01905         SEROUT?C        069h
0005E8 0E69               M         movlw   069h
                          M         L?CALL  SEROUT
                          M         RST?RP
                          M     if (PREV_ALT != 0)
                          M         bcf     WDTCON, ADSHR
                          M PREV_ALT = 0
                          M     endif
                          M     if (PREV_BANK != 0)
                          M         movlb   0
                          M PREV_BANK = 0
                          M     endif
                          M 
                          M     ifdef USE_LINKER
                          M         call    SEROUT
                          M     else
                          M       if ((SEROUT) < 1)
                          M         call    SEROUT
                          M       else
                          M         if ((SEROUT) > $)
                          M         call    SEROUT
                          M         else
                          M           if ((SEROUT) < ($ - 3ffh))
0005EA EC4B F000          M         call    SEROUT
                          M           else
                          M         rcall   SEROUT
                          M           endif
                          M         endif
                          M       endif
                          M     endif
                      01906         SEROUT?C        074h
0005EE 0E74               M         movlw   074h
                          M         L?CALL  SEROUT
                          M         RST?RP
MPASM 5.81                   PICKBYLIGHT.ASM   1-20-2021  23:46:00         PAGE 86


LOC  OBJECT CODE     LINE SOURCE TEXT
  VALUE

                          M     if (PREV_ALT != 0)
                          M         bcf     WDTCON, ADSHR
                          M PREV_ALT = 0
                          M     endif
                          M     if (PREV_BANK != 0)
                          M         movlb   0
                          M PREV_BANK = 0
                          M     endif
                          M 
                          M     ifdef USE_LINKER
                          M         call    SEROUT
                          M     else
                          M       if ((SEROUT) < 1)
                          M         call    SEROUT
                          M       else
                          M         if ((SEROUT) > $)
                          M         call    SEROUT
                          M         else
                          M           if ((SEROUT) < ($ - 3ffh))
0005F0 EC4B F000          M         call    SEROUT
                          M           else
                          M         rcall   SEROUT
                          M           endif
                          M         endif
                          M       endif
                          M     endif
                      01907         SEROUT?C        020h
0005F4 0E20               M         movlw   020h
                          M         L?CALL  SEROUT
                          M         RST?RP
                          M     if (PREV_ALT != 0)
                          M         bcf     WDTCON, ADSHR
                          M PREV_ALT = 0
                          M     endif
                          M     if (PREV_BANK != 0)
                          M         movlb   0
                          M PREV_BANK = 0
                          M     endif
                          M 
                          M     ifdef USE_LINKER
                          M         call    SEROUT
                          M     else
                          M       if ((SEROUT) < 1)
                          M         call    SEROUT
                          M       else
                          M         if ((SEROUT) > $)
                          M         call    SEROUT
                          M         else
                          M           if ((SEROUT) < ($ - 3ffh))
0005F6 EC4B F000          M         call    SEROUT
                          M           else
                          M         rcall   SEROUT
                          M           endif
MPASM 5.81                   PICKBYLIGHT.ASM   1-20-2021  23:46:00         PAGE 87


LOC  OBJECT CODE     LINE SOURCE TEXT
  VALUE

                          M         endif
                          M       endif
                          M     endif
                      01908         SEROUT?C        073h
0005FA 0E73               M         movlw   073h
                          M         L?CALL  SEROUT
                          M         RST?RP
                          M     if (PREV_ALT != 0)
                          M         bcf     WDTCON, ADSHR
                          M PREV_ALT = 0
                          M     endif
                          M     if (PREV_BANK != 0)
                          M         movlb   0
                          M PREV_BANK = 0
                          M     endif
                          M 
                          M     ifdef USE_LINKER
                          M         call    SEROUT
                          M     else
                          M       if ((SEROUT) < 1)
                          M         call    SEROUT
                          M       else
                          M         if ((SEROUT) > $)
                          M         call    SEROUT
                          M         else
                          M           if ((SEROUT) < ($ - 3ffh))
0005FC EC4B F000          M         call    SEROUT
                          M           else
                          M         rcall   SEROUT
                          M           endif
                          M         endif
                          M       endif
                          M     endif
                      01909         SEROUT?C        074h
000600 0E74               M         movlw   074h
                          M         L?CALL  SEROUT
                          M         RST?RP
                          M     if (PREV_ALT != 0)
                          M         bcf     WDTCON, ADSHR
                          M PREV_ALT = 0
                          M     endif
                          M     if (PREV_BANK != 0)
                          M         movlb   0
                          M PREV_BANK = 0
                          M     endif
                          M 
                          M     ifdef USE_LINKER
                          M         call    SEROUT
                          M     else
                          M       if ((SEROUT) < 1)
                          M         call    SEROUT
                          M       else
                          M         if ((SEROUT) > $)
MPASM 5.81                   PICKBYLIGHT.ASM   1-20-2021  23:46:00         PAGE 88


LOC  OBJECT CODE     LINE SOURCE TEXT
  VALUE

                          M         call    SEROUT
                          M         else
                          M           if ((SEROUT) < ($ - 3ffh))
000602 EC4B F000          M         call    SEROUT
                          M           else
                          M         rcall   SEROUT
                          M           endif
                          M         endif
                          M       endif
                          M     endif
                      01910         SEROUT?C        061h
000606 0E61               M         movlw   061h
                          M         L?CALL  SEROUT
                          M         RST?RP
                          M     if (PREV_ALT != 0)
                          M         bcf     WDTCON, ADSHR
                          M PREV_ALT = 0
                          M     endif
                          M     if (PREV_BANK != 0)
                          M         movlb   0
                          M PREV_BANK = 0
                          M     endif
                          M 
                          M     ifdef USE_LINKER
                          M         call    SEROUT
                          M     else
                          M       if ((SEROUT) < 1)
                          M         call    SEROUT
                          M       else
                          M         if ((SEROUT) > $)
                          M         call    SEROUT
                          M         else
                          M           if ((SEROUT) < ($ - 3ffh))
000608 EC4B F000          M         call    SEROUT
                          M           else
                          M         rcall   SEROUT
                          M           endif
                          M         endif
                          M       endif
                          M     endif
                      01911         SEROUT?C        072h
00060C 0E72               M         movlw   072h
                          M         L?CALL  SEROUT
                          M         RST?RP
                          M     if (PREV_ALT != 0)
                          M         bcf     WDTCON, ADSHR
                          M PREV_ALT = 0
                          M     endif
                          M     if (PREV_BANK != 0)
                          M         movlb   0
                          M PREV_BANK = 0
                          M     endif
                          M 
MPASM 5.81                   PICKBYLIGHT.ASM   1-20-2021  23:46:00         PAGE 89


LOC  OBJECT CODE     LINE SOURCE TEXT
  VALUE

                          M     ifdef USE_LINKER
                          M         call    SEROUT
                          M     else
                          M       if ((SEROUT) < 1)
                          M         call    SEROUT
                          M       else
                          M         if ((SEROUT) > $)
                          M         call    SEROUT
                          M         else
                          M           if ((SEROUT) < ($ - 3ffh))
00060E EC4B F000          M         call    SEROUT
                          M           else
                          M         rcall   SEROUT
                          M           endif
                          M         endif
                          M       endif
                          M     endif
                      01912         SEROUT?C        074h
000612 0E74               M         movlw   074h
                          M         L?CALL  SEROUT
                          M         RST?RP
                          M     if (PREV_ALT != 0)
                          M         bcf     WDTCON, ADSHR
                          M PREV_ALT = 0
                          M     endif
                          M     if (PREV_BANK != 0)
                          M         movlb   0
                          M PREV_BANK = 0
                          M     endif
                          M 
                          M     ifdef USE_LINKER
                          M         call    SEROUT
                          M     else
                          M       if ((SEROUT) < 1)
                          M         call    SEROUT
                          M       else
                          M         if ((SEROUT) > $)
                          M         call    SEROUT
                          M         else
                          M           if ((SEROUT) < ($ - 3ffh))
000614 EC4B F000          M         call    SEROUT
                          M           else
                          M         rcall   SEROUT
                          M           endif
                          M         endif
                          M       endif
                          M     endif
                      01913         SEROUT?C        00Dh
000618 0E0D               M         movlw   00Dh
                          M         L?CALL  SEROUT
                          M         RST?RP
                          M     if (PREV_ALT != 0)
                          M         bcf     WDTCON, ADSHR
MPASM 5.81                   PICKBYLIGHT.ASM   1-20-2021  23:46:00         PAGE 90


LOC  OBJECT CODE     LINE SOURCE TEXT
  VALUE

                          M PREV_ALT = 0
                          M     endif
                          M     if (PREV_BANK != 0)
                          M         movlb   0
                          M PREV_BANK = 0
                          M     endif
                          M 
                          M     ifdef USE_LINKER
                          M         call    SEROUT
                          M     else
                          M       if ((SEROUT) < 1)
                          M         call    SEROUT
                          M       else
                          M         if ((SEROUT) > $)
                          M         call    SEROUT
                          M         else
                          M           if ((SEROUT) < ($ - 3ffh))
00061A EC4B F000          M         call    SEROUT
                          M           else
                          M         rcall   SEROUT
                          M           endif
                          M         endif
                          M       endif
                          M     endif
                      01914         SEROUT?C        00Ah
00061E 0E0A               M         movlw   00Ah
                          M         L?CALL  SEROUT
                          M         RST?RP
                          M     if (PREV_ALT != 0)
                          M         bcf     WDTCON, ADSHR
                          M PREV_ALT = 0
                          M     endif
                          M     if (PREV_BANK != 0)
                          M         movlb   0
                          M PREV_BANK = 0
                          M     endif
                          M 
                          M     ifdef USE_LINKER
                          M         call    SEROUT
                          M     else
                          M       if ((SEROUT) < 1)
                          M         call    SEROUT
                          M       else
                          M         if ((SEROUT) > $)
                          M         call    SEROUT
                          M         else
                          M           if ((SEROUT) < ($ - 3ffh))
000620 EC4B F000          M         call    SEROUT
                          M           else
                          M         rcall   SEROUT
                          M           endif
                          M         endif
                          M       endif
MPASM 5.81                   PICKBYLIGHT.ASM   1-20-2021  23:46:00         PAGE 91


LOC  OBJECT CODE     LINE SOURCE TEXT
  VALUE

                          M     endif
                      01915 
                      01916 ; C:\USERS\DMILOSAVLJEVIC\DOCUMENTS\PROJECT\TECOMATIC\PICKBYLIGHT\PICKBYLIGHT.PBP       00105       SERO
                            UT _rs232Tx,rs232_bps,["PickByLight FW:",#majorVer,".",#revisionver,13,10]
                      01917         SERPIN?T        __rs232Tx
                          M         BIT?R1  PORTD, 007h
000624 0E83               M         movlw   low ((PORTD) + ((007h)  >> 3))
                          M         CHK?RP  RR1
                          M     if (((RR1)   & 8000h) != PREV_ALT)
                          M       if ((RR1)   & 8000h)
                          M         bsf     WDTCON, ADSHR
                          M       else
                          M         bcf     WDTCON, ADSHR
                          M       endif
                          M PREV_ALT = (RR1)   & 8000h
                          M     endif
                          M     if ((((RR1)   & 0fffh) > BANKA_END) & (((RR1)   & 0fffh) < (0f01h + BANKA_END)))
                          M       if (((RR1)   & 0f00h) != (PREV_BANK << 8))
                          M         movlb   high (RR1)
                          M PREV_BANK = high (RR1)
                          M       endif
                          M     endif
000626 6E1F               M         movwf   RR1
000628 0E0F               M         movlw   high ((PORTD) + ((007h)  >> 3))
00062A 6E21               M         movwf   RS1
                          M         BIT?W   007h
                          M     if (((007h)  & 7) == 0)
                          M         movlw   01h
                          M     endif
                          M     if (((007h)  & 7) == 1)
                          M         movlw   02h
                          M     endif
                          M     if (((007h)  & 7) == 2)
                          M         movlw   04h
                          M     endif
                          M     if (((007h)  & 7) == 3)
                          M         movlw   08h
                          M     endif
                          M     if (((007h)  & 7) == 4)
                          M         movlw   10h
                          M     endif
                          M     if (((007h)  & 7) == 5)
                          M         movlw   20h
                          M     endif
                          M     if (((007h)  & 7) == 6)
                          M         movlw   40h
                          M     endif
                          M     if (((007h)  & 7) == 7)
00062C 0E80               M         movlw   80h
                          M     endif
00062E 6E1D               M         movwf   RM1
                      01918         SERMODE?C       _rs232_bps
                          M         MOVE?CB _rs232_bps, GOP
MPASM 5.81                   PICKBYLIGHT.ASM   1-20-2021  23:46:00         PAGE 92


LOC  OBJECT CODE     LINE SOURCE TEXT
  VALUE

                          M         CHK?RP  GOP
                          M     if (((GOP)   & 8000h) != PREV_ALT)
                          M       if ((GOP)   & 8000h)
                          M         bsf     WDTCON, ADSHR
                          M       else
                          M         bcf     WDTCON, ADSHR
                          M       endif
                          M PREV_ALT = (GOP)   & 8000h
                          M     endif
                          M     if ((((GOP)   & 0fffh) > BANKA_END) & (((GOP)   & 0fffh) < (0f01h + BANKA_END)))
                          M       if (((GOP)   & 0f00h) != (PREV_BANK << 8))
                          M         movlb   high (GOP)
                          M PREV_BANK = high (GOP)
                          M       endif
                          M     endif
                          M     if (low (_rs232_bps) == 0)
                          M         clrf    GOP
                          M     else
                          M       if (low (_rs232_bps) == 255)
                          M         setf    GOP
                          M       else
000630 0E06               M         movlw   low (_rs232_bps)
000632 6E01               M         movwf   GOP
                          M       endif
                          M     endif
                      01919         SEROUT?C        050h
000634 0E50               M         movlw   050h
                          M         L?CALL  SEROUT
                          M         RST?RP
                          M     if (PREV_ALT != 0)
                          M         bcf     WDTCON, ADSHR
                          M PREV_ALT = 0
                          M     endif
                          M     if (PREV_BANK != 0)
                          M         movlb   0
                          M PREV_BANK = 0
                          M     endif
                          M 
                          M     ifdef USE_LINKER
                          M         call    SEROUT
                          M     else
                          M       if ((SEROUT) < 1)
                          M         call    SEROUT
                          M       else
                          M         if ((SEROUT) > $)
                          M         call    SEROUT
                          M         else
                          M           if ((SEROUT) < ($ - 3ffh))
000636 EC4B F000          M         call    SEROUT
                          M           else
                          M         rcall   SEROUT
                          M           endif
                          M         endif
MPASM 5.81                   PICKBYLIGHT.ASM   1-20-2021  23:46:00         PAGE 93


LOC  OBJECT CODE     LINE SOURCE TEXT
  VALUE

                          M       endif
                          M     endif
                      01920         SEROUT?C        069h
00063A 0E69               M         movlw   069h
                          M         L?CALL  SEROUT
                          M         RST?RP
                          M     if (PREV_ALT != 0)
                          M         bcf     WDTCON, ADSHR
                          M PREV_ALT = 0
                          M     endif
                          M     if (PREV_BANK != 0)
                          M         movlb   0
                          M PREV_BANK = 0
                          M     endif
                          M 
                          M     ifdef USE_LINKER
                          M         call    SEROUT
                          M     else
                          M       if ((SEROUT) < 1)
                          M         call    SEROUT
                          M       else
                          M         if ((SEROUT) > $)
                          M         call    SEROUT
                          M         else
                          M           if ((SEROUT) < ($ - 3ffh))
00063C EC4B F000          M         call    SEROUT
                          M           else
                          M         rcall   SEROUT
                          M           endif
                          M         endif
                          M       endif
                          M     endif
                      01921         SEROUT?C        063h
000640 0E63               M         movlw   063h
                          M         L?CALL  SEROUT
                          M         RST?RP
                          M     if (PREV_ALT != 0)
                          M         bcf     WDTCON, ADSHR
                          M PREV_ALT = 0
                          M     endif
                          M     if (PREV_BANK != 0)
                          M         movlb   0
                          M PREV_BANK = 0
                          M     endif
                          M 
                          M     ifdef USE_LINKER
                          M         call    SEROUT
                          M     else
                          M       if ((SEROUT) < 1)
                          M         call    SEROUT
                          M       else
                          M         if ((SEROUT) > $)
                          M         call    SEROUT
MPASM 5.81                   PICKBYLIGHT.ASM   1-20-2021  23:46:00         PAGE 94


LOC  OBJECT CODE     LINE SOURCE TEXT
  VALUE

                          M         else
                          M           if ((SEROUT) < ($ - 3ffh))
000642 EC4B F000          M         call    SEROUT
                          M           else
                          M         rcall   SEROUT
                          M           endif
                          M         endif
                          M       endif
                          M     endif
                      01922         SEROUT?C        06Bh
000646 0E6B               M         movlw   06Bh
                          M         L?CALL  SEROUT
                          M         RST?RP
                          M     if (PREV_ALT != 0)
                          M         bcf     WDTCON, ADSHR
                          M PREV_ALT = 0
                          M     endif
                          M     if (PREV_BANK != 0)
                          M         movlb   0
                          M PREV_BANK = 0
                          M     endif
                          M 
                          M     ifdef USE_LINKER
                          M         call    SEROUT
                          M     else
                          M       if ((SEROUT) < 1)
                          M         call    SEROUT
                          M       else
                          M         if ((SEROUT) > $)
                          M         call    SEROUT
                          M         else
                          M           if ((SEROUT) < ($ - 3ffh))
000648 EC4B F000          M         call    SEROUT
                          M           else
                          M         rcall   SEROUT
                          M           endif
                          M         endif
                          M       endif
                          M     endif
                      01923         SEROUT?C        042h
00064C 0E42               M         movlw   042h
                          M         L?CALL  SEROUT
                          M         RST?RP
                          M     if (PREV_ALT != 0)
                          M         bcf     WDTCON, ADSHR
                          M PREV_ALT = 0
                          M     endif
                          M     if (PREV_BANK != 0)
                          M         movlb   0
                          M PREV_BANK = 0
                          M     endif
                          M 
                          M     ifdef USE_LINKER
MPASM 5.81                   PICKBYLIGHT.ASM   1-20-2021  23:46:00         PAGE 95


LOC  OBJECT CODE     LINE SOURCE TEXT
  VALUE

                          M         call    SEROUT
                          M     else
                          M       if ((SEROUT) < 1)
                          M         call    SEROUT
                          M       else
                          M         if ((SEROUT) > $)
                          M         call    SEROUT
                          M         else
                          M           if ((SEROUT) < ($ - 3ffh))
00064E EC4B F000          M         call    SEROUT
                          M           else
                          M         rcall   SEROUT
                          M           endif
                          M         endif
                          M       endif
                          M     endif
                      01924         SEROUT?C        079h
000652 0E79               M         movlw   079h
                          M         L?CALL  SEROUT
                          M         RST?RP
                          M     if (PREV_ALT != 0)
                          M         bcf     WDTCON, ADSHR
                          M PREV_ALT = 0
                          M     endif
                          M     if (PREV_BANK != 0)
                          M         movlb   0
                          M PREV_BANK = 0
                          M     endif
                          M 
                          M     ifdef USE_LINKER
                          M         call    SEROUT
                          M     else
                          M       if ((SEROUT) < 1)
                          M         call    SEROUT
                          M       else
                          M         if ((SEROUT) > $)
                          M         call    SEROUT
                          M         else
                          M           if ((SEROUT) < ($ - 3ffh))
000654 EC4B F000          M         call    SEROUT
                          M           else
                          M         rcall   SEROUT
                          M           endif
                          M         endif
                          M       endif
                          M     endif
                      01925         SEROUT?C        04Ch
000658 0E4C               M         movlw   04Ch
                          M         L?CALL  SEROUT
                          M         RST?RP
                          M     if (PREV_ALT != 0)
                          M         bcf     WDTCON, ADSHR
                          M PREV_ALT = 0
MPASM 5.81                   PICKBYLIGHT.ASM   1-20-2021  23:46:00         PAGE 96


LOC  OBJECT CODE     LINE SOURCE TEXT
  VALUE

                          M     endif
                          M     if (PREV_BANK != 0)
                          M         movlb   0
                          M PREV_BANK = 0
                          M     endif
                          M 
                          M     ifdef USE_LINKER
                          M         call    SEROUT
                          M     else
                          M       if ((SEROUT) < 1)
                          M         call    SEROUT
                          M       else
                          M         if ((SEROUT) > $)
                          M         call    SEROUT
                          M         else
                          M           if ((SEROUT) < ($ - 3ffh))
00065A EC4B F000          M         call    SEROUT
                          M           else
                          M         rcall   SEROUT
                          M           endif
                          M         endif
                          M       endif
                          M     endif
                      01926         SEROUT?C        069h
00065E 0E69               M         movlw   069h
                          M         L?CALL  SEROUT
                          M         RST?RP
                          M     if (PREV_ALT != 0)
                          M         bcf     WDTCON, ADSHR
                          M PREV_ALT = 0
                          M     endif
                          M     if (PREV_BANK != 0)
                          M         movlb   0
                          M PREV_BANK = 0
                          M     endif
                          M 
                          M     ifdef USE_LINKER
                          M         call    SEROUT
                          M     else
                          M       if ((SEROUT) < 1)
                          M         call    SEROUT
                          M       else
                          M         if ((SEROUT) > $)
                          M         call    SEROUT
                          M         else
                          M           if ((SEROUT) < ($ - 3ffh))
000660 EC4B F000          M         call    SEROUT
                          M           else
                          M         rcall   SEROUT
                          M           endif
                          M         endif
                          M       endif
                          M     endif
MPASM 5.81                   PICKBYLIGHT.ASM   1-20-2021  23:46:00         PAGE 97


LOC  OBJECT CODE     LINE SOURCE TEXT
  VALUE

                      01927         SEROUT?C        067h
000664 0E67               M         movlw   067h
                          M         L?CALL  SEROUT
                          M         RST?RP
                          M     if (PREV_ALT != 0)
                          M         bcf     WDTCON, ADSHR
                          M PREV_ALT = 0
                          M     endif
                          M     if (PREV_BANK != 0)
                          M         movlb   0
                          M PREV_BANK = 0
                          M     endif
                          M 
                          M     ifdef USE_LINKER
                          M         call    SEROUT
                          M     else
                          M       if ((SEROUT) < 1)
                          M         call    SEROUT
                          M       else
                          M         if ((SEROUT) > $)
                          M         call    SEROUT
                          M         else
                          M           if ((SEROUT) < ($ - 3ffh))
000666 EC4B F000          M         call    SEROUT
                          M           else
                          M         rcall   SEROUT
                          M           endif
                          M         endif
                          M       endif
                          M     endif
                      01928         SEROUT?C        068h
00066A 0E68               M         movlw   068h
                          M         L?CALL  SEROUT
                          M         RST?RP
                          M     if (PREV_ALT != 0)
                          M         bcf     WDTCON, ADSHR
                          M PREV_ALT = 0
                          M     endif
                          M     if (PREV_BANK != 0)
                          M         movlb   0
                          M PREV_BANK = 0
                          M     endif
                          M 
                          M     ifdef USE_LINKER
                          M         call    SEROUT
                          M     else
                          M       if ((SEROUT) < 1)
                          M         call    SEROUT
                          M       else
                          M         if ((SEROUT) > $)
                          M         call    SEROUT
                          M         else
                          M           if ((SEROUT) < ($ - 3ffh))
MPASM 5.81                   PICKBYLIGHT.ASM   1-20-2021  23:46:00         PAGE 98


LOC  OBJECT CODE     LINE SOURCE TEXT
  VALUE

00066C EC4B F000          M         call    SEROUT
                          M           else
                          M         rcall   SEROUT
                          M           endif
                          M         endif
                          M       endif
                          M     endif
                      01929         SEROUT?C        074h
000670 0E74               M         movlw   074h
                          M         L?CALL  SEROUT
                          M         RST?RP
                          M     if (PREV_ALT != 0)
                          M         bcf     WDTCON, ADSHR
                          M PREV_ALT = 0
                          M     endif
                          M     if (PREV_BANK != 0)
                          M         movlb   0
                          M PREV_BANK = 0
                          M     endif
                          M 
                          M     ifdef USE_LINKER
                          M         call    SEROUT
                          M     else
                          M       if ((SEROUT) < 1)
                          M         call    SEROUT
                          M       else
                          M         if ((SEROUT) > $)
                          M         call    SEROUT
                          M         else
                          M           if ((SEROUT) < ($ - 3ffh))
000672 EC4B F000          M         call    SEROUT
                          M           else
                          M         rcall   SEROUT
                          M           endif
                          M         endif
                          M       endif
                          M     endif
                      01930         SEROUT?C        020h
000676 0E20               M         movlw   020h
                          M         L?CALL  SEROUT
                          M         RST?RP
                          M     if (PREV_ALT != 0)
                          M         bcf     WDTCON, ADSHR
                          M PREV_ALT = 0
                          M     endif
                          M     if (PREV_BANK != 0)
                          M         movlb   0
                          M PREV_BANK = 0
                          M     endif
                          M 
                          M     ifdef USE_LINKER
                          M         call    SEROUT
                          M     else
MPASM 5.81                   PICKBYLIGHT.ASM   1-20-2021  23:46:00         PAGE 99


LOC  OBJECT CODE     LINE SOURCE TEXT
  VALUE

                          M       if ((SEROUT) < 1)
                          M         call    SEROUT
                          M       else
                          M         if ((SEROUT) > $)
                          M         call    SEROUT
                          M         else
                          M           if ((SEROUT) < ($ - 3ffh))
000678 EC4B F000          M         call    SEROUT
                          M           else
                          M         rcall   SEROUT
                          M           endif
                          M         endif
                          M       endif
                          M     endif
                      01931         SEROUT?C        046h
00067C 0E46               M         movlw   046h
                          M         L?CALL  SEROUT
                          M         RST?RP
                          M     if (PREV_ALT != 0)
                          M         bcf     WDTCON, ADSHR
                          M PREV_ALT = 0
                          M     endif
                          M     if (PREV_BANK != 0)
                          M         movlb   0
                          M PREV_BANK = 0
                          M     endif
                          M 
                          M     ifdef USE_LINKER
                          M         call    SEROUT
                          M     else
                          M       if ((SEROUT) < 1)
                          M         call    SEROUT
                          M       else
                          M         if ((SEROUT) > $)
                          M         call    SEROUT
                          M         else
                          M           if ((SEROUT) < ($ - 3ffh))
00067E EC4B F000          M         call    SEROUT
                          M           else
                          M         rcall   SEROUT
                          M           endif
                          M         endif
                          M       endif
                          M     endif
                      01932         SEROUT?C        057h
000682 0E57               M         movlw   057h
                          M         L?CALL  SEROUT
                          M         RST?RP
                          M     if (PREV_ALT != 0)
                          M         bcf     WDTCON, ADSHR
                          M PREV_ALT = 0
                          M     endif
                          M     if (PREV_BANK != 0)
MPASM 5.81                   PICKBYLIGHT.ASM   1-20-2021  23:46:00         PAGE 100


LOC  OBJECT CODE     LINE SOURCE TEXT
  VALUE

                          M         movlb   0
                          M PREV_BANK = 0
                          M     endif
                          M 
                          M     ifdef USE_LINKER
                          M         call    SEROUT
                          M     else
                          M       if ((SEROUT) < 1)
                          M         call    SEROUT
                          M       else
                          M         if ((SEROUT) > $)
                          M         call    SEROUT
                          M         else
                          M           if ((SEROUT) < ($ - 3ffh))
000684 EC4B F000          M         call    SEROUT
                          M           else
                          M         rcall   SEROUT
                          M           endif
                          M         endif
                          M       endif
                          M     endif
                      01933         SEROUT?C        03Ah
000688 0E3A               M         movlw   03Ah
                          M         L?CALL  SEROUT
                          M         RST?RP
                          M     if (PREV_ALT != 0)
                          M         bcf     WDTCON, ADSHR
                          M PREV_ALT = 0
                          M     endif
                          M     if (PREV_BANK != 0)
                          M         movlb   0
                          M PREV_BANK = 0
                          M     endif
                          M 
                          M     ifdef USE_LINKER
                          M         call    SEROUT
                          M     else
                          M       if ((SEROUT) < 1)
                          M         call    SEROUT
                          M       else
                          M         if ((SEROUT) > $)
                          M         call    SEROUT
                          M         else
                          M           if ((SEROUT) < ($ - 3ffh))
00068A EC4B F000          M         call    SEROUT
                          M           else
                          M         rcall   SEROUT
                          M           endif
                          M         endif
                          M       endif
                          M     endif
                      01934         SEROUTD?C       _majorVer
                          M     if ((_majorVer) < 100h)
MPASM 5.81                   PICKBYLIGHT.ASM   1-20-2021  23:46:00         PAGE 101


LOC  OBJECT CODE     LINE SOURCE TEXT
  VALUE

                          M         MOVE?CA _majorVer
00068E 0E01               M         movlw   low (_majorVer)
                          M         L?CALL  SEROUTDEC
                          M         RST?RP
                          M     if (PREV_ALT != 0)
                          M         bcf     WDTCON, ADSHR
                          M PREV_ALT = 0
                          M     endif
                          M     if (PREV_BANK != 0)
                          M         movlb   0
                          M PREV_BANK = 0
                          M     endif
                          M 
                          M     ifdef USE_LINKER
                          M         call    SEROUTDEC
                          M     else
                          M       if ((SEROUTDEC) < 1)
                          M         call    SEROUTDEC
                          M       else
                          M         if ((SEROUTDEC) > $)
                          M         call    SEROUTDEC
                          M         else
                          M           if ((SEROUTDEC) < ($ - 3ffh))
000690 EC2C F000          M         call    SEROUTDEC
                          M           else
                          M         rcall   SEROUTDEC
                          M           endif
                          M         endif
                          M       endif
                          M     endif
                          M     else
                          M         MOVE?CB (_majorVer) >> 8, R2 + 1
                          M         MOVE?CA low (_majorVer)
                          M         L?CALL  SEROUTDECL
                          M     endif
                      01935         SEROUT?C        02Eh
000694 0E2E               M         movlw   02Eh
                          M         L?CALL  SEROUT
                          M         RST?RP
                          M     if (PREV_ALT != 0)
                          M         bcf     WDTCON, ADSHR
                          M PREV_ALT = 0
                          M     endif
                          M     if (PREV_BANK != 0)
                          M         movlb   0
                          M PREV_BANK = 0
                          M     endif
                          M 
                          M     ifdef USE_LINKER
                          M         call    SEROUT
                          M     else
                          M       if ((SEROUT) < 1)
                          M         call    SEROUT
MPASM 5.81                   PICKBYLIGHT.ASM   1-20-2021  23:46:00         PAGE 102


LOC  OBJECT CODE     LINE SOURCE TEXT
  VALUE

                          M       else
                          M         if ((SEROUT) > $)
                          M         call    SEROUT
                          M         else
                          M           if ((SEROUT) < ($ - 3ffh))
000696 EC4B F000          M         call    SEROUT
                          M           else
                          M         rcall   SEROUT
                          M           endif
                          M         endif
                          M       endif
                          M     endif
                      01936         SEROUTD?C       _revisionVer
                          M     if ((_revisionVer) < 100h)
                          M         MOVE?CA _revisionVer
00069A 0E05               M         movlw   low (_revisionVer)
                          M         L?CALL  SEROUTDEC
                          M         RST?RP
                          M     if (PREV_ALT != 0)
                          M         bcf     WDTCON, ADSHR
                          M PREV_ALT = 0
                          M     endif
                          M     if (PREV_BANK != 0)
                          M         movlb   0
                          M PREV_BANK = 0
                          M     endif
                          M 
                          M     ifdef USE_LINKER
                          M         call    SEROUTDEC
                          M     else
                          M       if ((SEROUTDEC) < 1)
                          M         call    SEROUTDEC
                          M       else
                          M         if ((SEROUTDEC) > $)
                          M         call    SEROUTDEC
                          M         else
                          M           if ((SEROUTDEC) < ($ - 3ffh))
00069C EC2C F000          M         call    SEROUTDEC
                          M           else
                          M         rcall   SEROUTDEC
                          M           endif
                          M         endif
                          M       endif
                          M     endif
                          M     else
                          M         MOVE?CB (_revisionVer) >> 8, R2 + 1
                          M         MOVE?CA low (_revisionVer)
                          M         L?CALL  SEROUTDECL
                          M     endif
                      01937         SEROUT?C        00Dh
0006A0 0E0D               M         movlw   00Dh
                          M         L?CALL  SEROUT
                          M         RST?RP
MPASM 5.81                   PICKBYLIGHT.ASM   1-20-2021  23:46:00         PAGE 103


LOC  OBJECT CODE     LINE SOURCE TEXT
  VALUE

                          M     if (PREV_ALT != 0)
                          M         bcf     WDTCON, ADSHR
                          M PREV_ALT = 0
                          M     endif
                          M     if (PREV_BANK != 0)
                          M         movlb   0
                          M PREV_BANK = 0
                          M     endif
                          M 
                          M     ifdef USE_LINKER
                          M         call    SEROUT
                          M     else
                          M       if ((SEROUT) < 1)
                          M         call    SEROUT
                          M       else
                          M         if ((SEROUT) > $)
                          M         call    SEROUT
                          M         else
                          M           if ((SEROUT) < ($ - 3ffh))
0006A2 EC4B F000          M         call    SEROUT
                          M           else
                          M         rcall   SEROUT
                          M           endif
                          M         endif
                          M       endif
                          M     endif
                      01938         SEROUT?C        00Ah
0006A6 0E0A               M         movlw   00Ah
                          M         L?CALL  SEROUT
                          M         RST?RP
                          M     if (PREV_ALT != 0)
                          M         bcf     WDTCON, ADSHR
                          M PREV_ALT = 0
                          M     endif
                          M     if (PREV_BANK != 0)
                          M         movlb   0
                          M PREV_BANK = 0
                          M     endif
                          M 
                          M     ifdef USE_LINKER
                          M         call    SEROUT
                          M     else
                          M       if ((SEROUT) < 1)
                          M         call    SEROUT
                          M       else
                          M         if ((SEROUT) > $)
                          M         call    SEROUT
                          M         else
                          M           if ((SEROUT) < ($ - 3ffh))
0006A8 EC4B F000          M         call    SEROUT
                          M           else
                          M         rcall   SEROUT
                          M           endif
MPASM 5.81                   PICKBYLIGHT.ASM   1-20-2021  23:46:00         PAGE 104


LOC  OBJECT CODE     LINE SOURCE TEXT
  VALUE

                          M         endif
                          M       endif
                          M     endif
                      01939 
                      01940 ; C:\USERS\DMILOSAVLJEVIC\DOCUMENTS\PROJECT\TECOMATIC\PICKBYLIGHT\PICKBYLIGHT.PBP       00106       SERO
                            UT _rs232Tx,rs232_bps,["Tecomatic.net - Novi Sad",13,10]
                      01941         SERPIN?T        __rs232Tx
                          M         BIT?R1  PORTD, 007h
0006AC 0E83               M         movlw   low ((PORTD) + ((007h)  >> 3))
                          M         CHK?RP  RR1
                          M     if (((RR1)   & 8000h) != PREV_ALT)
                          M       if ((RR1)   & 8000h)
                          M         bsf     WDTCON, ADSHR
                          M       else
                          M         bcf     WDTCON, ADSHR
                          M       endif
                          M PREV_ALT = (RR1)   & 8000h
                          M     endif
                          M     if ((((RR1)   & 0fffh) > BANKA_END) & (((RR1)   & 0fffh) < (0f01h + BANKA_END)))
                          M       if (((RR1)   & 0f00h) != (PREV_BANK << 8))
                          M         movlb   high (RR1)
                          M PREV_BANK = high (RR1)
                          M       endif
                          M     endif
0006AE 6E1F               M         movwf   RR1
0006B0 0E0F               M         movlw   high ((PORTD) + ((007h)  >> 3))
0006B2 6E21               M         movwf   RS1
                          M         BIT?W   007h
                          M     if (((007h)  & 7) == 0)
                          M         movlw   01h
                          M     endif
                          M     if (((007h)  & 7) == 1)
                          M         movlw   02h
                          M     endif
                          M     if (((007h)  & 7) == 2)
                          M         movlw   04h
                          M     endif
                          M     if (((007h)  & 7) == 3)
                          M         movlw   08h
                          M     endif
                          M     if (((007h)  & 7) == 4)
                          M         movlw   10h
                          M     endif
                          M     if (((007h)  & 7) == 5)
                          M         movlw   20h
                          M     endif
                          M     if (((007h)  & 7) == 6)
                          M         movlw   40h
                          M     endif
                          M     if (((007h)  & 7) == 7)
0006B4 0E80               M         movlw   80h
                          M     endif
0006B6 6E1D               M         movwf   RM1
MPASM 5.81                   PICKBYLIGHT.ASM   1-20-2021  23:46:00         PAGE 105


LOC  OBJECT CODE     LINE SOURCE TEXT
  VALUE

                      01942         SERMODE?C       _rs232_bps
                          M         MOVE?CB _rs232_bps, GOP
                          M         CHK?RP  GOP
                          M     if (((GOP)   & 8000h) != PREV_ALT)
                          M       if ((GOP)   & 8000h)
                          M         bsf     WDTCON, ADSHR
                          M       else
                          M         bcf     WDTCON, ADSHR
                          M       endif
                          M PREV_ALT = (GOP)   & 8000h
                          M     endif
                          M     if ((((GOP)   & 0fffh) > BANKA_END) & (((GOP)   & 0fffh) < (0f01h + BANKA_END)))
                          M       if (((GOP)   & 0f00h) != (PREV_BANK << 8))
                          M         movlb   high (GOP)
                          M PREV_BANK = high (GOP)
                          M       endif
                          M     endif
                          M     if (low (_rs232_bps) == 0)
                          M         clrf    GOP
                          M     else
                          M       if (low (_rs232_bps) == 255)
                          M         setf    GOP
                          M       else
0006B8 0E06               M         movlw   low (_rs232_bps)
0006BA 6E01               M         movwf   GOP
                          M       endif
                          M     endif
                      01943         SEROUT?C        054h
0006BC 0E54               M         movlw   054h
                          M         L?CALL  SEROUT
                          M         RST?RP
                          M     if (PREV_ALT != 0)
                          M         bcf     WDTCON, ADSHR
                          M PREV_ALT = 0
                          M     endif
                          M     if (PREV_BANK != 0)
                          M         movlb   0
                          M PREV_BANK = 0
                          M     endif
                          M 
                          M     ifdef USE_LINKER
                          M         call    SEROUT
                          M     else
                          M       if ((SEROUT) < 1)
                          M         call    SEROUT
                          M       else
                          M         if ((SEROUT) > $)
                          M         call    SEROUT
                          M         else
                          M           if ((SEROUT) < ($ - 3ffh))
0006BE EC4B F000          M         call    SEROUT
                          M           else
                          M         rcall   SEROUT
MPASM 5.81                   PICKBYLIGHT.ASM   1-20-2021  23:46:00         PAGE 106


LOC  OBJECT CODE     LINE SOURCE TEXT
  VALUE

                          M           endif
                          M         endif
                          M       endif
                          M     endif
                      01944         SEROUT?C        065h
0006C2 0E65               M         movlw   065h
                          M         L?CALL  SEROUT
                          M         RST?RP
                          M     if (PREV_ALT != 0)
                          M         bcf     WDTCON, ADSHR
                          M PREV_ALT = 0
                          M     endif
                          M     if (PREV_BANK != 0)
                          M         movlb   0
                          M PREV_BANK = 0
                          M     endif
                          M 
                          M     ifdef USE_LINKER
                          M         call    SEROUT
                          M     else
                          M       if ((SEROUT) < 1)
                          M         call    SEROUT
                          M       else
                          M         if ((SEROUT) > $)
                          M         call    SEROUT
                          M         else
                          M           if ((SEROUT) < ($ - 3ffh))
0006C4 EC4B F000          M         call    SEROUT
                          M           else
                          M         rcall   SEROUT
                          M           endif
                          M         endif
                          M       endif
                          M     endif
                      01945         SEROUT?C        063h
0006C8 0E63               M         movlw   063h
                          M         L?CALL  SEROUT
                          M         RST?RP
                          M     if (PREV_ALT != 0)
                          M         bcf     WDTCON, ADSHR
                          M PREV_ALT = 0
                          M     endif
                          M     if (PREV_BANK != 0)
                          M         movlb   0
                          M PREV_BANK = 0
                          M     endif
                          M 
                          M     ifdef USE_LINKER
                          M         call    SEROUT
                          M     else
                          M       if ((SEROUT) < 1)
                          M         call    SEROUT
                          M       else
MPASM 5.81                   PICKBYLIGHT.ASM   1-20-2021  23:46:00         PAGE 107


LOC  OBJECT CODE     LINE SOURCE TEXT
  VALUE

                          M         if ((SEROUT) > $)
                          M         call    SEROUT
                          M         else
                          M           if ((SEROUT) < ($ - 3ffh))
0006CA EC4B F000          M         call    SEROUT
                          M           else
                          M         rcall   SEROUT
                          M           endif
                          M         endif
                          M       endif
                          M     endif
                      01946         SEROUT?C        06Fh
0006CE 0E6F               M         movlw   06Fh
                          M         L?CALL  SEROUT
                          M         RST?RP
                          M     if (PREV_ALT != 0)
                          M         bcf     WDTCON, ADSHR
                          M PREV_ALT = 0
                          M     endif
                          M     if (PREV_BANK != 0)
                          M         movlb   0
                          M PREV_BANK = 0
                          M     endif
                          M 
                          M     ifdef USE_LINKER
                          M         call    SEROUT
                          M     else
                          M       if ((SEROUT) < 1)
                          M         call    SEROUT
                          M       else
                          M         if ((SEROUT) > $)
                          M         call    SEROUT
                          M         else
                          M           if ((SEROUT) < ($ - 3ffh))
0006D0 EC4B F000          M         call    SEROUT
                          M           else
                          M         rcall   SEROUT
                          M           endif
                          M         endif
                          M       endif
                          M     endif
                      01947         SEROUT?C        06Dh
0006D4 0E6D               M         movlw   06Dh
                          M         L?CALL  SEROUT
                          M         RST?RP
                          M     if (PREV_ALT != 0)
                          M         bcf     WDTCON, ADSHR
                          M PREV_ALT = 0
                          M     endif
                          M     if (PREV_BANK != 0)
                          M         movlb   0
                          M PREV_BANK = 0
                          M     endif
MPASM 5.81                   PICKBYLIGHT.ASM   1-20-2021  23:46:00         PAGE 108


LOC  OBJECT CODE     LINE SOURCE TEXT
  VALUE

                          M 
                          M     ifdef USE_LINKER
                          M         call    SEROUT
                          M     else
                          M       if ((SEROUT) < 1)
                          M         call    SEROUT
                          M       else
                          M         if ((SEROUT) > $)
                          M         call    SEROUT
                          M         else
                          M           if ((SEROUT) < ($ - 3ffh))
0006D6 EC4B F000          M         call    SEROUT
                          M           else
                          M         rcall   SEROUT
                          M           endif
                          M         endif
                          M       endif
                          M     endif
                      01948         SEROUT?C        061h
0006DA 0E61               M         movlw   061h
                          M         L?CALL  SEROUT
                          M         RST?RP
                          M     if (PREV_ALT != 0)
                          M         bcf     WDTCON, ADSHR
                          M PREV_ALT = 0
                          M     endif
                          M     if (PREV_BANK != 0)
                          M         movlb   0
                          M PREV_BANK = 0
                          M     endif
                          M 
                          M     ifdef USE_LINKER
                          M         call    SEROUT
                          M     else
                          M       if ((SEROUT) < 1)
                          M         call    SEROUT
                          M       else
                          M         if ((SEROUT) > $)
                          M         call    SEROUT
                          M         else
                          M           if ((SEROUT) < ($ - 3ffh))
0006DC EC4B F000          M         call    SEROUT
                          M           else
                          M         rcall   SEROUT
                          M           endif
                          M         endif
                          M       endif
                          M     endif
                      01949         SEROUT?C        074h
0006E0 0E74               M         movlw   074h
                          M         L?CALL  SEROUT
                          M         RST?RP
                          M     if (PREV_ALT != 0)
MPASM 5.81                   PICKBYLIGHT.ASM   1-20-2021  23:46:00         PAGE 109


LOC  OBJECT CODE     LINE SOURCE TEXT
  VALUE

                          M         bcf     WDTCON, ADSHR
                          M PREV_ALT = 0
                          M     endif
                          M     if (PREV_BANK != 0)
                          M         movlb   0
                          M PREV_BANK = 0
                          M     endif
                          M 
                          M     ifdef USE_LINKER
                          M         call    SEROUT
                          M     else
                          M       if ((SEROUT) < 1)
                          M         call    SEROUT
                          M       else
                          M         if ((SEROUT) > $)
                          M         call    SEROUT
                          M         else
                          M           if ((SEROUT) < ($ - 3ffh))
0006E2 EC4B F000          M         call    SEROUT
                          M           else
                          M         rcall   SEROUT
                          M           endif
                          M         endif
                          M       endif
                          M     endif
                      01950         SEROUT?C        069h
0006E6 0E69               M         movlw   069h
                          M         L?CALL  SEROUT
                          M         RST?RP
                          M     if (PREV_ALT != 0)
                          M         bcf     WDTCON, ADSHR
                          M PREV_ALT = 0
                          M     endif
                          M     if (PREV_BANK != 0)
                          M         movlb   0
                          M PREV_BANK = 0
                          M     endif
                          M 
                          M     ifdef USE_LINKER
                          M         call    SEROUT
                          M     else
                          M       if ((SEROUT) < 1)
                          M         call    SEROUT
                          M       else
                          M         if ((SEROUT) > $)
                          M         call    SEROUT
                          M         else
                          M           if ((SEROUT) < ($ - 3ffh))
0006E8 EC4B F000          M         call    SEROUT
                          M           else
                          M         rcall   SEROUT
                          M           endif
                          M         endif
MPASM 5.81                   PICKBYLIGHT.ASM   1-20-2021  23:46:00         PAGE 110


LOC  OBJECT CODE     LINE SOURCE TEXT
  VALUE

                          M       endif
                          M     endif
                      01951         SEROUT?C        063h
0006EC 0E63               M         movlw   063h
                          M         L?CALL  SEROUT
                          M         RST?RP
                          M     if (PREV_ALT != 0)
                          M         bcf     WDTCON, ADSHR
                          M PREV_ALT = 0
                          M     endif
                          M     if (PREV_BANK != 0)
                          M         movlb   0
                          M PREV_BANK = 0
                          M     endif
                          M 
                          M     ifdef USE_LINKER
                          M         call    SEROUT
                          M     else
                          M       if ((SEROUT) < 1)
                          M         call    SEROUT
                          M       else
                          M         if ((SEROUT) > $)
                          M         call    SEROUT
                          M         else
                          M           if ((SEROUT) < ($ - 3ffh))
0006EE EC4B F000          M         call    SEROUT
                          M           else
                          M         rcall   SEROUT
                          M           endif
                          M         endif
                          M       endif
                          M     endif
                      01952         SEROUT?C        02Eh
0006F2 0E2E               M         movlw   02Eh
                          M         L?CALL  SEROUT
                          M         RST?RP
                          M     if (PREV_ALT != 0)
                          M         bcf     WDTCON, ADSHR
                          M PREV_ALT = 0
                          M     endif
                          M     if (PREV_BANK != 0)
                          M         movlb   0
                          M PREV_BANK = 0
                          M     endif
                          M 
                          M     ifdef USE_LINKER
                          M         call    SEROUT
                          M     else
                          M       if ((SEROUT) < 1)
                          M         call    SEROUT
                          M       else
                          M         if ((SEROUT) > $)
                          M         call    SEROUT
MPASM 5.81                   PICKBYLIGHT.ASM   1-20-2021  23:46:00         PAGE 111


LOC  OBJECT CODE     LINE SOURCE TEXT
  VALUE

                          M         else
                          M           if ((SEROUT) < ($ - 3ffh))
0006F4 EC4B F000          M         call    SEROUT
                          M           else
                          M         rcall   SEROUT
                          M           endif
                          M         endif
                          M       endif
                          M     endif
                      01953         SEROUT?C        06Eh
0006F8 0E6E               M         movlw   06Eh
                          M         L?CALL  SEROUT
                          M         RST?RP
                          M     if (PREV_ALT != 0)
                          M         bcf     WDTCON, ADSHR
                          M PREV_ALT = 0
                          M     endif
                          M     if (PREV_BANK != 0)
                          M         movlb   0
                          M PREV_BANK = 0
                          M     endif
                          M 
                          M     ifdef USE_LINKER
                          M         call    SEROUT
                          M     else
                          M       if ((SEROUT) < 1)
                          M         call    SEROUT
                          M       else
                          M         if ((SEROUT) > $)
                          M         call    SEROUT
                          M         else
                          M           if ((SEROUT) < ($ - 3ffh))
0006FA EC4B F000          M         call    SEROUT
                          M           else
                          M         rcall   SEROUT
                          M           endif
                          M         endif
                          M       endif
                          M     endif
                      01954         SEROUT?C        065h
0006FE 0E65               M         movlw   065h
                          M         L?CALL  SEROUT
                          M         RST?RP
                          M     if (PREV_ALT != 0)
                          M         bcf     WDTCON, ADSHR
                          M PREV_ALT = 0
                          M     endif
                          M     if (PREV_BANK != 0)
                          M         movlb   0
                          M PREV_BANK = 0
                          M     endif
                          M 
                          M     ifdef USE_LINKER
MPASM 5.81                   PICKBYLIGHT.ASM   1-20-2021  23:46:00         PAGE 112


LOC  OBJECT CODE     LINE SOURCE TEXT
  VALUE

                          M         call    SEROUT
                          M     else
                          M       if ((SEROUT) < 1)
                          M         call    SEROUT
                          M       else
                          M         if ((SEROUT) > $)
                          M         call    SEROUT
                          M         else
                          M           if ((SEROUT) < ($ - 3ffh))
000700 EC4B F000          M         call    SEROUT
                          M           else
                          M         rcall   SEROUT
                          M           endif
                          M         endif
                          M       endif
                          M     endif
                      01955         SEROUT?C        074h
000704 0E74               M         movlw   074h
                          M         L?CALL  SEROUT
                          M         RST?RP
                          M     if (PREV_ALT != 0)
                          M         bcf     WDTCON, ADSHR
                          M PREV_ALT = 0
                          M     endif
                          M     if (PREV_BANK != 0)
                          M         movlb   0
                          M PREV_BANK = 0
                          M     endif
                          M 
                          M     ifdef USE_LINKER
                          M         call    SEROUT
                          M     else
                          M       if ((SEROUT) < 1)
                          M         call    SEROUT
                          M       else
                          M         if ((SEROUT) > $)
                          M         call    SEROUT
                          M         else
                          M           if ((SEROUT) < ($ - 3ffh))
000706 EC4B F000          M         call    SEROUT
                          M           else
                          M         rcall   SEROUT
                          M           endif
                          M         endif
                          M       endif
                          M     endif
                      01956         SEROUT?C        020h
00070A 0E20               M         movlw   020h
                          M         L?CALL  SEROUT
                          M         RST?RP
                          M     if (PREV_ALT != 0)
                          M         bcf     WDTCON, ADSHR
                          M PREV_ALT = 0
MPASM 5.81                   PICKBYLIGHT.ASM   1-20-2021  23:46:00         PAGE 113


LOC  OBJECT CODE     LINE SOURCE TEXT
  VALUE

                          M     endif
                          M     if (PREV_BANK != 0)
                          M         movlb   0
                          M PREV_BANK = 0
                          M     endif
                          M 
                          M     ifdef USE_LINKER
                          M         call    SEROUT
                          M     else
                          M       if ((SEROUT) < 1)
                          M         call    SEROUT
                          M       else
                          M         if ((SEROUT) > $)
                          M         call    SEROUT
                          M         else
                          M           if ((SEROUT) < ($ - 3ffh))
00070C EC4B F000          M         call    SEROUT
                          M           else
                          M         rcall   SEROUT
                          M           endif
                          M         endif
                          M       endif
                          M     endif
                      01957         SEROUT?C        02Dh
000710 0E2D               M         movlw   02Dh
                          M         L?CALL  SEROUT
                          M         RST?RP
                          M     if (PREV_ALT != 0)
                          M         bcf     WDTCON, ADSHR
                          M PREV_ALT = 0
                          M     endif
                          M     if (PREV_BANK != 0)
                          M         movlb   0
                          M PREV_BANK = 0
                          M     endif
                          M 
                          M     ifdef USE_LINKER
                          M         call    SEROUT
                          M     else
                          M       if ((SEROUT) < 1)
                          M         call    SEROUT
                          M       else
                          M         if ((SEROUT) > $)
                          M         call    SEROUT
                          M         else
                          M           if ((SEROUT) < ($ - 3ffh))
000712 EC4B F000          M         call    SEROUT
                          M           else
                          M         rcall   SEROUT
                          M           endif
                          M         endif
                          M       endif
                          M     endif
MPASM 5.81                   PICKBYLIGHT.ASM   1-20-2021  23:46:00         PAGE 114


LOC  OBJECT CODE     LINE SOURCE TEXT
  VALUE

                      01958         SEROUT?C        020h
000716 0E20               M         movlw   020h
                          M         L?CALL  SEROUT
                          M         RST?RP
                          M     if (PREV_ALT != 0)
                          M         bcf     WDTCON, ADSHR
                          M PREV_ALT = 0
                          M     endif
                          M     if (PREV_BANK != 0)
                          M         movlb   0
                          M PREV_BANK = 0
                          M     endif
                          M 
                          M     ifdef USE_LINKER
                          M         call    SEROUT
                          M     else
                          M       if ((SEROUT) < 1)
                          M         call    SEROUT
                          M       else
                          M         if ((SEROUT) > $)
                          M         call    SEROUT
                          M         else
                          M           if ((SEROUT) < ($ - 3ffh))
000718 EC4B F000          M         call    SEROUT
                          M           else
                          M         rcall   SEROUT
                          M           endif
                          M         endif
                          M       endif
                          M     endif
                      01959         SEROUT?C        04Eh
00071C 0E4E               M         movlw   04Eh
                          M         L?CALL  SEROUT
                          M         RST?RP
                          M     if (PREV_ALT != 0)
                          M         bcf     WDTCON, ADSHR
                          M PREV_ALT = 0
                          M     endif
                          M     if (PREV_BANK != 0)
                          M         movlb   0
                          M PREV_BANK = 0
                          M     endif
                          M 
                          M     ifdef USE_LINKER
                          M         call    SEROUT
                          M     else
                          M       if ((SEROUT) < 1)
                          M         call    SEROUT
                          M       else
                          M         if ((SEROUT) > $)
                          M         call    SEROUT
                          M         else
                          M           if ((SEROUT) < ($ - 3ffh))
MPASM 5.81                   PICKBYLIGHT.ASM   1-20-2021  23:46:00         PAGE 115


LOC  OBJECT CODE     LINE SOURCE TEXT
  VALUE

00071E EC4B F000          M         call    SEROUT
                          M           else
                          M         rcall   SEROUT
                          M           endif
                          M         endif
                          M       endif
                          M     endif
                      01960         SEROUT?C        06Fh
000722 0E6F               M         movlw   06Fh
                          M         L?CALL  SEROUT
                          M         RST?RP
                          M     if (PREV_ALT != 0)
                          M         bcf     WDTCON, ADSHR
                          M PREV_ALT = 0
                          M     endif
                          M     if (PREV_BANK != 0)
                          M         movlb   0
                          M PREV_BANK = 0
                          M     endif
                          M 
                          M     ifdef USE_LINKER
                          M         call    SEROUT
                          M     else
                          M       if ((SEROUT) < 1)
                          M         call    SEROUT
                          M       else
                          M         if ((SEROUT) > $)
                          M         call    SEROUT
                          M         else
                          M           if ((SEROUT) < ($ - 3ffh))
000724 EC4B F000          M         call    SEROUT
                          M           else
                          M         rcall   SEROUT
                          M           endif
                          M         endif
                          M       endif
                          M     endif
                      01961         SEROUT?C        076h
000728 0E76               M         movlw   076h
                          M         L?CALL  SEROUT
                          M         RST?RP
                          M     if (PREV_ALT != 0)
                          M         bcf     WDTCON, ADSHR
                          M PREV_ALT = 0
                          M     endif
                          M     if (PREV_BANK != 0)
                          M         movlb   0
                          M PREV_BANK = 0
                          M     endif
                          M 
                          M     ifdef USE_LINKER
                          M         call    SEROUT
                          M     else
MPASM 5.81                   PICKBYLIGHT.ASM   1-20-2021  23:46:00         PAGE 116


LOC  OBJECT CODE     LINE SOURCE TEXT
  VALUE

                          M       if ((SEROUT) < 1)
                          M         call    SEROUT
                          M       else
                          M         if ((SEROUT) > $)
                          M         call    SEROUT
                          M         else
                          M           if ((SEROUT) < ($ - 3ffh))
00072A EC4B F000          M         call    SEROUT
                          M           else
                          M         rcall   SEROUT
                          M           endif
                          M         endif
                          M       endif
                          M     endif
                      01962         SEROUT?C        069h
00072E 0E69               M         movlw   069h
                          M         L?CALL  SEROUT
                          M         RST?RP
                          M     if (PREV_ALT != 0)
                          M         bcf     WDTCON, ADSHR
                          M PREV_ALT = 0
                          M     endif
                          M     if (PREV_BANK != 0)
                          M         movlb   0
                          M PREV_BANK = 0
                          M     endif
                          M 
                          M     ifdef USE_LINKER
                          M         call    SEROUT
                          M     else
                          M       if ((SEROUT) < 1)
                          M         call    SEROUT
                          M       else
                          M         if ((SEROUT) > $)
                          M         call    SEROUT
                          M         else
                          M           if ((SEROUT) < ($ - 3ffh))
000730 EC4B F000          M         call    SEROUT
                          M           else
                          M         rcall   SEROUT
                          M           endif
                          M         endif
                          M       endif
                          M     endif
                      01963         SEROUT?C        020h
000734 0E20               M         movlw   020h
                          M         L?CALL  SEROUT
                          M         RST?RP
                          M     if (PREV_ALT != 0)
                          M         bcf     WDTCON, ADSHR
                          M PREV_ALT = 0
                          M     endif
                          M     if (PREV_BANK != 0)
MPASM 5.81                   PICKBYLIGHT.ASM   1-20-2021  23:46:00         PAGE 117


LOC  OBJECT CODE     LINE SOURCE TEXT
  VALUE

                          M         movlb   0
                          M PREV_BANK = 0
                          M     endif
                          M 
                          M     ifdef USE_LINKER
                          M         call    SEROUT
                          M     else
                          M       if ((SEROUT) < 1)
                          M         call    SEROUT
                          M       else
                          M         if ((SEROUT) > $)
                          M         call    SEROUT
                          M         else
                          M           if ((SEROUT) < ($ - 3ffh))
000736 EC4B F000          M         call    SEROUT
                          M           else
                          M         rcall   SEROUT
                          M           endif
                          M         endif
                          M       endif
                          M     endif
                      01964         SEROUT?C        053h
00073A 0E53               M         movlw   053h
                          M         L?CALL  SEROUT
                          M         RST?RP
                          M     if (PREV_ALT != 0)
                          M         bcf     WDTCON, ADSHR
                          M PREV_ALT = 0
                          M     endif
                          M     if (PREV_BANK != 0)
                          M         movlb   0
                          M PREV_BANK = 0
                          M     endif
                          M 
                          M     ifdef USE_LINKER
                          M         call    SEROUT
                          M     else
                          M       if ((SEROUT) < 1)
                          M         call    SEROUT
                          M       else
                          M         if ((SEROUT) > $)
                          M         call    SEROUT
                          M         else
                          M           if ((SEROUT) < ($ - 3ffh))
00073C EC4B F000          M         call    SEROUT
                          M           else
                          M         rcall   SEROUT
                          M           endif
                          M         endif
                          M       endif
                          M     endif
                      01965         SEROUT?C        061h
000740 0E61               M         movlw   061h
MPASM 5.81                   PICKBYLIGHT.ASM   1-20-2021  23:46:00         PAGE 118


LOC  OBJECT CODE     LINE SOURCE TEXT
  VALUE

                          M         L?CALL  SEROUT
                          M         RST?RP
                          M     if (PREV_ALT != 0)
                          M         bcf     WDTCON, ADSHR
                          M PREV_ALT = 0
                          M     endif
                          M     if (PREV_BANK != 0)
                          M         movlb   0
                          M PREV_BANK = 0
                          M     endif
                          M 
                          M     ifdef USE_LINKER
                          M         call    SEROUT
                          M     else
                          M       if ((SEROUT) < 1)
                          M         call    SEROUT
                          M       else
                          M         if ((SEROUT) > $)
                          M         call    SEROUT
                          M         else
                          M           if ((SEROUT) < ($ - 3ffh))
000742 EC4B F000          M         call    SEROUT
                          M           else
                          M         rcall   SEROUT
                          M           endif
                          M         endif
                          M       endif
                          M     endif
                      01966         SEROUT?C        064h
000746 0E64               M         movlw   064h
                          M         L?CALL  SEROUT
                          M         RST?RP
                          M     if (PREV_ALT != 0)
                          M         bcf     WDTCON, ADSHR
                          M PREV_ALT = 0
                          M     endif
                          M     if (PREV_BANK != 0)
                          M         movlb   0
                          M PREV_BANK = 0
                          M     endif
                          M 
                          M     ifdef USE_LINKER
                          M         call    SEROUT
                          M     else
                          M       if ((SEROUT) < 1)
                          M         call    SEROUT
                          M       else
                          M         if ((SEROUT) > $)
                          M         call    SEROUT
                          M         else
                          M           if ((SEROUT) < ($ - 3ffh))
000748 EC4B F000          M         call    SEROUT
                          M           else
MPASM 5.81                   PICKBYLIGHT.ASM   1-20-2021  23:46:00         PAGE 119


LOC  OBJECT CODE     LINE SOURCE TEXT
  VALUE

                          M         rcall   SEROUT
                          M           endif
                          M         endif
                          M       endif
                          M     endif
                      01967         SEROUT?C        00Dh
00074C 0E0D               M         movlw   00Dh
                          M         L?CALL  SEROUT
                          M         RST?RP
                          M     if (PREV_ALT != 0)
                          M         bcf     WDTCON, ADSHR
                          M PREV_ALT = 0
                          M     endif
                          M     if (PREV_BANK != 0)
                          M         movlb   0
                          M PREV_BANK = 0
                          M     endif
                          M 
                          M     ifdef USE_LINKER
                          M         call    SEROUT
                          M     else
                          M       if ((SEROUT) < 1)
                          M         call    SEROUT
                          M       else
                          M         if ((SEROUT) > $)
                          M         call    SEROUT
                          M         else
                          M           if ((SEROUT) < ($ - 3ffh))
00074E EC4B F000          M         call    SEROUT
                          M           else
                          M         rcall   SEROUT
                          M           endif
                          M         endif
                          M       endif
                          M     endif
                      01968         SEROUT?C        00Ah
000752 0E0A               M         movlw   00Ah
                          M         L?CALL  SEROUT
                          M         RST?RP
                          M     if (PREV_ALT != 0)
                          M         bcf     WDTCON, ADSHR
                          M PREV_ALT = 0
                          M     endif
                          M     if (PREV_BANK != 0)
                          M         movlb   0
                          M PREV_BANK = 0
                          M     endif
                          M 
                          M     ifdef USE_LINKER
                          M         call    SEROUT
                          M     else
                          M       if ((SEROUT) < 1)
                          M         call    SEROUT
MPASM 5.81                   PICKBYLIGHT.ASM   1-20-2021  23:46:00         PAGE 120


LOC  OBJECT CODE     LINE SOURCE TEXT
  VALUE

                          M       else
                          M         if ((SEROUT) > $)
                          M         call    SEROUT
                          M         else
                          M           if ((SEROUT) < ($ - 3ffh))
000754 EC4B F000          M         call    SEROUT
                          M           else
                          M         rcall   SEROUT
                          M           endif
                          M         endif
                          M       endif
                          M     endif
                      01969 
                      01970 ; C:\USERS\DMILOSAVLJEVIC\DOCUMENTS\PROJECT\TECOMATIC\PICKBYLIGHT\PICKBYLIGHT.PBP       00107       SERO
                            UT _rs232Tx,rs232_bps,["Year: 2021",13,10] 
                      01971         SERPIN?T        __rs232Tx
                          M         BIT?R1  PORTD, 007h
000758 0E83               M         movlw   low ((PORTD) + ((007h)  >> 3))
                          M         CHK?RP  RR1
                          M     if (((RR1)   & 8000h) != PREV_ALT)
                          M       if ((RR1)   & 8000h)
                          M         bsf     WDTCON, ADSHR
                          M       else
                          M         bcf     WDTCON, ADSHR
                          M       endif
                          M PREV_ALT = (RR1)   & 8000h
                          M     endif
                          M     if ((((RR1)   & 0fffh) > BANKA_END) & (((RR1)   & 0fffh) < (0f01h + BANKA_END)))
                          M       if (((RR1)   & 0f00h) != (PREV_BANK << 8))
                          M         movlb   high (RR1)
                          M PREV_BANK = high (RR1)
                          M       endif
                          M     endif
00075A 6E1F               M         movwf   RR1
00075C 0E0F               M         movlw   high ((PORTD) + ((007h)  >> 3))
00075E 6E21               M         movwf   RS1
                          M         BIT?W   007h
                          M     if (((007h)  & 7) == 0)
                          M         movlw   01h
                          M     endif
                          M     if (((007h)  & 7) == 1)
                          M         movlw   02h
                          M     endif
                          M     if (((007h)  & 7) == 2)
                          M         movlw   04h
                          M     endif
                          M     if (((007h)  & 7) == 3)
                          M         movlw   08h
                          M     endif
                          M     if (((007h)  & 7) == 4)
                          M         movlw   10h
                          M     endif
                          M     if (((007h)  & 7) == 5)
MPASM 5.81                   PICKBYLIGHT.ASM   1-20-2021  23:46:00         PAGE 121


LOC  OBJECT CODE     LINE SOURCE TEXT
  VALUE

                          M         movlw   20h
                          M     endif
                          M     if (((007h)  & 7) == 6)
                          M         movlw   40h
                          M     endif
                          M     if (((007h)  & 7) == 7)
000760 0E80               M         movlw   80h
                          M     endif
000762 6E1D               M         movwf   RM1
                      01972         SERMODE?C       _rs232_bps
                          M         MOVE?CB _rs232_bps, GOP
                          M         CHK?RP  GOP
                          M     if (((GOP)   & 8000h) != PREV_ALT)
                          M       if ((GOP)   & 8000h)
                          M         bsf     WDTCON, ADSHR
                          M       else
                          M         bcf     WDTCON, ADSHR
                          M       endif
                          M PREV_ALT = (GOP)   & 8000h
                          M     endif
                          M     if ((((GOP)   & 0fffh) > BANKA_END) & (((GOP)   & 0fffh) < (0f01h + BANKA_END)))
                          M       if (((GOP)   & 0f00h) != (PREV_BANK << 8))
                          M         movlb   high (GOP)
                          M PREV_BANK = high (GOP)
                          M       endif
                          M     endif
                          M     if (low (_rs232_bps) == 0)
                          M         clrf    GOP
                          M     else
                          M       if (low (_rs232_bps) == 255)
                          M         setf    GOP
                          M       else
000764 0E06               M         movlw   low (_rs232_bps)
000766 6E01               M         movwf   GOP
                          M       endif
                          M     endif
                      01973         SEROUT?C        059h
000768 0E59               M         movlw   059h
                          M         L?CALL  SEROUT
                          M         RST?RP
                          M     if (PREV_ALT != 0)
                          M         bcf     WDTCON, ADSHR
                          M PREV_ALT = 0
                          M     endif
                          M     if (PREV_BANK != 0)
                          M         movlb   0
                          M PREV_BANK = 0
                          M     endif
                          M 
                          M     ifdef USE_LINKER
                          M         call    SEROUT
                          M     else
                          M       if ((SEROUT) < 1)
MPASM 5.81                   PICKBYLIGHT.ASM   1-20-2021  23:46:00         PAGE 122


LOC  OBJECT CODE     LINE SOURCE TEXT
  VALUE

                          M         call    SEROUT
                          M       else
                          M         if ((SEROUT) > $)
                          M         call    SEROUT
                          M         else
                          M           if ((SEROUT) < ($ - 3ffh))
00076A EC4B F000          M         call    SEROUT
                          M           else
                          M         rcall   SEROUT
                          M           endif
                          M         endif
                          M       endif
                          M     endif
                      01974         SEROUT?C        065h
00076E 0E65               M         movlw   065h
                          M         L?CALL  SEROUT
                          M         RST?RP
                          M     if (PREV_ALT != 0)
                          M         bcf     WDTCON, ADSHR
                          M PREV_ALT = 0
                          M     endif
                          M     if (PREV_BANK != 0)
                          M         movlb   0
                          M PREV_BANK = 0
                          M     endif
                          M 
                          M     ifdef USE_LINKER
                          M         call    SEROUT
                          M     else
                          M       if ((SEROUT) < 1)
                          M         call    SEROUT
                          M       else
                          M         if ((SEROUT) > $)
                          M         call    SEROUT
                          M         else
                          M           if ((SEROUT) < ($ - 3ffh))
000770 EC4B F000          M         call    SEROUT
                          M           else
                          M         rcall   SEROUT
                          M           endif
                          M         endif
                          M       endif
                          M     endif
                      01975         SEROUT?C        061h
000774 0E61               M         movlw   061h
                          M         L?CALL  SEROUT
                          M         RST?RP
                          M     if (PREV_ALT != 0)
                          M         bcf     WDTCON, ADSHR
                          M PREV_ALT = 0
                          M     endif
                          M     if (PREV_BANK != 0)
                          M         movlb   0
MPASM 5.81                   PICKBYLIGHT.ASM   1-20-2021  23:46:00         PAGE 123


LOC  OBJECT CODE     LINE SOURCE TEXT
  VALUE

                          M PREV_BANK = 0
                          M     endif
                          M 
                          M     ifdef USE_LINKER
                          M         call    SEROUT
                          M     else
                          M       if ((SEROUT) < 1)
                          M         call    SEROUT
                          M       else
                          M         if ((SEROUT) > $)
                          M         call    SEROUT
                          M         else
                          M           if ((SEROUT) < ($ - 3ffh))
000776 EC4B F000          M         call    SEROUT
                          M           else
                          M         rcall   SEROUT
                          M           endif
                          M         endif
                          M       endif
                          M     endif
                      01976         SEROUT?C        072h
00077A 0E72               M         movlw   072h
                          M         L?CALL  SEROUT
                          M         RST?RP
                          M     if (PREV_ALT != 0)
                          M         bcf     WDTCON, ADSHR
                          M PREV_ALT = 0
                          M     endif
                          M     if (PREV_BANK != 0)
                          M         movlb   0
                          M PREV_BANK = 0
                          M     endif
                          M 
                          M     ifdef USE_LINKER
                          M         call    SEROUT
                          M     else
                          M       if ((SEROUT) < 1)
                          M         call    SEROUT
                          M       else
                          M         if ((SEROUT) > $)
                          M         call    SEROUT
                          M         else
                          M           if ((SEROUT) < ($ - 3ffh))
00077C EC4B F000          M         call    SEROUT
                          M           else
                          M         rcall   SEROUT
                          M           endif
                          M         endif
                          M       endif
                          M     endif
                      01977         SEROUT?C        03Ah
000780 0E3A               M         movlw   03Ah
                          M         L?CALL  SEROUT
MPASM 5.81                   PICKBYLIGHT.ASM   1-20-2021  23:46:00         PAGE 124


LOC  OBJECT CODE     LINE SOURCE TEXT
  VALUE

                          M         RST?RP
                          M     if (PREV_ALT != 0)
                          M         bcf     WDTCON, ADSHR
                          M PREV_ALT = 0
                          M     endif
                          M     if (PREV_BANK != 0)
                          M         movlb   0
                          M PREV_BANK = 0
                          M     endif
                          M 
                          M     ifdef USE_LINKER
                          M         call    SEROUT
                          M     else
                          M       if ((SEROUT) < 1)
                          M         call    SEROUT
                          M       else
                          M         if ((SEROUT) > $)
                          M         call    SEROUT
                          M         else
                          M           if ((SEROUT) < ($ - 3ffh))
000782 EC4B F000          M         call    SEROUT
                          M           else
                          M         rcall   SEROUT
                          M           endif
                          M         endif
                          M       endif
                          M     endif
                      01978         SEROUT?C        020h
000786 0E20               M         movlw   020h
                          M         L?CALL  SEROUT
                          M         RST?RP
                          M     if (PREV_ALT != 0)
                          M         bcf     WDTCON, ADSHR
                          M PREV_ALT = 0
                          M     endif
                          M     if (PREV_BANK != 0)
                          M         movlb   0
                          M PREV_BANK = 0
                          M     endif
                          M 
                          M     ifdef USE_LINKER
                          M         call    SEROUT
                          M     else
                          M       if ((SEROUT) < 1)
                          M         call    SEROUT
                          M       else
                          M         if ((SEROUT) > $)
                          M         call    SEROUT
                          M         else
                          M           if ((SEROUT) < ($ - 3ffh))
000788 EC4B F000          M         call    SEROUT
                          M           else
                          M         rcall   SEROUT
MPASM 5.81                   PICKBYLIGHT.ASM   1-20-2021  23:46:00         PAGE 125


LOC  OBJECT CODE     LINE SOURCE TEXT
  VALUE

                          M           endif
                          M         endif
                          M       endif
                          M     endif
                      01979         SEROUT?C        032h
00078C 0E32               M         movlw   032h
                          M         L?CALL  SEROUT
                          M         RST?RP
                          M     if (PREV_ALT != 0)
                          M         bcf     WDTCON, ADSHR
                          M PREV_ALT = 0
                          M     endif
                          M     if (PREV_BANK != 0)
                          M         movlb   0
                          M PREV_BANK = 0
                          M     endif
                          M 
                          M     ifdef USE_LINKER
                          M         call    SEROUT
                          M     else
                          M       if ((SEROUT) < 1)
                          M         call    SEROUT
                          M       else
                          M         if ((SEROUT) > $)
                          M         call    SEROUT
                          M         else
                          M           if ((SEROUT) < ($ - 3ffh))
00078E EC4B F000          M         call    SEROUT
                          M           else
                          M         rcall   SEROUT
                          M           endif
                          M         endif
                          M       endif
                          M     endif
                      01980         SEROUT?C        030h
000792 0E30               M         movlw   030h
                          M         L?CALL  SEROUT
                          M         RST?RP
                          M     if (PREV_ALT != 0)
                          M         bcf     WDTCON, ADSHR
                          M PREV_ALT = 0
                          M     endif
                          M     if (PREV_BANK != 0)
                          M         movlb   0
                          M PREV_BANK = 0
                          M     endif
                          M 
                          M     ifdef USE_LINKER
                          M         call    SEROUT
                          M     else
                          M       if ((SEROUT) < 1)
                          M         call    SEROUT
                          M       else
MPASM 5.81                   PICKBYLIGHT.ASM   1-20-2021  23:46:00         PAGE 126


LOC  OBJECT CODE     LINE SOURCE TEXT
  VALUE

                          M         if ((SEROUT) > $)
                          M         call    SEROUT
                          M         else
                          M           if ((SEROUT) < ($ - 3ffh))
000794 EC4B F000          M         call    SEROUT
                          M           else
                          M         rcall   SEROUT
                          M           endif
                          M         endif
                          M       endif
                          M     endif
                      01981         SEROUT?C        032h
000798 0E32               M         movlw   032h
                          M         L?CALL  SEROUT
                          M         RST?RP
                          M     if (PREV_ALT != 0)
                          M         bcf     WDTCON, ADSHR
                          M PREV_ALT = 0
                          M     endif
                          M     if (PREV_BANK != 0)
                          M         movlb   0
                          M PREV_BANK = 0
                          M     endif
                          M 
                          M     ifdef USE_LINKER
                          M         call    SEROUT
                          M     else
                          M       if ((SEROUT) < 1)
                          M         call    SEROUT
                          M       else
                          M         if ((SEROUT) > $)
                          M         call    SEROUT
                          M         else
                          M           if ((SEROUT) < ($ - 3ffh))
00079A EC4B F000          M         call    SEROUT
                          M           else
                          M         rcall   SEROUT
                          M           endif
                          M         endif
                          M       endif
                          M     endif
                      01982         SEROUT?C        031h
00079E 0E31               M         movlw   031h
                          M         L?CALL  SEROUT
                          M         RST?RP
                          M     if (PREV_ALT != 0)
                          M         bcf     WDTCON, ADSHR
                          M PREV_ALT = 0
                          M     endif
                          M     if (PREV_BANK != 0)
                          M         movlb   0
                          M PREV_BANK = 0
                          M     endif
MPASM 5.81                   PICKBYLIGHT.ASM   1-20-2021  23:46:00         PAGE 127


LOC  OBJECT CODE     LINE SOURCE TEXT
  VALUE

                          M 
                          M     ifdef USE_LINKER
                          M         call    SEROUT
                          M     else
                          M       if ((SEROUT) < 1)
                          M         call    SEROUT
                          M       else
                          M         if ((SEROUT) > $)
                          M         call    SEROUT
                          M         else
                          M           if ((SEROUT) < ($ - 3ffh))
0007A0 EC4B F000          M         call    SEROUT
                          M           else
                          M         rcall   SEROUT
                          M           endif
                          M         endif
                          M       endif
                          M     endif
                      01983         SEROUT?C        00Dh
0007A4 0E0D               M         movlw   00Dh
                          M         L?CALL  SEROUT
                          M         RST?RP
                          M     if (PREV_ALT != 0)
                          M         bcf     WDTCON, ADSHR
                          M PREV_ALT = 0
                          M     endif
                          M     if (PREV_BANK != 0)
                          M         movlb   0
                          M PREV_BANK = 0
                          M     endif
                          M 
                          M     ifdef USE_LINKER
                          M         call    SEROUT
                          M     else
                          M       if ((SEROUT) < 1)
                          M         call    SEROUT
                          M       else
                          M         if ((SEROUT) > $)
                          M         call    SEROUT
                          M         else
                          M           if ((SEROUT) < ($ - 3ffh))
0007A6 EC4B F000          M         call    SEROUT
                          M           else
                          M         rcall   SEROUT
                          M           endif
                          M         endif
                          M       endif
                          M     endif
                      01984         SEROUT?C        00Ah
0007AA 0E0A               M         movlw   00Ah
                          M         L?CALL  SEROUT
                          M         RST?RP
                          M     if (PREV_ALT != 0)
MPASM 5.81                   PICKBYLIGHT.ASM   1-20-2021  23:46:00         PAGE 128


LOC  OBJECT CODE     LINE SOURCE TEXT
  VALUE

                          M         bcf     WDTCON, ADSHR
                          M PREV_ALT = 0
                          M     endif
                          M     if (PREV_BANK != 0)
                          M         movlb   0
                          M PREV_BANK = 0
                          M     endif
                          M 
                          M     ifdef USE_LINKER
                          M         call    SEROUT
                          M     else
                          M       if ((SEROUT) < 1)
                          M         call    SEROUT
                          M       else
                          M         if ((SEROUT) > $)
                          M         call    SEROUT
                          M         else
                          M           if ((SEROUT) < ($ - 3ffh))
0007AC EC4B F000          M         call    SEROUT
                          M           else
                          M         rcall   SEROUT
                          M           endif
                          M         endif
                          M       endif
                          M     endif
                      01985 
                      01986 ; C:\USERS\DMILOSAVLJEVIC\DOCUMENTS\PROJECT\TECOMATIC\PICKBYLIGHT\PICKBYLIGHT.PBP       00108       SERO
                            UT _rs232Tx,rs232_bps,["FW realese: 18.01.2021",13,10] 
                      01987         SERPIN?T        __rs232Tx
                          M         BIT?R1  PORTD, 007h
0007B0 0E83               M         movlw   low ((PORTD) + ((007h)  >> 3))
                          M         CHK?RP  RR1
                          M     if (((RR1)   & 8000h) != PREV_ALT)
                          M       if ((RR1)   & 8000h)
                          M         bsf     WDTCON, ADSHR
                          M       else
                          M         bcf     WDTCON, ADSHR
                          M       endif
                          M PREV_ALT = (RR1)   & 8000h
                          M     endif
                          M     if ((((RR1)   & 0fffh) > BANKA_END) & (((RR1)   & 0fffh) < (0f01h + BANKA_END)))
                          M       if (((RR1)   & 0f00h) != (PREV_BANK << 8))
                          M         movlb   high (RR1)
                          M PREV_BANK = high (RR1)
                          M       endif
                          M     endif
0007B2 6E1F               M         movwf   RR1
0007B4 0E0F               M         movlw   high ((PORTD) + ((007h)  >> 3))
0007B6 6E21               M         movwf   RS1
                          M         BIT?W   007h
                          M     if (((007h)  & 7) == 0)
                          M         movlw   01h
                          M     endif
MPASM 5.81                   PICKBYLIGHT.ASM   1-20-2021  23:46:00         PAGE 129


LOC  OBJECT CODE     LINE SOURCE TEXT
  VALUE

                          M     if (((007h)  & 7) == 1)
                          M         movlw   02h
                          M     endif
                          M     if (((007h)  & 7) == 2)
                          M         movlw   04h
                          M     endif
                          M     if (((007h)  & 7) == 3)
                          M         movlw   08h
                          M     endif
                          M     if (((007h)  & 7) == 4)
                          M         movlw   10h
                          M     endif
                          M     if (((007h)  & 7) == 5)
                          M         movlw   20h
                          M     endif
                          M     if (((007h)  & 7) == 6)
                          M         movlw   40h
                          M     endif
                          M     if (((007h)  & 7) == 7)
0007B8 0E80               M         movlw   80h
                          M     endif
0007BA 6E1D               M         movwf   RM1
                      01988         SERMODE?C       _rs232_bps
                          M         MOVE?CB _rs232_bps, GOP
                          M         CHK?RP  GOP
                          M     if (((GOP)   & 8000h) != PREV_ALT)
                          M       if ((GOP)   & 8000h)
                          M         bsf     WDTCON, ADSHR
                          M       else
                          M         bcf     WDTCON, ADSHR
                          M       endif
                          M PREV_ALT = (GOP)   & 8000h
                          M     endif
                          M     if ((((GOP)   & 0fffh) > BANKA_END) & (((GOP)   & 0fffh) < (0f01h + BANKA_END)))
                          M       if (((GOP)   & 0f00h) != (PREV_BANK << 8))
                          M         movlb   high (GOP)
                          M PREV_BANK = high (GOP)
                          M       endif
                          M     endif
                          M     if (low (_rs232_bps) == 0)
                          M         clrf    GOP
                          M     else
                          M       if (low (_rs232_bps) == 255)
                          M         setf    GOP
                          M       else
0007BC 0E06               M         movlw   low (_rs232_bps)
0007BE 6E01               M         movwf   GOP
                          M       endif
                          M     endif
                      01989         SEROUT?C        046h
0007C0 0E46               M         movlw   046h
                          M         L?CALL  SEROUT
                          M         RST?RP
MPASM 5.81                   PICKBYLIGHT.ASM   1-20-2021  23:46:00         PAGE 130


LOC  OBJECT CODE     LINE SOURCE TEXT
  VALUE

                          M     if (PREV_ALT != 0)
                          M         bcf     WDTCON, ADSHR
                          M PREV_ALT = 0
                          M     endif
                          M     if (PREV_BANK != 0)
                          M         movlb   0
                          M PREV_BANK = 0
                          M     endif
                          M 
                          M     ifdef USE_LINKER
                          M         call    SEROUT
                          M     else
                          M       if ((SEROUT) < 1)
                          M         call    SEROUT
                          M       else
                          M         if ((SEROUT) > $)
                          M         call    SEROUT
                          M         else
                          M           if ((SEROUT) < ($ - 3ffh))
0007C2 EC4B F000          M         call    SEROUT
                          M           else
                          M         rcall   SEROUT
                          M           endif
                          M         endif
                          M       endif
                          M     endif
                      01990         SEROUT?C        057h
0007C6 0E57               M         movlw   057h
                          M         L?CALL  SEROUT
                          M         RST?RP
                          M     if (PREV_ALT != 0)
                          M         bcf     WDTCON, ADSHR
                          M PREV_ALT = 0
                          M     endif
                          M     if (PREV_BANK != 0)
                          M         movlb   0
                          M PREV_BANK = 0
                          M     endif
                          M 
                          M     ifdef USE_LINKER
                          M         call    SEROUT
                          M     else
                          M       if ((SEROUT) < 1)
                          M         call    SEROUT
                          M       else
                          M         if ((SEROUT) > $)
                          M         call    SEROUT
                          M         else
                          M           if ((SEROUT) < ($ - 3ffh))
0007C8 EC4B F000          M         call    SEROUT
                          M           else
                          M         rcall   SEROUT
                          M           endif
MPASM 5.81                   PICKBYLIGHT.ASM   1-20-2021  23:46:00         PAGE 131


LOC  OBJECT CODE     LINE SOURCE TEXT
  VALUE

                          M         endif
                          M       endif
                          M     endif
                      01991         SEROUT?C        020h
0007CC 0E20               M         movlw   020h
                          M         L?CALL  SEROUT
                          M         RST?RP
                          M     if (PREV_ALT != 0)
                          M         bcf     WDTCON, ADSHR
                          M PREV_ALT = 0
                          M     endif
                          M     if (PREV_BANK != 0)
                          M         movlb   0
                          M PREV_BANK = 0
                          M     endif
                          M 
                          M     ifdef USE_LINKER
                          M         call    SEROUT
                          M     else
                          M       if ((SEROUT) < 1)
                          M         call    SEROUT
                          M       else
                          M         if ((SEROUT) > $)
                          M         call    SEROUT
                          M         else
                          M           if ((SEROUT) < ($ - 3ffh))
0007CE EC4B F000          M         call    SEROUT
                          M           else
                          M         rcall   SEROUT
                          M           endif
                          M         endif
                          M       endif
                          M     endif
                      01992         SEROUT?C        072h
0007D2 0E72               M         movlw   072h
                          M         L?CALL  SEROUT
                          M         RST?RP
                          M     if (PREV_ALT != 0)
                          M         bcf     WDTCON, ADSHR
                          M PREV_ALT = 0
                          M     endif
                          M     if (PREV_BANK != 0)
                          M         movlb   0
                          M PREV_BANK = 0
                          M     endif
                          M 
                          M     ifdef USE_LINKER
                          M         call    SEROUT
                          M     else
                          M       if ((SEROUT) < 1)
                          M         call    SEROUT
                          M       else
                          M         if ((SEROUT) > $)
MPASM 5.81                   PICKBYLIGHT.ASM   1-20-2021  23:46:00         PAGE 132


LOC  OBJECT CODE     LINE SOURCE TEXT
  VALUE

                          M         call    SEROUT
                          M         else
                          M           if ((SEROUT) < ($ - 3ffh))
0007D4 EC4B F000          M         call    SEROUT
                          M           else
                          M         rcall   SEROUT
                          M           endif
                          M         endif
                          M       endif
                          M     endif
                      01993         SEROUT?C        065h
0007D8 0E65               M         movlw   065h
                          M         L?CALL  SEROUT
                          M         RST?RP
                          M     if (PREV_ALT != 0)
                          M         bcf     WDTCON, ADSHR
                          M PREV_ALT = 0
                          M     endif
                          M     if (PREV_BANK != 0)
                          M         movlb   0
                          M PREV_BANK = 0
                          M     endif
                          M 
                          M     ifdef USE_LINKER
                          M         call    SEROUT
                          M     else
                          M       if ((SEROUT) < 1)
                          M         call    SEROUT
                          M       else
                          M         if ((SEROUT) > $)
                          M         call    SEROUT
                          M         else
                          M           if ((SEROUT) < ($ - 3ffh))
0007DA EC4B F000          M         call    SEROUT
                          M           else
                          M         rcall   SEROUT
                          M           endif
                          M         endif
                          M       endif
                          M     endif
                      01994         SEROUT?C        061h
0007DE 0E61               M         movlw   061h
                          M         L?CALL  SEROUT
                          M         RST?RP
                          M     if (PREV_ALT != 0)
                          M         bcf     WDTCON, ADSHR
                          M PREV_ALT = 0
                          M     endif
                          M     if (PREV_BANK != 0)
                          M         movlb   0
                          M PREV_BANK = 0
                          M     endif
                          M 
MPASM 5.81                   PICKBYLIGHT.ASM   1-20-2021  23:46:00         PAGE 133


LOC  OBJECT CODE     LINE SOURCE TEXT
  VALUE

                          M     ifdef USE_LINKER
                          M         call    SEROUT
                          M     else
                          M       if ((SEROUT) < 1)
                          M         call    SEROUT
                          M       else
                          M         if ((SEROUT) > $)
                          M         call    SEROUT
                          M         else
                          M           if ((SEROUT) < ($ - 3ffh))
0007E0 EC4B F000          M         call    SEROUT
                          M           else
                          M         rcall   SEROUT
                          M           endif
                          M         endif
                          M       endif
                          M     endif
                      01995         SEROUT?C        06Ch
0007E4 0E6C               M         movlw   06Ch
                          M         L?CALL  SEROUT
                          M         RST?RP
                          M     if (PREV_ALT != 0)
                          M         bcf     WDTCON, ADSHR
                          M PREV_ALT = 0
                          M     endif
                          M     if (PREV_BANK != 0)
                          M         movlb   0
                          M PREV_BANK = 0
                          M     endif
                          M 
                          M     ifdef USE_LINKER
                          M         call    SEROUT
                          M     else
                          M       if ((SEROUT) < 1)
                          M         call    SEROUT
                          M       else
                          M         if ((SEROUT) > $)
                          M         call    SEROUT
                          M         else
                          M           if ((SEROUT) < ($ - 3ffh))
0007E6 EC4B F000          M         call    SEROUT
                          M           else
                          M         rcall   SEROUT
                          M           endif
                          M         endif
                          M       endif
                          M     endif
                      01996         SEROUT?C        065h
0007EA 0E65               M         movlw   065h
                          M         L?CALL  SEROUT
                          M         RST?RP
                          M     if (PREV_ALT != 0)
                          M         bcf     WDTCON, ADSHR
MPASM 5.81                   PICKBYLIGHT.ASM   1-20-2021  23:46:00         PAGE 134


LOC  OBJECT CODE     LINE SOURCE TEXT
  VALUE

                          M PREV_ALT = 0
                          M     endif
                          M     if (PREV_BANK != 0)
                          M         movlb   0
                          M PREV_BANK = 0
                          M     endif
                          M 
                          M     ifdef USE_LINKER
                          M         call    SEROUT
                          M     else
                          M       if ((SEROUT) < 1)
                          M         call    SEROUT
                          M       else
                          M         if ((SEROUT) > $)
                          M         call    SEROUT
                          M         else
                          M           if ((SEROUT) < ($ - 3ffh))
0007EC EC4B F000          M         call    SEROUT
                          M           else
                          M         rcall   SEROUT
                          M           endif
                          M         endif
                          M       endif
                          M     endif
                      01997         SEROUT?C        073h
0007F0 0E73               M         movlw   073h
                          M         L?CALL  SEROUT
                          M         RST?RP
                          M     if (PREV_ALT != 0)
                          M         bcf     WDTCON, ADSHR
                          M PREV_ALT = 0
                          M     endif
                          M     if (PREV_BANK != 0)
                          M         movlb   0
                          M PREV_BANK = 0
                          M     endif
                          M 
                          M     ifdef USE_LINKER
                          M         call    SEROUT
                          M     else
                          M       if ((SEROUT) < 1)
                          M         call    SEROUT
                          M       else
                          M         if ((SEROUT) > $)
                          M         call    SEROUT
                          M         else
                          M           if ((SEROUT) < ($ - 3ffh))
0007F2 EC4B F000          M         call    SEROUT
                          M           else
                          M         rcall   SEROUT
                          M           endif
                          M         endif
                          M       endif
MPASM 5.81                   PICKBYLIGHT.ASM   1-20-2021  23:46:00         PAGE 135


LOC  OBJECT CODE     LINE SOURCE TEXT
  VALUE

                          M     endif
                      01998         SEROUT?C        065h
0007F6 0E65               M         movlw   065h
                          M         L?CALL  SEROUT
                          M         RST?RP
                          M     if (PREV_ALT != 0)
                          M         bcf     WDTCON, ADSHR
                          M PREV_ALT = 0
                          M     endif
                          M     if (PREV_BANK != 0)
                          M         movlb   0
                          M PREV_BANK = 0
                          M     endif
                          M 
                          M     ifdef USE_LINKER
                          M         call    SEROUT
                          M     else
                          M       if ((SEROUT) < 1)
                          M         call    SEROUT
                          M       else
                          M         if ((SEROUT) > $)
                          M         call    SEROUT
                          M         else
                          M           if ((SEROUT) < ($ - 3ffh))
0007F8 EC4B F000          M         call    SEROUT
                          M           else
                          M         rcall   SEROUT
                          M           endif
                          M         endif
                          M       endif
                          M     endif
                      01999         SEROUT?C        03Ah
0007FC 0E3A               M         movlw   03Ah
                          M         L?CALL  SEROUT
                          M         RST?RP
                          M     if (PREV_ALT != 0)
                          M         bcf     WDTCON, ADSHR
                          M PREV_ALT = 0
                          M     endif
                          M     if (PREV_BANK != 0)
                          M         movlb   0
                          M PREV_BANK = 0
                          M     endif
                          M 
                          M     ifdef USE_LINKER
                          M         call    SEROUT
                          M     else
                          M       if ((SEROUT) < 1)
                          M         call    SEROUT
                          M       else
                          M         if ((SEROUT) > $)
                          M         call    SEROUT
                          M         else
MPASM 5.81                   PICKBYLIGHT.ASM   1-20-2021  23:46:00         PAGE 136


LOC  OBJECT CODE     LINE SOURCE TEXT
  VALUE

                          M           if ((SEROUT) < ($ - 3ffh))
0007FE EC4B F000          M         call    SEROUT
                          M           else
                          M         rcall   SEROUT
                          M           endif
                          M         endif
                          M       endif
                          M     endif
                      02000         SEROUT?C        020h
000802 0E20               M         movlw   020h
                          M         L?CALL  SEROUT
                          M         RST?RP
                          M     if (PREV_ALT != 0)
                          M         bcf     WDTCON, ADSHR
                          M PREV_ALT = 0
                          M     endif
                          M     if (PREV_BANK != 0)
                          M         movlb   0
                          M PREV_BANK = 0
                          M     endif
                          M 
                          M     ifdef USE_LINKER
                          M         call    SEROUT
                          M     else
                          M       if ((SEROUT) < 1)
                          M         call    SEROUT
                          M       else
                          M         if ((SEROUT) > $)
                          M         call    SEROUT
                          M         else
                          M           if ((SEROUT) < ($ - 3ffh))
000804 EC4B F000          M         call    SEROUT
                          M           else
                          M         rcall   SEROUT
                          M           endif
                          M         endif
                          M       endif
                          M     endif
                      02001         SEROUT?C        031h
000808 0E31               M         movlw   031h
                          M         L?CALL  SEROUT
                          M         RST?RP
                          M     if (PREV_ALT != 0)
                          M         bcf     WDTCON, ADSHR
                          M PREV_ALT = 0
                          M     endif
                          M     if (PREV_BANK != 0)
                          M         movlb   0
                          M PREV_BANK = 0
                          M     endif
                          M 
                          M     ifdef USE_LINKER
                          M         call    SEROUT
MPASM 5.81                   PICKBYLIGHT.ASM   1-20-2021  23:46:00         PAGE 137


LOC  OBJECT CODE     LINE SOURCE TEXT
  VALUE

                          M     else
                          M       if ((SEROUT) < 1)
                          M         call    SEROUT
                          M       else
                          M         if ((SEROUT) > $)
                          M         call    SEROUT
                          M         else
                          M           if ((SEROUT) < ($ - 3ffh))
00080A EC4B F000          M         call    SEROUT
                          M           else
                          M         rcall   SEROUT
                          M           endif
                          M         endif
                          M       endif
                          M     endif
                      02002         SEROUT?C        038h
00080E 0E38               M         movlw   038h
                          M         L?CALL  SEROUT
                          M         RST?RP
                          M     if (PREV_ALT != 0)
                          M         bcf     WDTCON, ADSHR
                          M PREV_ALT = 0
                          M     endif
                          M     if (PREV_BANK != 0)
                          M         movlb   0
                          M PREV_BANK = 0
                          M     endif
                          M 
                          M     ifdef USE_LINKER
                          M         call    SEROUT
                          M     else
                          M       if ((SEROUT) < 1)
                          M         call    SEROUT
                          M       else
                          M         if ((SEROUT) > $)
                          M         call    SEROUT
                          M         else
                          M           if ((SEROUT) < ($ - 3ffh))
000810 EC4B F000          M         call    SEROUT
                          M           else
                          M         rcall   SEROUT
                          M           endif
                          M         endif
                          M       endif
                          M     endif
                      02003         SEROUT?C        02Eh
000814 0E2E               M         movlw   02Eh
                          M         L?CALL  SEROUT
                          M         RST?RP
                          M     if (PREV_ALT != 0)
                          M         bcf     WDTCON, ADSHR
                          M PREV_ALT = 0
                          M     endif
MPASM 5.81                   PICKBYLIGHT.ASM   1-20-2021  23:46:00         PAGE 138


LOC  OBJECT CODE     LINE SOURCE TEXT
  VALUE

                          M     if (PREV_BANK != 0)
                          M         movlb   0
                          M PREV_BANK = 0
                          M     endif
                          M 
                          M     ifdef USE_LINKER
                          M         call    SEROUT
                          M     else
                          M       if ((SEROUT) < 1)
                          M         call    SEROUT
                          M       else
                          M         if ((SEROUT) > $)
                          M         call    SEROUT
                          M         else
                          M           if ((SEROUT) < ($ - 3ffh))
000816 EC4B F000          M         call    SEROUT
                          M           else
                          M         rcall   SEROUT
                          M           endif
                          M         endif
                          M       endif
                          M     endif
                      02004         SEROUT?C        030h
00081A 0E30               M         movlw   030h
                          M         L?CALL  SEROUT
                          M         RST?RP
                          M     if (PREV_ALT != 0)
                          M         bcf     WDTCON, ADSHR
                          M PREV_ALT = 0
                          M     endif
                          M     if (PREV_BANK != 0)
                          M         movlb   0
                          M PREV_BANK = 0
                          M     endif
                          M 
                          M     ifdef USE_LINKER
                          M         call    SEROUT
                          M     else
                          M       if ((SEROUT) < 1)
                          M         call    SEROUT
                          M       else
                          M         if ((SEROUT) > $)
                          M         call    SEROUT
                          M         else
                          M           if ((SEROUT) < ($ - 3ffh))
00081C EC4B F000          M         call    SEROUT
                          M           else
                          M         rcall   SEROUT
                          M           endif
                          M         endif
                          M       endif
                          M     endif
                      02005         SEROUT?C        031h
MPASM 5.81                   PICKBYLIGHT.ASM   1-20-2021  23:46:00         PAGE 139


LOC  OBJECT CODE     LINE SOURCE TEXT
  VALUE

000820 0E31               M         movlw   031h
                          M         L?CALL  SEROUT
                          M         RST?RP
                          M     if (PREV_ALT != 0)
                          M         bcf     WDTCON, ADSHR
                          M PREV_ALT = 0
                          M     endif
                          M     if (PREV_BANK != 0)
                          M         movlb   0
                          M PREV_BANK = 0
                          M     endif
                          M 
                          M     ifdef USE_LINKER
                          M         call    SEROUT
                          M     else
                          M       if ((SEROUT) < 1)
                          M         call    SEROUT
                          M       else
                          M         if ((SEROUT) > $)
                          M         call    SEROUT
                          M         else
                          M           if ((SEROUT) < ($ - 3ffh))
000822 EC4B F000          M         call    SEROUT
                          M           else
                          M         rcall   SEROUT
                          M           endif
                          M         endif
                          M       endif
                          M     endif
                      02006         SEROUT?C        02Eh
000826 0E2E               M         movlw   02Eh
                          M         L?CALL  SEROUT
                          M         RST?RP
                          M     if (PREV_ALT != 0)
                          M         bcf     WDTCON, ADSHR
                          M PREV_ALT = 0
                          M     endif
                          M     if (PREV_BANK != 0)
                          M         movlb   0
                          M PREV_BANK = 0
                          M     endif
                          M 
                          M     ifdef USE_LINKER
                          M         call    SEROUT
                          M     else
                          M       if ((SEROUT) < 1)
                          M         call    SEROUT
                          M       else
                          M         if ((SEROUT) > $)
                          M         call    SEROUT
                          M         else
                          M           if ((SEROUT) < ($ - 3ffh))
000828 EC4B F000          M         call    SEROUT
MPASM 5.81                   PICKBYLIGHT.ASM   1-20-2021  23:46:00         PAGE 140


LOC  OBJECT CODE     LINE SOURCE TEXT
  VALUE

                          M           else
                          M         rcall   SEROUT
                          M           endif
                          M         endif
                          M       endif
                          M     endif
                      02007         SEROUT?C        032h
00082C 0E32               M         movlw   032h
                          M         L?CALL  SEROUT
                          M         RST?RP
                          M     if (PREV_ALT != 0)
                          M         bcf     WDTCON, ADSHR
                          M PREV_ALT = 0
                          M     endif
                          M     if (PREV_BANK != 0)
                          M         movlb   0
                          M PREV_BANK = 0
                          M     endif
                          M 
                          M     ifdef USE_LINKER
                          M         call    SEROUT
                          M     else
                          M       if ((SEROUT) < 1)
                          M         call    SEROUT
                          M       else
                          M         if ((SEROUT) > $)
                          M         call    SEROUT
                          M         else
                          M           if ((SEROUT) < ($ - 3ffh))
00082E EC4B F000          M         call    SEROUT
                          M           else
                          M         rcall   SEROUT
                          M           endif
                          M         endif
                          M       endif
                          M     endif
                      02008         SEROUT?C        030h
000832 0E30               M         movlw   030h
                          M         L?CALL  SEROUT
                          M         RST?RP
                          M     if (PREV_ALT != 0)
                          M         bcf     WDTCON, ADSHR
                          M PREV_ALT = 0
                          M     endif
                          M     if (PREV_BANK != 0)
                          M         movlb   0
                          M PREV_BANK = 0
                          M     endif
                          M 
                          M     ifdef USE_LINKER
                          M         call    SEROUT
                          M     else
                          M       if ((SEROUT) < 1)
MPASM 5.81                   PICKBYLIGHT.ASM   1-20-2021  23:46:00         PAGE 141


LOC  OBJECT CODE     LINE SOURCE TEXT
  VALUE

                          M         call    SEROUT
                          M       else
                          M         if ((SEROUT) > $)
                          M         call    SEROUT
                          M         else
                          M           if ((SEROUT) < ($ - 3ffh))
000834 EC4B F000          M         call    SEROUT
                          M           else
                          M         rcall   SEROUT
                          M           endif
                          M         endif
                          M       endif
                          M     endif
                      02009         SEROUT?C        032h
000838 0E32               M         movlw   032h
                          M         L?CALL  SEROUT
                          M         RST?RP
                          M     if (PREV_ALT != 0)
                          M         bcf     WDTCON, ADSHR
                          M PREV_ALT = 0
                          M     endif
                          M     if (PREV_BANK != 0)
                          M         movlb   0
                          M PREV_BANK = 0
                          M     endif
                          M 
                          M     ifdef USE_LINKER
                          M         call    SEROUT
                          M     else
                          M       if ((SEROUT) < 1)
                          M         call    SEROUT
                          M       else
                          M         if ((SEROUT) > $)
                          M         call    SEROUT
                          M         else
                          M           if ((SEROUT) < ($ - 3ffh))
00083A EC4B F000          M         call    SEROUT
                          M           else
                          M         rcall   SEROUT
                          M           endif
                          M         endif
                          M       endif
                          M     endif
                      02010         SEROUT?C        031h
00083E 0E31               M         movlw   031h
                          M         L?CALL  SEROUT
                          M         RST?RP
                          M     if (PREV_ALT != 0)
                          M         bcf     WDTCON, ADSHR
                          M PREV_ALT = 0
                          M     endif
                          M     if (PREV_BANK != 0)
                          M         movlb   0
MPASM 5.81                   PICKBYLIGHT.ASM   1-20-2021  23:46:00         PAGE 142


LOC  OBJECT CODE     LINE SOURCE TEXT
  VALUE

                          M PREV_BANK = 0
                          M     endif
                          M 
                          M     ifdef USE_LINKER
                          M         call    SEROUT
                          M     else
                          M       if ((SEROUT) < 1)
                          M         call    SEROUT
                          M       else
                          M         if ((SEROUT) > $)
                          M         call    SEROUT
                          M         else
                          M           if ((SEROUT) < ($ - 3ffh))
000840 EC4B F000          M         call    SEROUT
                          M           else
                          M         rcall   SEROUT
                          M           endif
                          M         endif
                          M       endif
                          M     endif
                      02011         SEROUT?C        00Dh
000844 0E0D               M         movlw   00Dh
                          M         L?CALL  SEROUT
                          M         RST?RP
                          M     if (PREV_ALT != 0)
                          M         bcf     WDTCON, ADSHR
                          M PREV_ALT = 0
                          M     endif
                          M     if (PREV_BANK != 0)
                          M         movlb   0
                          M PREV_BANK = 0
                          M     endif
                          M 
                          M     ifdef USE_LINKER
                          M         call    SEROUT
                          M     else
                          M       if ((SEROUT) < 1)
                          M         call    SEROUT
                          M       else
                          M         if ((SEROUT) > $)
                          M         call    SEROUT
                          M         else
                          M           if ((SEROUT) < ($ - 3ffh))
000846 EC4B F000          M         call    SEROUT
                          M           else
                          M         rcall   SEROUT
                          M           endif
                          M         endif
                          M       endif
                          M     endif
                      02012         SEROUT?C        00Ah
00084A 0E0A               M         movlw   00Ah
                          M         L?CALL  SEROUT
MPASM 5.81                   PICKBYLIGHT.ASM   1-20-2021  23:46:00         PAGE 143


LOC  OBJECT CODE     LINE SOURCE TEXT
  VALUE

                          M         RST?RP
                          M     if (PREV_ALT != 0)
                          M         bcf     WDTCON, ADSHR
                          M PREV_ALT = 0
                          M     endif
                          M     if (PREV_BANK != 0)
                          M         movlb   0
                          M PREV_BANK = 0
                          M     endif
                          M 
                          M     ifdef USE_LINKER
                          M         call    SEROUT
                          M     else
                          M       if ((SEROUT) < 1)
                          M         call    SEROUT
                          M       else
                          M         if ((SEROUT) > $)
                          M         call    SEROUT
                          M         else
                          M           if ((SEROUT) < ($ - 3ffh))
00084C EC4B F000          M         call    SEROUT
                          M           else
                          M         rcall   SEROUT
                          M           endif
                          M         endif
                          M       endif
                          M     endif
                      02013 
                      02014 ; C:\USERS\DMILOSAVLJEVIC\DOCUMENTS\PROJECT\TECOMATIC\PICKBYLIGHT\PICKBYLIGHT.PBP       00109       sERO
                            UT _rs232Tx,rs232_bps,["........................................................................
                      02015         SERPIN?T        __rs232Tx
                          M         BIT?R1  PORTD, 007h
000850 0E83               M         movlw   low ((PORTD) + ((007h)  >> 3))
                          M         CHK?RP  RR1
                          M     if (((RR1)   & 8000h) != PREV_ALT)
                          M       if ((RR1)   & 8000h)
                          M         bsf     WDTCON, ADSHR
                          M       else
                          M         bcf     WDTCON, ADSHR
                          M       endif
                          M PREV_ALT = (RR1)   & 8000h
                          M     endif
                          M     if ((((RR1)   & 0fffh) > BANKA_END) & (((RR1)   & 0fffh) < (0f01h + BANKA_END)))
                          M       if (((RR1)   & 0f00h) != (PREV_BANK << 8))
                          M         movlb   high (RR1)
                          M PREV_BANK = high (RR1)
                          M       endif
                          M     endif
000852 6E1F               M         movwf   RR1
000854 0E0F               M         movlw   high ((PORTD) + ((007h)  >> 3))
000856 6E21               M         movwf   RS1
                          M         BIT?W   007h
                          M     if (((007h)  & 7) == 0)
MPASM 5.81                   PICKBYLIGHT.ASM   1-20-2021  23:46:00         PAGE 144


LOC  OBJECT CODE     LINE SOURCE TEXT
  VALUE

                          M         movlw   01h
                          M     endif
                          M     if (((007h)  & 7) == 1)
                          M         movlw   02h
                          M     endif
                          M     if (((007h)  & 7) == 2)
                          M         movlw   04h
                          M     endif
                          M     if (((007h)  & 7) == 3)
                          M         movlw   08h
                          M     endif
                          M     if (((007h)  & 7) == 4)
                          M         movlw   10h
                          M     endif
                          M     if (((007h)  & 7) == 5)
                          M         movlw   20h
                          M     endif
                          M     if (((007h)  & 7) == 6)
                          M         movlw   40h
                          M     endif
                          M     if (((007h)  & 7) == 7)
000858 0E80               M         movlw   80h
                          M     endif
00085A 6E1D               M         movwf   RM1
                      02016         SERMODE?C       _rs232_bps
                          M         MOVE?CB _rs232_bps, GOP
                          M         CHK?RP  GOP
                          M     if (((GOP)   & 8000h) != PREV_ALT)
                          M       if ((GOP)   & 8000h)
                          M         bsf     WDTCON, ADSHR
                          M       else
                          M         bcf     WDTCON, ADSHR
                          M       endif
                          M PREV_ALT = (GOP)   & 8000h
                          M     endif
                          M     if ((((GOP)   & 0fffh) > BANKA_END) & (((GOP)   & 0fffh) < (0f01h + BANKA_END)))
                          M       if (((GOP)   & 0f00h) != (PREV_BANK << 8))
                          M         movlb   high (GOP)
                          M PREV_BANK = high (GOP)
                          M       endif
                          M     endif
                          M     if (low (_rs232_bps) == 0)
                          M         clrf    GOP
                          M     else
                          M       if (low (_rs232_bps) == 255)
                          M         setf    GOP
                          M       else
00085C 0E06               M         movlw   low (_rs232_bps)
00085E 6E01               M         movwf   GOP
                          M       endif
                          M     endif
                      02017         SEROUT?C        02Eh
000860 0E2E               M         movlw   02Eh
MPASM 5.81                   PICKBYLIGHT.ASM   1-20-2021  23:46:00         PAGE 145


LOC  OBJECT CODE     LINE SOURCE TEXT
  VALUE

                          M         L?CALL  SEROUT
                          M         RST?RP
                          M     if (PREV_ALT != 0)
                          M         bcf     WDTCON, ADSHR
                          M PREV_ALT = 0
                          M     endif
                          M     if (PREV_BANK != 0)
                          M         movlb   0
                          M PREV_BANK = 0
                          M     endif
                          M 
                          M     ifdef USE_LINKER
                          M         call    SEROUT
                          M     else
                          M       if ((SEROUT) < 1)
                          M         call    SEROUT
                          M       else
                          M         if ((SEROUT) > $)
                          M         call    SEROUT
                          M         else
                          M           if ((SEROUT) < ($ - 3ffh))
000862 EC4B F000          M         call    SEROUT
                          M           else
                          M         rcall   SEROUT
                          M           endif
                          M         endif
                          M       endif
                          M     endif
                      02018         SEROUT?C        02Eh
000866 0E2E               M         movlw   02Eh
                          M         L?CALL  SEROUT
                          M         RST?RP
                          M     if (PREV_ALT != 0)
                          M         bcf     WDTCON, ADSHR
                          M PREV_ALT = 0
                          M     endif
                          M     if (PREV_BANK != 0)
                          M         movlb   0
                          M PREV_BANK = 0
                          M     endif
                          M 
                          M     ifdef USE_LINKER
                          M         call    SEROUT
                          M     else
                          M       if ((SEROUT) < 1)
                          M         call    SEROUT
                          M       else
                          M         if ((SEROUT) > $)
                          M         call    SEROUT
                          M         else
                          M           if ((SEROUT) < ($ - 3ffh))
000868 EC4B F000          M         call    SEROUT
                          M           else
MPASM 5.81                   PICKBYLIGHT.ASM   1-20-2021  23:46:00         PAGE 146


LOC  OBJECT CODE     LINE SOURCE TEXT
  VALUE

                          M         rcall   SEROUT
                          M           endif
                          M         endif
                          M       endif
                          M     endif
                      02019         SEROUT?C        02Eh
00086C 0E2E               M         movlw   02Eh
                          M         L?CALL  SEROUT
                          M         RST?RP
                          M     if (PREV_ALT != 0)
                          M         bcf     WDTCON, ADSHR
                          M PREV_ALT = 0
                          M     endif
                          M     if (PREV_BANK != 0)
                          M         movlb   0
                          M PREV_BANK = 0
                          M     endif
                          M 
                          M     ifdef USE_LINKER
                          M         call    SEROUT
                          M     else
                          M       if ((SEROUT) < 1)
                          M         call    SEROUT
                          M       else
                          M         if ((SEROUT) > $)
                          M         call    SEROUT
                          M         else
                          M           if ((SEROUT) < ($ - 3ffh))
00086E EC4B F000          M         call    SEROUT
                          M           else
                          M         rcall   SEROUT
                          M           endif
                          M         endif
                          M       endif
                          M     endif
                      02020         SEROUT?C        02Eh
000872 0E2E               M         movlw   02Eh
                          M         L?CALL  SEROUT
                          M         RST?RP
                          M     if (PREV_ALT != 0)
                          M         bcf     WDTCON, ADSHR
                          M PREV_ALT = 0
                          M     endif
                          M     if (PREV_BANK != 0)
                          M         movlb   0
                          M PREV_BANK = 0
                          M     endif
                          M 
                          M     ifdef USE_LINKER
                          M         call    SEROUT
                          M     else
                          M       if ((SEROUT) < 1)
                          M         call    SEROUT
MPASM 5.81                   PICKBYLIGHT.ASM   1-20-2021  23:46:00         PAGE 147


LOC  OBJECT CODE     LINE SOURCE TEXT
  VALUE

                          M       else
                          M         if ((SEROUT) > $)
                          M         call    SEROUT
                          M         else
                          M           if ((SEROUT) < ($ - 3ffh))
000874 EC4B F000          M         call    SEROUT
                          M           else
                          M         rcall   SEROUT
                          M           endif
                          M         endif
                          M       endif
                          M     endif
                      02021         SEROUT?C        02Eh
000878 0E2E               M         movlw   02Eh
                          M         L?CALL  SEROUT
                          M         RST?RP
                          M     if (PREV_ALT != 0)
                          M         bcf     WDTCON, ADSHR
                          M PREV_ALT = 0
                          M     endif
                          M     if (PREV_BANK != 0)
                          M         movlb   0
                          M PREV_BANK = 0
                          M     endif
                          M 
                          M     ifdef USE_LINKER
                          M         call    SEROUT
                          M     else
                          M       if ((SEROUT) < 1)
                          M         call    SEROUT
                          M       else
                          M         if ((SEROUT) > $)
                          M         call    SEROUT
                          M         else
                          M           if ((SEROUT) < ($ - 3ffh))
00087A EC4B F000          M         call    SEROUT
                          M           else
                          M         rcall   SEROUT
                          M           endif
                          M         endif
                          M       endif
                          M     endif
                      02022         SEROUT?C        02Eh
00087E 0E2E               M         movlw   02Eh
                          M         L?CALL  SEROUT
                          M         RST?RP
                          M     if (PREV_ALT != 0)
                          M         bcf     WDTCON, ADSHR
                          M PREV_ALT = 0
                          M     endif
                          M     if (PREV_BANK != 0)
                          M         movlb   0
                          M PREV_BANK = 0
MPASM 5.81                   PICKBYLIGHT.ASM   1-20-2021  23:46:00         PAGE 148


LOC  OBJECT CODE     LINE SOURCE TEXT
  VALUE

                          M     endif
                          M 
                          M     ifdef USE_LINKER
                          M         call    SEROUT
                          M     else
                          M       if ((SEROUT) < 1)
                          M         call    SEROUT
                          M       else
                          M         if ((SEROUT) > $)
                          M         call    SEROUT
                          M         else
                          M           if ((SEROUT) < ($ - 3ffh))
000880 EC4B F000          M         call    SEROUT
                          M           else
                          M         rcall   SEROUT
                          M           endif
                          M         endif
                          M       endif
                          M     endif
                      02023         SEROUT?C        02Eh
000884 0E2E               M         movlw   02Eh
                          M         L?CALL  SEROUT
                          M         RST?RP
                          M     if (PREV_ALT != 0)
                          M         bcf     WDTCON, ADSHR
                          M PREV_ALT = 0
                          M     endif
                          M     if (PREV_BANK != 0)
                          M         movlb   0
                          M PREV_BANK = 0
                          M     endif
                          M 
                          M     ifdef USE_LINKER
                          M         call    SEROUT
                          M     else
                          M       if ((SEROUT) < 1)
                          M         call    SEROUT
                          M       else
                          M         if ((SEROUT) > $)
                          M         call    SEROUT
                          M         else
                          M           if ((SEROUT) < ($ - 3ffh))
000886 EC4B F000          M         call    SEROUT
                          M           else
                          M         rcall   SEROUT
                          M           endif
                          M         endif
                          M       endif
                          M     endif
                      02024         SEROUT?C        02Eh
00088A 0E2E               M         movlw   02Eh
                          M         L?CALL  SEROUT
                          M         RST?RP
MPASM 5.81                   PICKBYLIGHT.ASM   1-20-2021  23:46:00         PAGE 149


LOC  OBJECT CODE     LINE SOURCE TEXT
  VALUE

                          M     if (PREV_ALT != 0)
                          M         bcf     WDTCON, ADSHR
                          M PREV_ALT = 0
                          M     endif
                          M     if (PREV_BANK != 0)
                          M         movlb   0
                          M PREV_BANK = 0
                          M     endif
                          M 
                          M     ifdef USE_LINKER
                          M         call    SEROUT
                          M     else
                          M       if ((SEROUT) < 1)
                          M         call    SEROUT
                          M       else
                          M         if ((SEROUT) > $)
                          M         call    SEROUT
                          M         else
                          M           if ((SEROUT) < ($ - 3ffh))
00088C EC4B F000          M         call    SEROUT
                          M           else
                          M         rcall   SEROUT
                          M           endif
                          M         endif
                          M       endif
                          M     endif
                      02025         SEROUT?C        02Eh
000890 0E2E               M         movlw   02Eh
                          M         L?CALL  SEROUT
                          M         RST?RP
                          M     if (PREV_ALT != 0)
                          M         bcf     WDTCON, ADSHR
                          M PREV_ALT = 0
                          M     endif
                          M     if (PREV_BANK != 0)
                          M         movlb   0
                          M PREV_BANK = 0
                          M     endif
                          M 
                          M     ifdef USE_LINKER
                          M         call    SEROUT
                          M     else
                          M       if ((SEROUT) < 1)
                          M         call    SEROUT
                          M       else
                          M         if ((SEROUT) > $)
                          M         call    SEROUT
                          M         else
                          M           if ((SEROUT) < ($ - 3ffh))
000892 EC4B F000          M         call    SEROUT
                          M           else
                          M         rcall   SEROUT
                          M           endif
MPASM 5.81                   PICKBYLIGHT.ASM   1-20-2021  23:46:00         PAGE 150


LOC  OBJECT CODE     LINE SOURCE TEXT
  VALUE

                          M         endif
                          M       endif
                          M     endif
                      02026         SEROUT?C        02Eh
000896 0E2E               M         movlw   02Eh
                          M         L?CALL  SEROUT
                          M         RST?RP
                          M     if (PREV_ALT != 0)
                          M         bcf     WDTCON, ADSHR
                          M PREV_ALT = 0
                          M     endif
                          M     if (PREV_BANK != 0)
                          M         movlb   0
                          M PREV_BANK = 0
                          M     endif
                          M 
                          M     ifdef USE_LINKER
                          M         call    SEROUT
                          M     else
                          M       if ((SEROUT) < 1)
                          M         call    SEROUT
                          M       else
                          M         if ((SEROUT) > $)
                          M         call    SEROUT
                          M         else
                          M           if ((SEROUT) < ($ - 3ffh))
000898 EC4B F000          M         call    SEROUT
                          M           else
                          M         rcall   SEROUT
                          M           endif
                          M         endif
                          M       endif
                          M     endif
                      02027         SEROUT?C        02Eh
00089C 0E2E               M         movlw   02Eh
                          M         L?CALL  SEROUT
                          M         RST?RP
                          M     if (PREV_ALT != 0)
                          M         bcf     WDTCON, ADSHR
                          M PREV_ALT = 0
                          M     endif
                          M     if (PREV_BANK != 0)
                          M         movlb   0
                          M PREV_BANK = 0
                          M     endif
                          M 
                          M     ifdef USE_LINKER
                          M         call    SEROUT
                          M     else
                          M       if ((SEROUT) < 1)
                          M         call    SEROUT
                          M       else
                          M         if ((SEROUT) > $)
MPASM 5.81                   PICKBYLIGHT.ASM   1-20-2021  23:46:00         PAGE 151


LOC  OBJECT CODE     LINE SOURCE TEXT
  VALUE

                          M         call    SEROUT
                          M         else
                          M           if ((SEROUT) < ($ - 3ffh))
00089E EC4B F000          M         call    SEROUT
                          M           else
                          M         rcall   SEROUT
                          M           endif
                          M         endif
                          M       endif
                          M     endif
                      02028         SEROUT?C        02Eh
0008A2 0E2E               M         movlw   02Eh
                          M         L?CALL  SEROUT
                          M         RST?RP
                          M     if (PREV_ALT != 0)
                          M         bcf     WDTCON, ADSHR
                          M PREV_ALT = 0
                          M     endif
                          M     if (PREV_BANK != 0)
                          M         movlb   0
                          M PREV_BANK = 0
                          M     endif
                          M 
                          M     ifdef USE_LINKER
                          M         call    SEROUT
                          M     else
                          M       if ((SEROUT) < 1)
                          M         call    SEROUT
                          M       else
                          M         if ((SEROUT) > $)
                          M         call    SEROUT
                          M         else
                          M           if ((SEROUT) < ($ - 3ffh))
0008A4 EC4B F000          M         call    SEROUT
                          M           else
                          M         rcall   SEROUT
                          M           endif
                          M         endif
                          M       endif
                          M     endif
                      02029         SEROUT?C        02Eh
0008A8 0E2E               M         movlw   02Eh
                          M         L?CALL  SEROUT
                          M         RST?RP
                          M     if (PREV_ALT != 0)
                          M         bcf     WDTCON, ADSHR
                          M PREV_ALT = 0
                          M     endif
                          M     if (PREV_BANK != 0)
                          M         movlb   0
                          M PREV_BANK = 0
                          M     endif
                          M 
MPASM 5.81                   PICKBYLIGHT.ASM   1-20-2021  23:46:00         PAGE 152


LOC  OBJECT CODE     LINE SOURCE TEXT
  VALUE

                          M     ifdef USE_LINKER
                          M         call    SEROUT
                          M     else
                          M       if ((SEROUT) < 1)
                          M         call    SEROUT
                          M       else
                          M         if ((SEROUT) > $)
                          M         call    SEROUT
                          M         else
                          M           if ((SEROUT) < ($ - 3ffh))
0008AA EC4B F000          M         call    SEROUT
                          M           else
                          M         rcall   SEROUT
                          M           endif
                          M         endif
                          M       endif
                          M     endif
                      02030         SEROUT?C        02Eh
0008AE 0E2E               M         movlw   02Eh
                          M         L?CALL  SEROUT
                          M         RST?RP
                          M     if (PREV_ALT != 0)
                          M         bcf     WDTCON, ADSHR
                          M PREV_ALT = 0
                          M     endif
                          M     if (PREV_BANK != 0)
                          M         movlb   0
                          M PREV_BANK = 0
                          M     endif
                          M 
                          M     ifdef USE_LINKER
                          M         call    SEROUT
                          M     else
                          M       if ((SEROUT) < 1)
                          M         call    SEROUT
                          M       else
                          M         if ((SEROUT) > $)
                          M         call    SEROUT
                          M         else
                          M           if ((SEROUT) < ($ - 3ffh))
0008B0 EC4B F000          M         call    SEROUT
                          M           else
                          M         rcall   SEROUT
                          M           endif
                          M         endif
                          M       endif
                          M     endif
                      02031         SEROUT?C        02Eh
0008B4 0E2E               M         movlw   02Eh
                          M         L?CALL  SEROUT
                          M         RST?RP
                          M     if (PREV_ALT != 0)
                          M         bcf     WDTCON, ADSHR
MPASM 5.81                   PICKBYLIGHT.ASM   1-20-2021  23:46:00         PAGE 153


LOC  OBJECT CODE     LINE SOURCE TEXT
  VALUE

                          M PREV_ALT = 0
                          M     endif
                          M     if (PREV_BANK != 0)
                          M         movlb   0
                          M PREV_BANK = 0
                          M     endif
                          M 
                          M     ifdef USE_LINKER
                          M         call    SEROUT
                          M     else
                          M       if ((SEROUT) < 1)
                          M         call    SEROUT
                          M       else
                          M         if ((SEROUT) > $)
                          M         call    SEROUT
                          M         else
                          M           if ((SEROUT) < ($ - 3ffh))
0008B6 EC4B F000          M         call    SEROUT
                          M           else
                          M         rcall   SEROUT
                          M           endif
                          M         endif
                          M       endif
                          M     endif
                      02032         SEROUT?C        02Eh
0008BA 0E2E               M         movlw   02Eh
                          M         L?CALL  SEROUT
                          M         RST?RP
                          M     if (PREV_ALT != 0)
                          M         bcf     WDTCON, ADSHR
                          M PREV_ALT = 0
                          M     endif
                          M     if (PREV_BANK != 0)
                          M         movlb   0
                          M PREV_BANK = 0
                          M     endif
                          M 
                          M     ifdef USE_LINKER
                          M         call    SEROUT
                          M     else
                          M       if ((SEROUT) < 1)
                          M         call    SEROUT
                          M       else
                          M         if ((SEROUT) > $)
                          M         call    SEROUT
                          M         else
                          M           if ((SEROUT) < ($ - 3ffh))
0008BC EC4B F000          M         call    SEROUT
                          M           else
                          M         rcall   SEROUT
                          M           endif
                          M         endif
                          M       endif
MPASM 5.81                   PICKBYLIGHT.ASM   1-20-2021  23:46:00         PAGE 154


LOC  OBJECT CODE     LINE SOURCE TEXT
  VALUE

                          M     endif
                      02033         SEROUT?C        02Eh
0008C0 0E2E               M         movlw   02Eh
                          M         L?CALL  SEROUT
                          M         RST?RP
                          M     if (PREV_ALT != 0)
                          M         bcf     WDTCON, ADSHR
                          M PREV_ALT = 0
                          M     endif
                          M     if (PREV_BANK != 0)
                          M         movlb   0
                          M PREV_BANK = 0
                          M     endif
                          M 
                          M     ifdef USE_LINKER
                          M         call    SEROUT
                          M     else
                          M       if ((SEROUT) < 1)
                          M         call    SEROUT
                          M       else
                          M         if ((SEROUT) > $)
                          M         call    SEROUT
                          M         else
                          M           if ((SEROUT) < ($ - 3ffh))
0008C2 EC4B F000          M         call    SEROUT
                          M           else
                          M         rcall   SEROUT
                          M           endif
                          M         endif
                          M       endif
                          M     endif
                      02034         SEROUT?C        02Eh
0008C6 0E2E               M         movlw   02Eh
                          M         L?CALL  SEROUT
                          M         RST?RP
                          M     if (PREV_ALT != 0)
                          M         bcf     WDTCON, ADSHR
                          M PREV_ALT = 0
                          M     endif
                          M     if (PREV_BANK != 0)
                          M         movlb   0
                          M PREV_BANK = 0
                          M     endif
                          M 
                          M     ifdef USE_LINKER
                          M         call    SEROUT
                          M     else
                          M       if ((SEROUT) < 1)
                          M         call    SEROUT
                          M       else
                          M         if ((SEROUT) > $)
                          M         call    SEROUT
                          M         else
MPASM 5.81                   PICKBYLIGHT.ASM   1-20-2021  23:46:00         PAGE 155


LOC  OBJECT CODE     LINE SOURCE TEXT
  VALUE

                          M           if ((SEROUT) < ($ - 3ffh))
0008C8 EC4B F000          M         call    SEROUT
                          M           else
                          M         rcall   SEROUT
                          M           endif
                          M         endif
                          M       endif
                          M     endif
                      02035         SEROUT?C        02Eh
0008CC 0E2E               M         movlw   02Eh
                          M         L?CALL  SEROUT
                          M         RST?RP
                          M     if (PREV_ALT != 0)
                          M         bcf     WDTCON, ADSHR
                          M PREV_ALT = 0
                          M     endif
                          M     if (PREV_BANK != 0)
                          M         movlb   0
                          M PREV_BANK = 0
                          M     endif
                          M 
                          M     ifdef USE_LINKER
                          M         call    SEROUT
                          M     else
                          M       if ((SEROUT) < 1)
                          M         call    SEROUT
                          M       else
                          M         if ((SEROUT) > $)
                          M         call    SEROUT
                          M         else
                          M           if ((SEROUT) < ($ - 3ffh))
0008CE EC4B F000          M         call    SEROUT
                          M           else
                          M         rcall   SEROUT
                          M           endif
                          M         endif
                          M       endif
                          M     endif
                      02036         SEROUT?C        02Eh
0008D2 0E2E               M         movlw   02Eh
                          M         L?CALL  SEROUT
                          M         RST?RP
                          M     if (PREV_ALT != 0)
                          M         bcf     WDTCON, ADSHR
                          M PREV_ALT = 0
                          M     endif
                          M     if (PREV_BANK != 0)
                          M         movlb   0
                          M PREV_BANK = 0
                          M     endif
                          M 
                          M     ifdef USE_LINKER
                          M         call    SEROUT
MPASM 5.81                   PICKBYLIGHT.ASM   1-20-2021  23:46:00         PAGE 156


LOC  OBJECT CODE     LINE SOURCE TEXT
  VALUE

                          M     else
                          M       if ((SEROUT) < 1)
                          M         call    SEROUT
                          M       else
                          M         if ((SEROUT) > $)
                          M         call    SEROUT
                          M         else
                          M           if ((SEROUT) < ($ - 3ffh))
0008D4 EC4B F000          M         call    SEROUT
                          M           else
                          M         rcall   SEROUT
                          M           endif
                          M         endif
                          M       endif
                          M     endif
                      02037         SEROUT?C        02Eh
0008D8 0E2E               M         movlw   02Eh
                          M         L?CALL  SEROUT
                          M         RST?RP
                          M     if (PREV_ALT != 0)
                          M         bcf     WDTCON, ADSHR
                          M PREV_ALT = 0
                          M     endif
                          M     if (PREV_BANK != 0)
                          M         movlb   0
                          M PREV_BANK = 0
                          M     endif
                          M 
                          M     ifdef USE_LINKER
                          M         call    SEROUT
                          M     else
                          M       if ((SEROUT) < 1)
                          M         call    SEROUT
                          M       else
                          M         if ((SEROUT) > $)
                          M         call    SEROUT
                          M         else
                          M           if ((SEROUT) < ($ - 3ffh))
0008DA EC4B F000          M         call    SEROUT
                          M           else
                          M         rcall   SEROUT
                          M           endif
                          M         endif
                          M       endif
                          M     endif
                      02038         SEROUT?C        02Eh
0008DE 0E2E               M         movlw   02Eh
                          M         L?CALL  SEROUT
                          M         RST?RP
                          M     if (PREV_ALT != 0)
                          M         bcf     WDTCON, ADSHR
                          M PREV_ALT = 0
                          M     endif
MPASM 5.81                   PICKBYLIGHT.ASM   1-20-2021  23:46:00         PAGE 157


LOC  OBJECT CODE     LINE SOURCE TEXT
  VALUE

                          M     if (PREV_BANK != 0)
                          M         movlb   0
                          M PREV_BANK = 0
                          M     endif
                          M 
                          M     ifdef USE_LINKER
                          M         call    SEROUT
                          M     else
                          M       if ((SEROUT) < 1)
                          M         call    SEROUT
                          M       else
                          M         if ((SEROUT) > $)
                          M         call    SEROUT
                          M         else
                          M           if ((SEROUT) < ($ - 3ffh))
0008E0 EC4B F000          M         call    SEROUT
                          M           else
                          M         rcall   SEROUT
                          M           endif
                          M         endif
                          M       endif
                          M     endif
                      02039         SEROUT?C        02Eh
0008E4 0E2E               M         movlw   02Eh
                          M         L?CALL  SEROUT
                          M         RST?RP
                          M     if (PREV_ALT != 0)
                          M         bcf     WDTCON, ADSHR
                          M PREV_ALT = 0
                          M     endif
                          M     if (PREV_BANK != 0)
                          M         movlb   0
                          M PREV_BANK = 0
                          M     endif
                          M 
                          M     ifdef USE_LINKER
                          M         call    SEROUT
                          M     else
                          M       if ((SEROUT) < 1)
                          M         call    SEROUT
                          M       else
                          M         if ((SEROUT) > $)
                          M         call    SEROUT
                          M         else
                          M           if ((SEROUT) < ($ - 3ffh))
0008E6 EC4B F000          M         call    SEROUT
                          M           else
                          M         rcall   SEROUT
                          M           endif
                          M         endif
                          M       endif
                          M     endif
                      02040         SEROUT?C        02Eh
MPASM 5.81                   PICKBYLIGHT.ASM   1-20-2021  23:46:00         PAGE 158


LOC  OBJECT CODE     LINE SOURCE TEXT
  VALUE

0008EA 0E2E               M         movlw   02Eh
                          M         L?CALL  SEROUT
                          M         RST?RP
                          M     if (PREV_ALT != 0)
                          M         bcf     WDTCON, ADSHR
                          M PREV_ALT = 0
                          M     endif
                          M     if (PREV_BANK != 0)
                          M         movlb   0
                          M PREV_BANK = 0
                          M     endif
                          M 
                          M     ifdef USE_LINKER
                          M         call    SEROUT
                          M     else
                          M       if ((SEROUT) < 1)
                          M         call    SEROUT
                          M       else
                          M         if ((SEROUT) > $)
                          M         call    SEROUT
                          M         else
                          M           if ((SEROUT) < ($ - 3ffh))
0008EC EC4B F000          M         call    SEROUT
                          M           else
                          M         rcall   SEROUT
                          M           endif
                          M         endif
                          M       endif
                          M     endif
                      02041         SEROUT?C        02Eh
0008F0 0E2E               M         movlw   02Eh
                          M         L?CALL  SEROUT
                          M         RST?RP
                          M     if (PREV_ALT != 0)
                          M         bcf     WDTCON, ADSHR
                          M PREV_ALT = 0
                          M     endif
                          M     if (PREV_BANK != 0)
                          M         movlb   0
                          M PREV_BANK = 0
                          M     endif
                          M 
                          M     ifdef USE_LINKER
                          M         call    SEROUT
                          M     else
                          M       if ((SEROUT) < 1)
                          M         call    SEROUT
                          M       else
                          M         if ((SEROUT) > $)
                          M         call    SEROUT
                          M         else
                          M           if ((SEROUT) < ($ - 3ffh))
0008F2 EC4B F000          M         call    SEROUT
MPASM 5.81                   PICKBYLIGHT.ASM   1-20-2021  23:46:00         PAGE 159


LOC  OBJECT CODE     LINE SOURCE TEXT
  VALUE

                          M           else
                          M         rcall   SEROUT
                          M           endif
                          M         endif
                          M       endif
                          M     endif
                      02042         SEROUT?C        02Eh
0008F6 0E2E               M         movlw   02Eh
                          M         L?CALL  SEROUT
                          M         RST?RP
                          M     if (PREV_ALT != 0)
                          M         bcf     WDTCON, ADSHR
                          M PREV_ALT = 0
                          M     endif
                          M     if (PREV_BANK != 0)
                          M         movlb   0
                          M PREV_BANK = 0
                          M     endif
                          M 
                          M     ifdef USE_LINKER
                          M         call    SEROUT
                          M     else
                          M       if ((SEROUT) < 1)
                          M         call    SEROUT
                          M       else
                          M         if ((SEROUT) > $)
                          M         call    SEROUT
                          M         else
                          M           if ((SEROUT) < ($ - 3ffh))
0008F8 EC4B F000          M         call    SEROUT
                          M           else
                          M         rcall   SEROUT
                          M           endif
                          M         endif
                          M       endif
                          M     endif
                      02043         SEROUT?C        02Eh
0008FC 0E2E               M         movlw   02Eh
                          M         L?CALL  SEROUT
                          M         RST?RP
                          M     if (PREV_ALT != 0)
                          M         bcf     WDTCON, ADSHR
                          M PREV_ALT = 0
                          M     endif
                          M     if (PREV_BANK != 0)
                          M         movlb   0
                          M PREV_BANK = 0
                          M     endif
                          M 
                          M     ifdef USE_LINKER
                          M         call    SEROUT
                          M     else
                          M       if ((SEROUT) < 1)
MPASM 5.81                   PICKBYLIGHT.ASM   1-20-2021  23:46:00         PAGE 160


LOC  OBJECT CODE     LINE SOURCE TEXT
  VALUE

                          M         call    SEROUT
                          M       else
                          M         if ((SEROUT) > $)
                          M         call    SEROUT
                          M         else
                          M           if ((SEROUT) < ($ - 3ffh))
0008FE EC4B F000          M         call    SEROUT
                          M           else
                          M         rcall   SEROUT
                          M           endif
                          M         endif
                          M       endif
                          M     endif
                      02044         SEROUT?C        02Eh
000902 0E2E               M         movlw   02Eh
                          M         L?CALL  SEROUT
                          M         RST?RP
                          M     if (PREV_ALT != 0)
                          M         bcf     WDTCON, ADSHR
                          M PREV_ALT = 0
                          M     endif
                          M     if (PREV_BANK != 0)
                          M         movlb   0
                          M PREV_BANK = 0
                          M     endif
                          M 
                          M     ifdef USE_LINKER
                          M         call    SEROUT
                          M     else
                          M       if ((SEROUT) < 1)
                          M         call    SEROUT
                          M       else
                          M         if ((SEROUT) > $)
                          M         call    SEROUT
                          M         else
                          M           if ((SEROUT) < ($ - 3ffh))
000904 EC4B F000          M         call    SEROUT
                          M           else
                          M         rcall   SEROUT
                          M           endif
                          M         endif
                          M       endif
                          M     endif
                      02045         SEROUT?C        02Eh
000908 0E2E               M         movlw   02Eh
                          M         L?CALL  SEROUT
                          M         RST?RP
                          M     if (PREV_ALT != 0)
                          M         bcf     WDTCON, ADSHR
                          M PREV_ALT = 0
                          M     endif
                          M     if (PREV_BANK != 0)
                          M         movlb   0
MPASM 5.81                   PICKBYLIGHT.ASM   1-20-2021  23:46:00         PAGE 161


LOC  OBJECT CODE     LINE SOURCE TEXT
  VALUE

                          M PREV_BANK = 0
                          M     endif
                          M 
                          M     ifdef USE_LINKER
                          M         call    SEROUT
                          M     else
                          M       if ((SEROUT) < 1)
                          M         call    SEROUT
                          M       else
                          M         if ((SEROUT) > $)
                          M         call    SEROUT
                          M         else
                          M           if ((SEROUT) < ($ - 3ffh))
00090A EC4B F000          M         call    SEROUT
                          M           else
                          M         rcall   SEROUT
                          M           endif
                          M         endif
                          M       endif
                          M     endif
                      02046         SEROUT?C        02Eh
00090E 0E2E               M         movlw   02Eh
                          M         L?CALL  SEROUT
                          M         RST?RP
                          M     if (PREV_ALT != 0)
                          M         bcf     WDTCON, ADSHR
                          M PREV_ALT = 0
                          M     endif
                          M     if (PREV_BANK != 0)
                          M         movlb   0
                          M PREV_BANK = 0
                          M     endif
                          M 
                          M     ifdef USE_LINKER
                          M         call    SEROUT
                          M     else
                          M       if ((SEROUT) < 1)
                          M         call    SEROUT
                          M       else
                          M         if ((SEROUT) > $)
                          M         call    SEROUT
                          M         else
                          M           if ((SEROUT) < ($ - 3ffh))
000910 EC4B F000          M         call    SEROUT
                          M           else
                          M         rcall   SEROUT
                          M           endif
                          M         endif
                          M       endif
                          M     endif
                      02047         SEROUT?C        02Eh
000914 0E2E               M         movlw   02Eh
                          M         L?CALL  SEROUT
MPASM 5.81                   PICKBYLIGHT.ASM   1-20-2021  23:46:00         PAGE 162


LOC  OBJECT CODE     LINE SOURCE TEXT
  VALUE

                          M         RST?RP
                          M     if (PREV_ALT != 0)
                          M         bcf     WDTCON, ADSHR
                          M PREV_ALT = 0
                          M     endif
                          M     if (PREV_BANK != 0)
                          M         movlb   0
                          M PREV_BANK = 0
                          M     endif
                          M 
                          M     ifdef USE_LINKER
                          M         call    SEROUT
                          M     else
                          M       if ((SEROUT) < 1)
                          M         call    SEROUT
                          M       else
                          M         if ((SEROUT) > $)
                          M         call    SEROUT
                          M         else
                          M           if ((SEROUT) < ($ - 3ffh))
000916 EC4B F000          M         call    SEROUT
                          M           else
                          M         rcall   SEROUT
                          M           endif
                          M         endif
                          M       endif
                          M     endif
                      02048         SEROUT?C        02Eh
00091A 0E2E               M         movlw   02Eh
                          M         L?CALL  SEROUT
                          M         RST?RP
                          M     if (PREV_ALT != 0)
                          M         bcf     WDTCON, ADSHR
                          M PREV_ALT = 0
                          M     endif
                          M     if (PREV_BANK != 0)
                          M         movlb   0
                          M PREV_BANK = 0
                          M     endif
                          M 
                          M     ifdef USE_LINKER
                          M         call    SEROUT
                          M     else
                          M       if ((SEROUT) < 1)
                          M         call    SEROUT
                          M       else
                          M         if ((SEROUT) > $)
                          M         call    SEROUT
                          M         else
                          M           if ((SEROUT) < ($ - 3ffh))
00091C EC4B F000          M         call    SEROUT
                          M           else
                          M         rcall   SEROUT
MPASM 5.81                   PICKBYLIGHT.ASM   1-20-2021  23:46:00         PAGE 163


LOC  OBJECT CODE     LINE SOURCE TEXT
  VALUE

                          M           endif
                          M         endif
                          M       endif
                          M     endif
                      02049         SEROUT?C        02Eh
000920 0E2E               M         movlw   02Eh
                          M         L?CALL  SEROUT
                          M         RST?RP
                          M     if (PREV_ALT != 0)
                          M         bcf     WDTCON, ADSHR
                          M PREV_ALT = 0
                          M     endif
                          M     if (PREV_BANK != 0)
                          M         movlb   0
                          M PREV_BANK = 0
                          M     endif
                          M 
                          M     ifdef USE_LINKER
                          M         call    SEROUT
                          M     else
                          M       if ((SEROUT) < 1)
                          M         call    SEROUT
                          M       else
                          M         if ((SEROUT) > $)
                          M         call    SEROUT
                          M         else
                          M           if ((SEROUT) < ($ - 3ffh))
000922 EC4B F000          M         call    SEROUT
                          M           else
                          M         rcall   SEROUT
                          M           endif
                          M         endif
                          M       endif
                          M     endif
                      02050         SEROUT?C        02Eh
000926 0E2E               M         movlw   02Eh
                          M         L?CALL  SEROUT
                          M         RST?RP
                          M     if (PREV_ALT != 0)
                          M         bcf     WDTCON, ADSHR
                          M PREV_ALT = 0
                          M     endif
                          M     if (PREV_BANK != 0)
                          M         movlb   0
                          M PREV_BANK = 0
                          M     endif
                          M 
                          M     ifdef USE_LINKER
                          M         call    SEROUT
                          M     else
                          M       if ((SEROUT) < 1)
                          M         call    SEROUT
                          M       else
MPASM 5.81                   PICKBYLIGHT.ASM   1-20-2021  23:46:00         PAGE 164


LOC  OBJECT CODE     LINE SOURCE TEXT
  VALUE

                          M         if ((SEROUT) > $)
                          M         call    SEROUT
                          M         else
                          M           if ((SEROUT) < ($ - 3ffh))
000928 EC4B F000          M         call    SEROUT
                          M           else
                          M         rcall   SEROUT
                          M           endif
                          M         endif
                          M       endif
                          M     endif
                      02051         SEROUT?C        02Eh
00092C 0E2E               M         movlw   02Eh
                          M         L?CALL  SEROUT
                          M         RST?RP
                          M     if (PREV_ALT != 0)
                          M         bcf     WDTCON, ADSHR
                          M PREV_ALT = 0
                          M     endif
                          M     if (PREV_BANK != 0)
                          M         movlb   0
                          M PREV_BANK = 0
                          M     endif
                          M 
                          M     ifdef USE_LINKER
                          M         call    SEROUT
                          M     else
                          M       if ((SEROUT) < 1)
                          M         call    SEROUT
                          M       else
                          M         if ((SEROUT) > $)
                          M         call    SEROUT
                          M         else
                          M           if ((SEROUT) < ($ - 3ffh))
00092E EC4B F000          M         call    SEROUT
                          M           else
                          M         rcall   SEROUT
                          M           endif
                          M         endif
                          M       endif
                          M     endif
                      02052         SEROUT?C        02Eh
000932 0E2E               M         movlw   02Eh
                          M         L?CALL  SEROUT
                          M         RST?RP
                          M     if (PREV_ALT != 0)
                          M         bcf     WDTCON, ADSHR
                          M PREV_ALT = 0
                          M     endif
                          M     if (PREV_BANK != 0)
                          M         movlb   0
                          M PREV_BANK = 0
                          M     endif
MPASM 5.81                   PICKBYLIGHT.ASM   1-20-2021  23:46:00         PAGE 165


LOC  OBJECT CODE     LINE SOURCE TEXT
  VALUE

                          M 
                          M     ifdef USE_LINKER
                          M         call    SEROUT
                          M     else
                          M       if ((SEROUT) < 1)
                          M         call    SEROUT
                          M       else
                          M         if ((SEROUT) > $)
                          M         call    SEROUT
                          M         else
                          M           if ((SEROUT) < ($ - 3ffh))
000934 EC4B F000          M         call    SEROUT
                          M           else
                          M         rcall   SEROUT
                          M           endif
                          M         endif
                          M       endif
                          M     endif
                      02053         SEROUT?C        02Eh
000938 0E2E               M         movlw   02Eh
                          M         L?CALL  SEROUT
                          M         RST?RP
                          M     if (PREV_ALT != 0)
                          M         bcf     WDTCON, ADSHR
                          M PREV_ALT = 0
                          M     endif
                          M     if (PREV_BANK != 0)
                          M         movlb   0
                          M PREV_BANK = 0
                          M     endif
                          M 
                          M     ifdef USE_LINKER
                          M         call    SEROUT
                          M     else
                          M       if ((SEROUT) < 1)
                          M         call    SEROUT
                          M       else
                          M         if ((SEROUT) > $)
                          M         call    SEROUT
                          M         else
                          M           if ((SEROUT) < ($ - 3ffh))
00093A EC4B F000          M         call    SEROUT
                          M           else
                          M         rcall   SEROUT
                          M           endif
                          M         endif
                          M       endif
                          M     endif
                      02054         SEROUT?C        02Eh
00093E 0E2E               M         movlw   02Eh
                          M         L?CALL  SEROUT
                          M         RST?RP
                          M     if (PREV_ALT != 0)
MPASM 5.81                   PICKBYLIGHT.ASM   1-20-2021  23:46:00         PAGE 166


LOC  OBJECT CODE     LINE SOURCE TEXT
  VALUE

                          M         bcf     WDTCON, ADSHR
                          M PREV_ALT = 0
                          M     endif
                          M     if (PREV_BANK != 0)
                          M         movlb   0
                          M PREV_BANK = 0
                          M     endif
                          M 
                          M     ifdef USE_LINKER
                          M         call    SEROUT
                          M     else
                          M       if ((SEROUT) < 1)
                          M         call    SEROUT
                          M       else
                          M         if ((SEROUT) > $)
                          M         call    SEROUT
                          M         else
                          M           if ((SEROUT) < ($ - 3ffh))
000940 EC4B F000          M         call    SEROUT
                          M           else
                          M         rcall   SEROUT
                          M           endif
                          M         endif
                          M       endif
                          M     endif
                      02055         SEROUT?C        02Eh
000944 0E2E               M         movlw   02Eh
                          M         L?CALL  SEROUT
                          M         RST?RP
                          M     if (PREV_ALT != 0)
                          M         bcf     WDTCON, ADSHR
                          M PREV_ALT = 0
                          M     endif
                          M     if (PREV_BANK != 0)
                          M         movlb   0
                          M PREV_BANK = 0
                          M     endif
                          M 
                          M     ifdef USE_LINKER
                          M         call    SEROUT
                          M     else
                          M       if ((SEROUT) < 1)
                          M         call    SEROUT
                          M       else
                          M         if ((SEROUT) > $)
                          M         call    SEROUT
                          M         else
                          M           if ((SEROUT) < ($ - 3ffh))
000946 EC4B F000          M         call    SEROUT
                          M           else
                          M         rcall   SEROUT
                          M           endif
                          M         endif
MPASM 5.81                   PICKBYLIGHT.ASM   1-20-2021  23:46:00         PAGE 167


LOC  OBJECT CODE     LINE SOURCE TEXT
  VALUE

                          M       endif
                          M     endif
                      02056         SEROUT?C        02Eh
00094A 0E2E               M         movlw   02Eh
                          M         L?CALL  SEROUT
                          M         RST?RP
                          M     if (PREV_ALT != 0)
                          M         bcf     WDTCON, ADSHR
                          M PREV_ALT = 0
                          M     endif
                          M     if (PREV_BANK != 0)
                          M         movlb   0
                          M PREV_BANK = 0
                          M     endif
                          M 
                          M     ifdef USE_LINKER
                          M         call    SEROUT
                          M     else
                          M       if ((SEROUT) < 1)
                          M         call    SEROUT
                          M       else
                          M         if ((SEROUT) > $)
                          M         call    SEROUT
                          M         else
                          M           if ((SEROUT) < ($ - 3ffh))
00094C EC4B F000          M         call    SEROUT
                          M           else
                          M         rcall   SEROUT
                          M           endif
                          M         endif
                          M       endif
                          M     endif
                      02057         SEROUT?C        02Eh
000950 0E2E               M         movlw   02Eh
                          M         L?CALL  SEROUT
                          M         RST?RP
                          M     if (PREV_ALT != 0)
                          M         bcf     WDTCON, ADSHR
                          M PREV_ALT = 0
                          M     endif
                          M     if (PREV_BANK != 0)
                          M         movlb   0
                          M PREV_BANK = 0
                          M     endif
                          M 
                          M     ifdef USE_LINKER
                          M         call    SEROUT
                          M     else
                          M       if ((SEROUT) < 1)
                          M         call    SEROUT
                          M       else
                          M         if ((SEROUT) > $)
                          M         call    SEROUT
MPASM 5.81                   PICKBYLIGHT.ASM   1-20-2021  23:46:00         PAGE 168


LOC  OBJECT CODE     LINE SOURCE TEXT
  VALUE

                          M         else
                          M           if ((SEROUT) < ($ - 3ffh))
000952 EC4B F000          M         call    SEROUT
                          M           else
                          M         rcall   SEROUT
                          M           endif
                          M         endif
                          M       endif
                          M     endif
                      02058         SEROUT?C        02Eh
000956 0E2E               M         movlw   02Eh
                          M         L?CALL  SEROUT
                          M         RST?RP
                          M     if (PREV_ALT != 0)
                          M         bcf     WDTCON, ADSHR
                          M PREV_ALT = 0
                          M     endif
                          M     if (PREV_BANK != 0)
                          M         movlb   0
                          M PREV_BANK = 0
                          M     endif
                          M 
                          M     ifdef USE_LINKER
                          M         call    SEROUT
                          M     else
                          M       if ((SEROUT) < 1)
                          M         call    SEROUT
                          M       else
                          M         if ((SEROUT) > $)
                          M         call    SEROUT
                          M         else
                          M           if ((SEROUT) < ($ - 3ffh))
000958 EC4B F000          M         call    SEROUT
                          M           else
                          M         rcall   SEROUT
                          M           endif
                          M         endif
                          M       endif
                          M     endif
                      02059         SEROUT?C        02Eh
00095C 0E2E               M         movlw   02Eh
                          M         L?CALL  SEROUT
                          M         RST?RP
                          M     if (PREV_ALT != 0)
                          M         bcf     WDTCON, ADSHR
                          M PREV_ALT = 0
                          M     endif
                          M     if (PREV_BANK != 0)
                          M         movlb   0
                          M PREV_BANK = 0
                          M     endif
                          M 
                          M     ifdef USE_LINKER
MPASM 5.81                   PICKBYLIGHT.ASM   1-20-2021  23:46:00         PAGE 169


LOC  OBJECT CODE     LINE SOURCE TEXT
  VALUE

                          M         call    SEROUT
                          M     else
                          M       if ((SEROUT) < 1)
                          M         call    SEROUT
                          M       else
                          M         if ((SEROUT) > $)
                          M         call    SEROUT
                          M         else
                          M           if ((SEROUT) < ($ - 3ffh))
00095E EC4B F000          M         call    SEROUT
                          M           else
                          M         rcall   SEROUT
                          M           endif
                          M         endif
                          M       endif
                          M     endif
                      02060         SEROUT?C        02Eh
000962 0E2E               M         movlw   02Eh
                          M         L?CALL  SEROUT
                          M         RST?RP
                          M     if (PREV_ALT != 0)
                          M         bcf     WDTCON, ADSHR
                          M PREV_ALT = 0
                          M     endif
                          M     if (PREV_BANK != 0)
                          M         movlb   0
                          M PREV_BANK = 0
                          M     endif
                          M 
                          M     ifdef USE_LINKER
                          M         call    SEROUT
                          M     else
                          M       if ((SEROUT) < 1)
                          M         call    SEROUT
                          M       else
                          M         if ((SEROUT) > $)
                          M         call    SEROUT
                          M         else
                          M           if ((SEROUT) < ($ - 3ffh))
000964 EC4B F000          M         call    SEROUT
                          M           else
                          M         rcall   SEROUT
                          M           endif
                          M         endif
                          M       endif
                          M     endif
                      02061         SEROUT?C        02Eh
000968 0E2E               M         movlw   02Eh
                          M         L?CALL  SEROUT
                          M         RST?RP
                          M     if (PREV_ALT != 0)
                          M         bcf     WDTCON, ADSHR
                          M PREV_ALT = 0
MPASM 5.81                   PICKBYLIGHT.ASM   1-20-2021  23:46:00         PAGE 170


LOC  OBJECT CODE     LINE SOURCE TEXT
  VALUE

                          M     endif
                          M     if (PREV_BANK != 0)
                          M         movlb   0
                          M PREV_BANK = 0
                          M     endif
                          M 
                          M     ifdef USE_LINKER
                          M         call    SEROUT
                          M     else
                          M       if ((SEROUT) < 1)
                          M         call    SEROUT
                          M       else
                          M         if ((SEROUT) > $)
                          M         call    SEROUT
                          M         else
                          M           if ((SEROUT) < ($ - 3ffh))
00096A EC4B F000          M         call    SEROUT
                          M           else
                          M         rcall   SEROUT
                          M           endif
                          M         endif
                          M       endif
                          M     endif
                      02062         SEROUT?C        02Eh
00096E 0E2E               M         movlw   02Eh
                          M         L?CALL  SEROUT
                          M         RST?RP
                          M     if (PREV_ALT != 0)
                          M         bcf     WDTCON, ADSHR
                          M PREV_ALT = 0
                          M     endif
                          M     if (PREV_BANK != 0)
                          M         movlb   0
                          M PREV_BANK = 0
                          M     endif
                          M 
                          M     ifdef USE_LINKER
                          M         call    SEROUT
                          M     else
                          M       if ((SEROUT) < 1)
                          M         call    SEROUT
                          M       else
                          M         if ((SEROUT) > $)
                          M         call    SEROUT
                          M         else
                          M           if ((SEROUT) < ($ - 3ffh))
000970 EC4B F000          M         call    SEROUT
                          M           else
                          M         rcall   SEROUT
                          M           endif
                          M         endif
                          M       endif
                          M     endif
MPASM 5.81                   PICKBYLIGHT.ASM   1-20-2021  23:46:00         PAGE 171


LOC  OBJECT CODE     LINE SOURCE TEXT
  VALUE

                      02063         SEROUT?C        02Eh
000974 0E2E               M         movlw   02Eh
                          M         L?CALL  SEROUT
                          M         RST?RP
                          M     if (PREV_ALT != 0)
                          M         bcf     WDTCON, ADSHR
                          M PREV_ALT = 0
                          M     endif
                          M     if (PREV_BANK != 0)
                          M         movlb   0
                          M PREV_BANK = 0
                          M     endif
                          M 
                          M     ifdef USE_LINKER
                          M         call    SEROUT
                          M     else
                          M       if ((SEROUT) < 1)
                          M         call    SEROUT
                          M       else
                          M         if ((SEROUT) > $)
                          M         call    SEROUT
                          M         else
                          M           if ((SEROUT) < ($ - 3ffh))
000976 EC4B F000          M         call    SEROUT
                          M           else
                          M         rcall   SEROUT
                          M           endif
                          M         endif
                          M       endif
                          M     endif
                      02064         SEROUT?C        02Eh
00097A 0E2E               M         movlw   02Eh
                          M         L?CALL  SEROUT
                          M         RST?RP
                          M     if (PREV_ALT != 0)
                          M         bcf     WDTCON, ADSHR
                          M PREV_ALT = 0
                          M     endif
                          M     if (PREV_BANK != 0)
                          M         movlb   0
                          M PREV_BANK = 0
                          M     endif
                          M 
                          M     ifdef USE_LINKER
                          M         call    SEROUT
                          M     else
                          M       if ((SEROUT) < 1)
                          M         call    SEROUT
                          M       else
                          M         if ((SEROUT) > $)
                          M         call    SEROUT
                          M         else
                          M           if ((SEROUT) < ($ - 3ffh))
MPASM 5.81                   PICKBYLIGHT.ASM   1-20-2021  23:46:00         PAGE 172


LOC  OBJECT CODE     LINE SOURCE TEXT
  VALUE

00097C EC4B F000          M         call    SEROUT
                          M           else
                          M         rcall   SEROUT
                          M           endif
                          M         endif
                          M       endif
                          M     endif
                      02065         SEROUT?C        02Eh
000980 0E2E               M         movlw   02Eh
                          M         L?CALL  SEROUT
                          M         RST?RP
                          M     if (PREV_ALT != 0)
                          M         bcf     WDTCON, ADSHR
                          M PREV_ALT = 0
                          M     endif
                          M     if (PREV_BANK != 0)
                          M         movlb   0
                          M PREV_BANK = 0
                          M     endif
                          M 
                          M     ifdef USE_LINKER
                          M         call    SEROUT
                          M     else
                          M       if ((SEROUT) < 1)
                          M         call    SEROUT
                          M       else
                          M         if ((SEROUT) > $)
                          M         call    SEROUT
                          M         else
                          M           if ((SEROUT) < ($ - 3ffh))
000982 EC4B F000          M         call    SEROUT
                          M           else
                          M         rcall   SEROUT
                          M           endif
                          M         endif
                          M       endif
                          M     endif
                      02066         SEROUT?C        02Eh
000986 0E2E               M         movlw   02Eh
                          M         L?CALL  SEROUT
                          M         RST?RP
                          M     if (PREV_ALT != 0)
                          M         bcf     WDTCON, ADSHR
                          M PREV_ALT = 0
                          M     endif
                          M     if (PREV_BANK != 0)
                          M         movlb   0
                          M PREV_BANK = 0
                          M     endif
                          M 
                          M     ifdef USE_LINKER
                          M         call    SEROUT
                          M     else
MPASM 5.81                   PICKBYLIGHT.ASM   1-20-2021  23:46:00         PAGE 173


LOC  OBJECT CODE     LINE SOURCE TEXT
  VALUE

                          M       if ((SEROUT) < 1)
                          M         call    SEROUT
                          M       else
                          M         if ((SEROUT) > $)
                          M         call    SEROUT
                          M         else
                          M           if ((SEROUT) < ($ - 3ffh))
000988 EC4B F000          M         call    SEROUT
                          M           else
                          M         rcall   SEROUT
                          M           endif
                          M         endif
                          M       endif
                          M     endif
                      02067         SEROUT?C        02Eh
00098C 0E2E               M         movlw   02Eh
                          M         L?CALL  SEROUT
                          M         RST?RP
                          M     if (PREV_ALT != 0)
                          M         bcf     WDTCON, ADSHR
                          M PREV_ALT = 0
                          M     endif
                          M     if (PREV_BANK != 0)
                          M         movlb   0
                          M PREV_BANK = 0
                          M     endif
                          M 
                          M     ifdef USE_LINKER
                          M         call    SEROUT
                          M     else
                          M       if ((SEROUT) < 1)
                          M         call    SEROUT
                          M       else
                          M         if ((SEROUT) > $)
                          M         call    SEROUT
                          M         else
                          M           if ((SEROUT) < ($ - 3ffh))
00098E EC4B F000          M         call    SEROUT
                          M           else
                          M         rcall   SEROUT
                          M           endif
                          M         endif
                          M       endif
                          M     endif
                      02068         SEROUT?C        02Eh
000992 0E2E               M         movlw   02Eh
                          M         L?CALL  SEROUT
                          M         RST?RP
                          M     if (PREV_ALT != 0)
                          M         bcf     WDTCON, ADSHR
                          M PREV_ALT = 0
                          M     endif
                          M     if (PREV_BANK != 0)
MPASM 5.81                   PICKBYLIGHT.ASM   1-20-2021  23:46:00         PAGE 174


LOC  OBJECT CODE     LINE SOURCE TEXT
  VALUE

                          M         movlb   0
                          M PREV_BANK = 0
                          M     endif
                          M 
                          M     ifdef USE_LINKER
                          M         call    SEROUT
                          M     else
                          M       if ((SEROUT) < 1)
                          M         call    SEROUT
                          M       else
                          M         if ((SEROUT) > $)
                          M         call    SEROUT
                          M         else
                          M           if ((SEROUT) < ($ - 3ffh))
000994 EC4B F000          M         call    SEROUT
                          M           else
                          M         rcall   SEROUT
                          M           endif
                          M         endif
                          M       endif
                          M     endif
                      02069         SEROUT?C        02Eh
000998 0E2E               M         movlw   02Eh
                          M         L?CALL  SEROUT
                          M         RST?RP
                          M     if (PREV_ALT != 0)
                          M         bcf     WDTCON, ADSHR
                          M PREV_ALT = 0
                          M     endif
                          M     if (PREV_BANK != 0)
                          M         movlb   0
                          M PREV_BANK = 0
                          M     endif
                          M 
                          M     ifdef USE_LINKER
                          M         call    SEROUT
                          M     else
                          M       if ((SEROUT) < 1)
                          M         call    SEROUT
                          M       else
                          M         if ((SEROUT) > $)
                          M         call    SEROUT
                          M         else
                          M           if ((SEROUT) < ($ - 3ffh))
00099A EC4B F000          M         call    SEROUT
                          M           else
                          M         rcall   SEROUT
                          M           endif
                          M         endif
                          M       endif
                          M     endif
                      02070         SEROUT?C        02Eh
00099E 0E2E               M         movlw   02Eh
MPASM 5.81                   PICKBYLIGHT.ASM   1-20-2021  23:46:00         PAGE 175


LOC  OBJECT CODE     LINE SOURCE TEXT
  VALUE

                          M         L?CALL  SEROUT
                          M         RST?RP
                          M     if (PREV_ALT != 0)
                          M         bcf     WDTCON, ADSHR
                          M PREV_ALT = 0
                          M     endif
                          M     if (PREV_BANK != 0)
                          M         movlb   0
                          M PREV_BANK = 0
                          M     endif
                          M 
                          M     ifdef USE_LINKER
                          M         call    SEROUT
                          M     else
                          M       if ((SEROUT) < 1)
                          M         call    SEROUT
                          M       else
                          M         if ((SEROUT) > $)
                          M         call    SEROUT
                          M         else
                          M           if ((SEROUT) < ($ - 3ffh))
0009A0 EC4B F000          M         call    SEROUT
                          M           else
                          M         rcall   SEROUT
                          M           endif
                          M         endif
                          M       endif
                          M     endif
                      02071         SEROUT?C        02Eh
0009A4 0E2E               M         movlw   02Eh
                          M         L?CALL  SEROUT
                          M         RST?RP
                          M     if (PREV_ALT != 0)
                          M         bcf     WDTCON, ADSHR
                          M PREV_ALT = 0
                          M     endif
                          M     if (PREV_BANK != 0)
                          M         movlb   0
                          M PREV_BANK = 0
                          M     endif
                          M 
                          M     ifdef USE_LINKER
                          M         call    SEROUT
                          M     else
                          M       if ((SEROUT) < 1)
                          M         call    SEROUT
                          M       else
                          M         if ((SEROUT) > $)
                          M         call    SEROUT
                          M         else
                          M           if ((SEROUT) < ($ - 3ffh))
0009A6 EC4B F000          M         call    SEROUT
                          M           else
MPASM 5.81                   PICKBYLIGHT.ASM   1-20-2021  23:46:00         PAGE 176


LOC  OBJECT CODE     LINE SOURCE TEXT
  VALUE

                          M         rcall   SEROUT
                          M           endif
                          M         endif
                          M       endif
                          M     endif
                      02072         SEROUT?C        02Eh
0009AA 0E2E               M         movlw   02Eh
                          M         L?CALL  SEROUT
                          M         RST?RP
                          M     if (PREV_ALT != 0)
                          M         bcf     WDTCON, ADSHR
                          M PREV_ALT = 0
                          M     endif
                          M     if (PREV_BANK != 0)
                          M         movlb   0
                          M PREV_BANK = 0
                          M     endif
                          M 
                          M     ifdef USE_LINKER
                          M         call    SEROUT
                          M     else
                          M       if ((SEROUT) < 1)
                          M         call    SEROUT
                          M       else
                          M         if ((SEROUT) > $)
                          M         call    SEROUT
                          M         else
                          M           if ((SEROUT) < ($ - 3ffh))
0009AC EC4B F000          M         call    SEROUT
                          M           else
                          M         rcall   SEROUT
                          M           endif
                          M         endif
                          M       endif
                          M     endif
                      02073         SEROUT?C        02Eh
0009B0 0E2E               M         movlw   02Eh
                          M         L?CALL  SEROUT
                          M         RST?RP
                          M     if (PREV_ALT != 0)
                          M         bcf     WDTCON, ADSHR
                          M PREV_ALT = 0
                          M     endif
                          M     if (PREV_BANK != 0)
                          M         movlb   0
                          M PREV_BANK = 0
                          M     endif
                          M 
                          M     ifdef USE_LINKER
                          M         call    SEROUT
                          M     else
                          M       if ((SEROUT) < 1)
                          M         call    SEROUT
MPASM 5.81                   PICKBYLIGHT.ASM   1-20-2021  23:46:00         PAGE 177


LOC  OBJECT CODE     LINE SOURCE TEXT
  VALUE

                          M       else
                          M         if ((SEROUT) > $)
                          M         call    SEROUT
                          M         else
                          M           if ((SEROUT) < ($ - 3ffh))
0009B2 EC4B F000          M         call    SEROUT
                          M           else
                          M         rcall   SEROUT
                          M           endif
                          M         endif
                          M       endif
                          M     endif
                      02074         SEROUT?C        02Eh
0009B6 0E2E               M         movlw   02Eh
                          M         L?CALL  SEROUT
                          M         RST?RP
                          M     if (PREV_ALT != 0)
                          M         bcf     WDTCON, ADSHR
                          M PREV_ALT = 0
                          M     endif
                          M     if (PREV_BANK != 0)
                          M         movlb   0
                          M PREV_BANK = 0
                          M     endif
                          M 
                          M     ifdef USE_LINKER
                          M         call    SEROUT
                          M     else
                          M       if ((SEROUT) < 1)
                          M         call    SEROUT
                          M       else
                          M         if ((SEROUT) > $)
                          M         call    SEROUT
                          M         else
                          M           if ((SEROUT) < ($ - 3ffh))
0009B8 EC4B F000          M         call    SEROUT
                          M           else
                          M         rcall   SEROUT
                          M           endif
                          M         endif
                          M       endif
                          M     endif
                      02075         SEROUT?C        02Eh
0009BC 0E2E               M         movlw   02Eh
                          M         L?CALL  SEROUT
                          M         RST?RP
                          M     if (PREV_ALT != 0)
                          M         bcf     WDTCON, ADSHR
                          M PREV_ALT = 0
                          M     endif
                          M     if (PREV_BANK != 0)
                          M         movlb   0
                          M PREV_BANK = 0
MPASM 5.81                   PICKBYLIGHT.ASM   1-20-2021  23:46:00         PAGE 178


LOC  OBJECT CODE     LINE SOURCE TEXT
  VALUE

                          M     endif
                          M 
                          M     ifdef USE_LINKER
                          M         call    SEROUT
                          M     else
                          M       if ((SEROUT) < 1)
                          M         call    SEROUT
                          M       else
                          M         if ((SEROUT) > $)
                          M         call    SEROUT
                          M         else
                          M           if ((SEROUT) < ($ - 3ffh))
0009BE EC4B F000          M         call    SEROUT
                          M           else
                          M         rcall   SEROUT
                          M           endif
                          M         endif
                          M       endif
                          M     endif
                      02076         SEROUT?C        02Eh
0009C2 0E2E               M         movlw   02Eh
                          M         L?CALL  SEROUT
                          M         RST?RP
                          M     if (PREV_ALT != 0)
                          M         bcf     WDTCON, ADSHR
                          M PREV_ALT = 0
                          M     endif
                          M     if (PREV_BANK != 0)
                          M         movlb   0
                          M PREV_BANK = 0
                          M     endif
                          M 
                          M     ifdef USE_LINKER
                          M         call    SEROUT
                          M     else
                          M       if ((SEROUT) < 1)
                          M         call    SEROUT
                          M       else
                          M         if ((SEROUT) > $)
                          M         call    SEROUT
                          M         else
                          M           if ((SEROUT) < ($ - 3ffh))
0009C4 EC4B F000          M         call    SEROUT
                          M           else
                          M         rcall   SEROUT
                          M           endif
                          M         endif
                          M       endif
                          M     endif
                      02077         SEROUT?C        02Eh
0009C8 0E2E               M         movlw   02Eh
                          M         L?CALL  SEROUT
                          M         RST?RP
MPASM 5.81                   PICKBYLIGHT.ASM   1-20-2021  23:46:00         PAGE 179


LOC  OBJECT CODE     LINE SOURCE TEXT
  VALUE

                          M     if (PREV_ALT != 0)
                          M         bcf     WDTCON, ADSHR
                          M PREV_ALT = 0
                          M     endif
                          M     if (PREV_BANK != 0)
                          M         movlb   0
                          M PREV_BANK = 0
                          M     endif
                          M 
                          M     ifdef USE_LINKER
                          M         call    SEROUT
                          M     else
                          M       if ((SEROUT) < 1)
                          M         call    SEROUT
                          M       else
                          M         if ((SEROUT) > $)
                          M         call    SEROUT
                          M         else
                          M           if ((SEROUT) < ($ - 3ffh))
0009CA EC4B F000          M         call    SEROUT
                          M           else
                          M         rcall   SEROUT
                          M           endif
                          M         endif
                          M       endif
                          M     endif
                      02078         SEROUT?C        02Eh
0009CE 0E2E               M         movlw   02Eh
                          M         L?CALL  SEROUT
                          M         RST?RP
                          M     if (PREV_ALT != 0)
                          M         bcf     WDTCON, ADSHR
                          M PREV_ALT = 0
                          M     endif
                          M     if (PREV_BANK != 0)
                          M         movlb   0
                          M PREV_BANK = 0
                          M     endif
                          M 
                          M     ifdef USE_LINKER
                          M         call    SEROUT
                          M     else
                          M       if ((SEROUT) < 1)
                          M         call    SEROUT
                          M       else
                          M         if ((SEROUT) > $)
                          M         call    SEROUT
                          M         else
                          M           if ((SEROUT) < ($ - 3ffh))
0009D0 EC4B F000          M         call    SEROUT
                          M           else
                          M         rcall   SEROUT
                          M           endif
MPASM 5.81                   PICKBYLIGHT.ASM   1-20-2021  23:46:00         PAGE 180


LOC  OBJECT CODE     LINE SOURCE TEXT
  VALUE

                          M         endif
                          M       endif
                          M     endif
                      02079         SEROUT?C        02Eh
0009D4 0E2E               M         movlw   02Eh
                          M         L?CALL  SEROUT
                          M         RST?RP
                          M     if (PREV_ALT != 0)
                          M         bcf     WDTCON, ADSHR
                          M PREV_ALT = 0
                          M     endif
                          M     if (PREV_BANK != 0)
                          M         movlb   0
                          M PREV_BANK = 0
                          M     endif
                          M 
                          M     ifdef USE_LINKER
                          M         call    SEROUT
                          M     else
                          M       if ((SEROUT) < 1)
                          M         call    SEROUT
                          M       else
                          M         if ((SEROUT) > $)
                          M         call    SEROUT
                          M         else
                          M           if ((SEROUT) < ($ - 3ffh))
0009D6 EC4B F000          M         call    SEROUT
                          M           else
                          M         rcall   SEROUT
                          M           endif
                          M         endif
                          M       endif
                          M     endif
                      02080         SEROUT?C        02Eh
0009DA 0E2E               M         movlw   02Eh
                          M         L?CALL  SEROUT
                          M         RST?RP
                          M     if (PREV_ALT != 0)
                          M         bcf     WDTCON, ADSHR
                          M PREV_ALT = 0
                          M     endif
                          M     if (PREV_BANK != 0)
                          M         movlb   0
                          M PREV_BANK = 0
                          M     endif
                          M 
                          M     ifdef USE_LINKER
                          M         call    SEROUT
                          M     else
                          M       if ((SEROUT) < 1)
                          M         call    SEROUT
                          M       else
                          M         if ((SEROUT) > $)
MPASM 5.81                   PICKBYLIGHT.ASM   1-20-2021  23:46:00         PAGE 181


LOC  OBJECT CODE     LINE SOURCE TEXT
  VALUE

                          M         call    SEROUT
                          M         else
                          M           if ((SEROUT) < ($ - 3ffh))
0009DC EC4B F000          M         call    SEROUT
                          M           else
                          M         rcall   SEROUT
                          M           endif
                          M         endif
                          M       endif
                          M     endif
                      02081         SEROUT?C        02Eh
0009E0 0E2E               M         movlw   02Eh
                          M         L?CALL  SEROUT
                          M         RST?RP
                          M     if (PREV_ALT != 0)
                          M         bcf     WDTCON, ADSHR
                          M PREV_ALT = 0
                          M     endif
                          M     if (PREV_BANK != 0)
                          M         movlb   0
                          M PREV_BANK = 0
                          M     endif
                          M 
                          M     ifdef USE_LINKER
                          M         call    SEROUT
                          M     else
                          M       if ((SEROUT) < 1)
                          M         call    SEROUT
                          M       else
                          M         if ((SEROUT) > $)
                          M         call    SEROUT
                          M         else
                          M           if ((SEROUT) < ($ - 3ffh))
0009E2 EC4B F000          M         call    SEROUT
                          M           else
                          M         rcall   SEROUT
                          M           endif
                          M         endif
                          M       endif
                          M     endif
                      02082         SEROUT?C        02Eh
0009E6 0E2E               M         movlw   02Eh
                          M         L?CALL  SEROUT
                          M         RST?RP
                          M     if (PREV_ALT != 0)
                          M         bcf     WDTCON, ADSHR
                          M PREV_ALT = 0
                          M     endif
                          M     if (PREV_BANK != 0)
                          M         movlb   0
                          M PREV_BANK = 0
                          M     endif
                          M 
MPASM 5.81                   PICKBYLIGHT.ASM   1-20-2021  23:46:00         PAGE 182


LOC  OBJECT CODE     LINE SOURCE TEXT
  VALUE

                          M     ifdef USE_LINKER
                          M         call    SEROUT
                          M     else
                          M       if ((SEROUT) < 1)
                          M         call    SEROUT
                          M       else
                          M         if ((SEROUT) > $)
                          M         call    SEROUT
                          M         else
                          M           if ((SEROUT) < ($ - 3ffh))
0009E8 EC4B F000          M         call    SEROUT
                          M           else
                          M         rcall   SEROUT
                          M           endif
                          M         endif
                          M       endif
                          M     endif
                      02083         SEROUT?C        02Eh
0009EC 0E2E               M         movlw   02Eh
                          M         L?CALL  SEROUT
                          M         RST?RP
                          M     if (PREV_ALT != 0)
                          M         bcf     WDTCON, ADSHR
                          M PREV_ALT = 0
                          M     endif
                          M     if (PREV_BANK != 0)
                          M         movlb   0
                          M PREV_BANK = 0
                          M     endif
                          M 
                          M     ifdef USE_LINKER
                          M         call    SEROUT
                          M     else
                          M       if ((SEROUT) < 1)
                          M         call    SEROUT
                          M       else
                          M         if ((SEROUT) > $)
                          M         call    SEROUT
                          M         else
                          M           if ((SEROUT) < ($ - 3ffh))
0009EE EC4B F000          M         call    SEROUT
                          M           else
                          M         rcall   SEROUT
                          M           endif
                          M         endif
                          M       endif
                          M     endif
                      02084         SEROUT?C        02Eh
0009F2 0E2E               M         movlw   02Eh
                          M         L?CALL  SEROUT
                          M         RST?RP
                          M     if (PREV_ALT != 0)
                          M         bcf     WDTCON, ADSHR
MPASM 5.81                   PICKBYLIGHT.ASM   1-20-2021  23:46:00         PAGE 183


LOC  OBJECT CODE     LINE SOURCE TEXT
  VALUE

                          M PREV_ALT = 0
                          M     endif
                          M     if (PREV_BANK != 0)
                          M         movlb   0
                          M PREV_BANK = 0
                          M     endif
                          M 
                          M     ifdef USE_LINKER
                          M         call    SEROUT
                          M     else
                          M       if ((SEROUT) < 1)
                          M         call    SEROUT
                          M       else
                          M         if ((SEROUT) > $)
                          M         call    SEROUT
                          M         else
                          M           if ((SEROUT) < ($ - 3ffh))
0009F4 EC4B F000          M         call    SEROUT
                          M           else
                          M         rcall   SEROUT
                          M           endif
                          M         endif
                          M       endif
                          M     endif
                      02085         SEROUT?C        02Eh
0009F8 0E2E               M         movlw   02Eh
                          M         L?CALL  SEROUT
                          M         RST?RP
                          M     if (PREV_ALT != 0)
                          M         bcf     WDTCON, ADSHR
                          M PREV_ALT = 0
                          M     endif
                          M     if (PREV_BANK != 0)
                          M         movlb   0
                          M PREV_BANK = 0
                          M     endif
                          M 
                          M     ifdef USE_LINKER
                          M         call    SEROUT
                          M     else
                          M       if ((SEROUT) < 1)
                          M         call    SEROUT
                          M       else
                          M         if ((SEROUT) > $)
                          M         call    SEROUT
                          M         else
                          M           if ((SEROUT) < ($ - 3ffh))
0009FA EC4B F000          M         call    SEROUT
                          M           else
                          M         rcall   SEROUT
                          M           endif
                          M         endif
                          M       endif
MPASM 5.81                   PICKBYLIGHT.ASM   1-20-2021  23:46:00         PAGE 184


LOC  OBJECT CODE     LINE SOURCE TEXT
  VALUE

                          M     endif
                      02086         SEROUT?C        02Eh
0009FE 0E2E               M         movlw   02Eh
                          M         L?CALL  SEROUT
                          M         RST?RP
                          M     if (PREV_ALT != 0)
                          M         bcf     WDTCON, ADSHR
                          M PREV_ALT = 0
                          M     endif
                          M     if (PREV_BANK != 0)
                          M         movlb   0
                          M PREV_BANK = 0
                          M     endif
                          M 
                          M     ifdef USE_LINKER
                          M         call    SEROUT
                          M     else
                          M       if ((SEROUT) < 1)
                          M         call    SEROUT
                          M       else
                          M         if ((SEROUT) > $)
                          M         call    SEROUT
                          M         else
                          M           if ((SEROUT) < ($ - 3ffh))
000A00 EC4B F000          M         call    SEROUT
                          M           else
                          M         rcall   SEROUT
                          M           endif
                          M         endif
                          M       endif
                          M     endif
                      02087         SEROUT?C        02Eh
000A04 0E2E               M         movlw   02Eh
                          M         L?CALL  SEROUT
                          M         RST?RP
                          M     if (PREV_ALT != 0)
                          M         bcf     WDTCON, ADSHR
                          M PREV_ALT = 0
                          M     endif
                          M     if (PREV_BANK != 0)
                          M         movlb   0
                          M PREV_BANK = 0
                          M     endif
                          M 
                          M     ifdef USE_LINKER
                          M         call    SEROUT
                          M     else
                          M       if ((SEROUT) < 1)
                          M         call    SEROUT
                          M       else
                          M         if ((SEROUT) > $)
                          M         call    SEROUT
                          M         else
MPASM 5.81                   PICKBYLIGHT.ASM   1-20-2021  23:46:00         PAGE 185


LOC  OBJECT CODE     LINE SOURCE TEXT
  VALUE

                          M           if ((SEROUT) < ($ - 3ffh))
000A06 EC4B F000          M         call    SEROUT
                          M           else
                          M         rcall   SEROUT
                          M           endif
                          M         endif
                          M       endif
                          M     endif
                      02088         SEROUT?C        02Eh
000A0A 0E2E               M         movlw   02Eh
                          M         L?CALL  SEROUT
                          M         RST?RP
                          M     if (PREV_ALT != 0)
                          M         bcf     WDTCON, ADSHR
                          M PREV_ALT = 0
                          M     endif
                          M     if (PREV_BANK != 0)
                          M         movlb   0
                          M PREV_BANK = 0
                          M     endif
                          M 
                          M     ifdef USE_LINKER
                          M         call    SEROUT
                          M     else
                          M       if ((SEROUT) < 1)
                          M         call    SEROUT
                          M       else
                          M         if ((SEROUT) > $)
                          M         call    SEROUT
                          M         else
                          M           if ((SEROUT) < ($ - 3ffh))
000A0C EC4B F000          M         call    SEROUT
                          M           else
                          M         rcall   SEROUT
                          M           endif
                          M         endif
                          M       endif
                          M     endif
                      02089         SEROUT?C        02Eh
000A10 0E2E               M         movlw   02Eh
                          M         L?CALL  SEROUT
                          M         RST?RP
                          M     if (PREV_ALT != 0)
                          M         bcf     WDTCON, ADSHR
                          M PREV_ALT = 0
                          M     endif
                          M     if (PREV_BANK != 0)
                          M         movlb   0
                          M PREV_BANK = 0
                          M     endif
                          M 
                          M     ifdef USE_LINKER
                          M         call    SEROUT
MPASM 5.81                   PICKBYLIGHT.ASM   1-20-2021  23:46:00         PAGE 186


LOC  OBJECT CODE     LINE SOURCE TEXT
  VALUE

                          M     else
                          M       if ((SEROUT) < 1)
                          M         call    SEROUT
                          M       else
                          M         if ((SEROUT) > $)
                          M         call    SEROUT
                          M         else
                          M           if ((SEROUT) < ($ - 3ffh))
000A12 EC4B F000          M         call    SEROUT
                          M           else
                          M         rcall   SEROUT
                          M           endif
                          M         endif
                          M       endif
                          M     endif
                      02090         SEROUT?C        00Dh
000A16 0E0D               M         movlw   00Dh
                          M         L?CALL  SEROUT
                          M         RST?RP
                          M     if (PREV_ALT != 0)
                          M         bcf     WDTCON, ADSHR
                          M PREV_ALT = 0
                          M     endif
                          M     if (PREV_BANK != 0)
                          M         movlb   0
                          M PREV_BANK = 0
                          M     endif
                          M 
                          M     ifdef USE_LINKER
                          M         call    SEROUT
                          M     else
                          M       if ((SEROUT) < 1)
                          M         call    SEROUT
                          M       else
                          M         if ((SEROUT) > $)
                          M         call    SEROUT
                          M         else
                          M           if ((SEROUT) < ($ - 3ffh))
000A18 EC4B F000          M         call    SEROUT
                          M           else
                          M         rcall   SEROUT
                          M           endif
                          M         endif
                          M       endif
                          M     endif
                      02091         SEROUT?C        00Ah
000A1C 0E0A               M         movlw   00Ah
                          M         L?CALL  SEROUT
                          M         RST?RP
                          M     if (PREV_ALT != 0)
                          M         bcf     WDTCON, ADSHR
                          M PREV_ALT = 0
                          M     endif
MPASM 5.81                   PICKBYLIGHT.ASM   1-20-2021  23:46:00         PAGE 187


LOC  OBJECT CODE     LINE SOURCE TEXT
  VALUE

                          M     if (PREV_BANK != 0)
                          M         movlb   0
                          M PREV_BANK = 0
                          M     endif
                          M 
                          M     ifdef USE_LINKER
                          M         call    SEROUT
                          M     else
                          M       if ((SEROUT) < 1)
                          M         call    SEROUT
                          M       else
                          M         if ((SEROUT) > $)
                          M         call    SEROUT
                          M         else
                          M           if ((SEROUT) < ($ - 3ffh))
000A1E EC4B F000          M         call    SEROUT
                          M           else
                          M         rcall   SEROUT
                          M           endif
                          M         endif
                          M       endif
                          M     endif
                      02092 
                      02093 ; C:\USERS\DMILOSAVLJEVIC\DOCUMENTS\PROJECT\TECOMATIC\PICKBYLIGHT\PICKBYLIGHT.PBP       00110       paus
                            e 30 
                      02094         PAUSE?C 01Eh
                          M     if (((01Eh) >> 8) == 0)
                          M         MOVE?CA 01Eh
000A22 0E1E               M         movlw   low (01Eh)
                          M         L?CALL  PAUSE
                          M         RST?RP
                          M     if (PREV_ALT != 0)
                          M         bcf     WDTCON, ADSHR
                          M PREV_ALT = 0
                          M     endif
                          M     if (PREV_BANK != 0)
                          M         movlb   0
                          M PREV_BANK = 0
                          M     endif
                          M 
                          M     ifdef USE_LINKER
                          M         call    PAUSE
                          M     else
                          M       if ((PAUSE) < 1)
                          M         call    PAUSE
                          M       else
                          M         if ((PAUSE) > $)
                          M         call    PAUSE
                          M         else
                          M           if ((PAUSE) < ($ - 3ffh))
000A24 EC99 F000          M         call    PAUSE
                          M           else
                          M         rcall   PAUSE
MPASM 5.81                   PICKBYLIGHT.ASM   1-20-2021  23:46:00         PAGE 188


LOC  OBJECT CODE     LINE SOURCE TEXT
  VALUE

                          M           endif
                          M         endif
                          M       endif
                          M     endif
                          M     else
                          M         MOVE?CB (01Eh) >> 8, R1 + 1
                          M         MOVE?CA low (01Eh)
                          M         L?CALL  PAUSEL
                          M     endif
                      02095 
                      02096 ; C:\USERS\DMILOSAVLJEVIC\DOCUMENTS\PROJECT\TECOMATIC\PICKBYLIGHT\PICKBYLIGHT.PBP       00111       gosu
                            b SendInterfaceDetail 
                      02097         GOSUB?L _SendInterfaceDetail
  0000                    M     local dlabel
                          M     ifdef DEBUG_STACK
                          M         CHK?RP  DEBUG_STACK
                          M       ifdef DEBUG_STACK_ADDR
                          M         bcf     STATUS, C
                          M         rlcf    DEBUG_STACK, W
                          M         addlw   DEBUG_STACK_ADDR
                          M         movwf   FSR0L
                          M         clrf    FSR0H
                          M         movlw   low (dlabel)
                          M         movwf   POSTINC0
                          M         movlw   high (dlabel)
                          M         movwf   INDF0
                          M       endif
                          M         incf    DEBUG_STACK, F
                          M     endif
                          M         L?CALL  _SendInterfaceDetail
                          M         RST?RP
                          M     if (PREV_ALT != 0)
                          M         bcf     WDTCON, ADSHR
                          M PREV_ALT = 0
                          M     endif
                          M     if (PREV_BANK != 0)
                          M         movlb   0
                          M PREV_BANK = 0
                          M     endif
                          M 
                          M     ifdef USE_LINKER
                          M         call    _SendInterfaceDetail
                          M     else
                          M       if ((_SendInterfaceDetail) < 1)
                          M         call    _SendInterfaceDetail
                          M       else
                          M         if ((_SendInterfaceDetail) > $)
000A28 ECF1 F005          M         call    _SendInterfaceDetail
                          M         else
                          M           if ((_SendInterfaceDetail) < ($ - 3ffh))
                          M         call    _SendInterfaceDetail
                          M           else
                          M         rcall   _SendInterfaceDetail
MPASM 5.81                   PICKBYLIGHT.ASM   1-20-2021  23:46:00         PAGE 189


LOC  OBJECT CODE     LINE SOURCE TEXT
  VALUE

                          M           endif
                          M         endif
                          M       endif
                          M     endif
000A2C                    M dlabel
                      02098 
                      02099 ; C:\USERS\DMILOSAVLJEVIC\DOCUMENTS\PROJECT\TECOMATIC\PICKBYLIGHT\PICKBYLIGHT.PBP       00112       goto
                             Main
                      02100         GOTO?L  _Main
                          M         L?GOTO  _Main
                          M     ifdef USE_LINKER
                          M         CLRWDT?
                          M     else
                          M       if ($ == (_Main))
                          M         CLRWDT?
                          M       endif
                          M     endif
                          M 
                          M         RST?RP
                          M     if (PREV_ALT != 0)
                          M         bcf     WDTCON, ADSHR
                          M PREV_ALT = 0
                          M     endif
                          M     if (PREV_BANK != 0)
                          M         movlb   0
                          M PREV_BANK = 0
                          M     endif
                          M 
                          M     ifdef USE_LINKER
                          M         goto    _Main
                          M     else
                          M       if ((_Main) < 1)
                          M         goto    _Main
                          M       else
                          M         if ((_Main) > $)
000A2C EF18 F005          M         goto    _Main
                          M         else
                          M           if ((_Main) < ($ - 3ffh))
                          M         goto    _Main
                          M           else
                          M         bra     _Main
                          M           endif
                          M         endif
                          M       endif
                          M     endif
                      02101 
                      02102 ; C:\USERS\DMILOSAVLJEVIC\DOCUMENTS\PROJECT\TECOMATIC\PICKBYLIGHT\PICKBYLIGHT.PBP       00114   Main:  
                      02103 
                      02104         LABEL?L _Main   
                          M         RST?RP
                          M     if (PREV_ALT != 0)
                          M         bcf     WDTCON, ADSHR
                          M PREV_ALT = 0
MPASM 5.81                   PICKBYLIGHT.ASM   1-20-2021  23:46:00         PAGE 190


LOC  OBJECT CODE     LINE SOURCE TEXT
  VALUE

                          M     endif
                          M     if (PREV_BANK != 0)
                          M         movlb   0
                          M PREV_BANK = 0
                          M     endif
                          M     ifdef PM_USED
                          M         LALL
                          M _Main
                          M         XALL
                          M     else
000A30                    M _Main
                          M     endif
                      02105 
                      02106 ; C:\USERS\DMILOSAVLJEVIC\DOCUMENTS\PROJECT\TECOMATIC\PICKBYLIGHT\PICKBYLIGHT.PBP       00115       gosu
                            b DoOutputs  
                      02107         GOSUB?L _DoOutputs
  0000                    M     local dlabel
                          M     ifdef DEBUG_STACK
                          M         CHK?RP  DEBUG_STACK
                          M       ifdef DEBUG_STACK_ADDR
                          M         bcf     STATUS, C
                          M         rlcf    DEBUG_STACK, W
                          M         addlw   DEBUG_STACK_ADDR
                          M         movwf   FSR0L
                          M         clrf    FSR0H
                          M         movlw   low (dlabel)
                          M         movwf   POSTINC0
                          M         movlw   high (dlabel)
                          M         movwf   INDF0
                          M       endif
                          M         incf    DEBUG_STACK, F
                          M     endif
                          M         L?CALL  _DoOutputs
                          M         RST?RP
                          M     if (PREV_ALT != 0)
                          M         bcf     WDTCON, ADSHR
                          M PREV_ALT = 0
                          M     endif
                          M     if (PREV_BANK != 0)
                          M         movlb   0
                          M PREV_BANK = 0
                          M     endif
                          M 
                          M     ifdef USE_LINKER
                          M         call    _DoOutputs
                          M     else
                          M       if ((_DoOutputs) < 1)
                          M         call    _DoOutputs
                          M       else
                          M         if ((_DoOutputs) > $)
000A30 EC9E F005          M         call    _DoOutputs
                          M         else
                          M           if ((_DoOutputs) < ($ - 3ffh))
MPASM 5.81                   PICKBYLIGHT.ASM   1-20-2021  23:46:00         PAGE 191


LOC  OBJECT CODE     LINE SOURCE TEXT
  VALUE

                          M         call    _DoOutputs
                          M           else
                          M         rcall   _DoOutputs
                          M           endif
                          M         endif
                          M       endif
                          M     endif
000A34                    M dlabel
                      02108 
                      02109 ; C:\USERS\DMILOSAVLJEVIC\DOCUMENTS\PROJECT\TECOMATIC\PICKBYLIGHT\PICKBYLIGHT.PBP       00116       paus
                            e 50
                      02110         PAUSE?C 032h
                          M     if (((032h) >> 8) == 0)
                          M         MOVE?CA 032h
000A34 0E32               M         movlw   low (032h)
                          M         L?CALL  PAUSE
                          M         RST?RP
                          M     if (PREV_ALT != 0)
                          M         bcf     WDTCON, ADSHR
                          M PREV_ALT = 0
                          M     endif
                          M     if (PREV_BANK != 0)
                          M         movlb   0
                          M PREV_BANK = 0
                          M     endif
                          M 
                          M     ifdef USE_LINKER
                          M         call    PAUSE
                          M     else
                          M       if ((PAUSE) < 1)
                          M         call    PAUSE
                          M       else
                          M         if ((PAUSE) > $)
                          M         call    PAUSE
                          M         else
                          M           if ((PAUSE) < ($ - 3ffh))
000A36 EC99 F000          M         call    PAUSE
                          M           else
                          M         rcall   PAUSE
                          M           endif
                          M         endif
                          M       endif
                          M     endif
                          M     else
                          M         MOVE?CB (032h) >> 8, R1 + 1
                          M         MOVE?CA low (032h)
                          M         L?CALL  PAUSEL
                          M     endif
                      02111 
                      02112 ; C:\USERS\DMILOSAVLJEVIC\DOCUMENTS\PROJECT\TECOMATIC\PICKBYLIGHT\PICKBYLIGHT.PBP       00117   goto Mai
                            n 
                      02113         GOTO?L  _Main
                          M         L?GOTO  _Main
MPASM 5.81                   PICKBYLIGHT.ASM   1-20-2021  23:46:00         PAGE 192


LOC  OBJECT CODE     LINE SOURCE TEXT
  VALUE

                          M     ifdef USE_LINKER
                          M         CLRWDT?
                          M     else
                          M       if ($ == (_Main))
                          M         CLRWDT?
                          M       endif
                          M     endif
                          M 
                          M         RST?RP
                          M     if (PREV_ALT != 0)
                          M         bcf     WDTCON, ADSHR
                          M PREV_ALT = 0
                          M     endif
                          M     if (PREV_BANK != 0)
                          M         movlb   0
                          M PREV_BANK = 0
                          M     endif
                          M 
                          M     ifdef USE_LINKER
                          M         goto    _Main
                          M     else
                          M       if ((_Main) < 1)
                          M         goto    _Main
                          M       else
                          M         if ((_Main) > $)
                          M         goto    _Main
                          M         else
                          M           if ((_Main) < ($ - 3ffh))
                          M         goto    _Main
                          M           else
000A3A D7FA               M         bra     _Main
                          M           endif
                          M         endif
                          M       endif
                          M     endif
                      02114 
                      02115 ; C:\USERS\DMILOSAVLJEVIC\DOCUMENTS\PROJECT\TECOMATIC\PICKBYLIGHT\PICKBYLIGHT.PBP       00120   DoInputs
                            :
                      02116 
                      02117         LABEL?L _DoInputs       
                          M         RST?RP
                          M     if (PREV_ALT != 0)
                          M         bcf     WDTCON, ADSHR
                          M PREV_ALT = 0
                          M     endif
                          M     if (PREV_BANK != 0)
                          M         movlb   0
                          M PREV_BANK = 0
                          M     endif
                          M     ifdef PM_USED
                          M         LALL
                          M _DoInputs
                          M         XALL
MPASM 5.81                   PICKBYLIGHT.ASM   1-20-2021  23:46:00         PAGE 193


LOC  OBJECT CODE     LINE SOURCE TEXT
  VALUE

                          M     else
000A3C                    M _DoInputs
                          M     endif
                      02118 
                      02119 ; C:\USERS\DMILOSAVLJEVIC\DOCUMENTS\PROJECT\TECOMATIC\PICKBYLIGHT\PICKBYLIGHT.PBP       00121       gosu
                            b ReadInputs
                      02120         GOSUB?L _ReadInputs
  0000                    M     local dlabel
                          M     ifdef DEBUG_STACK
                          M         CHK?RP  DEBUG_STACK
                          M       ifdef DEBUG_STACK_ADDR
                          M         bcf     STATUS, C
                          M         rlcf    DEBUG_STACK, W
                          M         addlw   DEBUG_STACK_ADDR
                          M         movwf   FSR0L
                          M         clrf    FSR0H
                          M         movlw   low (dlabel)
                          M         movwf   POSTINC0
                          M         movlw   high (dlabel)
                          M         movwf   INDF0
                          M       endif
                          M         incf    DEBUG_STACK, F
                          M     endif
                          M         L?CALL  _ReadInputs
                          M         RST?RP
                          M     if (PREV_ALT != 0)
                          M         bcf     WDTCON, ADSHR
                          M PREV_ALT = 0
                          M     endif
                          M     if (PREV_BANK != 0)
                          M         movlb   0
                          M PREV_BANK = 0
                          M     endif
                          M 
                          M     ifdef USE_LINKER
                          M         call    _ReadInputs
                          M     else
                          M       if ((_ReadInputs) < 1)
                          M         call    _ReadInputs
                          M       else
                          M         if ((_ReadInputs) > $)
000A3C EC33 F006          M         call    _ReadInputs
                          M         else
                          M           if ((_ReadInputs) < ($ - 3ffh))
                          M         call    _ReadInputs
                          M           else
                          M         rcall   _ReadInputs
                          M           endif
                          M         endif
                          M       endif
                          M     endif
000A40                    M dlabel
                      02121 
MPASM 5.81                   PICKBYLIGHT.ASM   1-20-2021  23:46:00         PAGE 194


LOC  OBJECT CODE     LINE SOURCE TEXT
  VALUE

                      02122 ; C:\USERS\DMILOSAVLJEVIC\DOCUMENTS\PROJECT\TECOMATIC\PICKBYLIGHT\PICKBYLIGHT.PBP       00122       if I
                            nputA1 = 1 or InputA2 = 1 or InputA3 = 1 or InputA4 = 1  then gosub senddata
                      02123         CMPEQ?TCB       _InputA1, 001h, T1
                          M     if (((001h) == 0) | ((001h) == 1))
000A40 6AE8               M         clrf    WREG
                          M         CHK?RP  PB01
                          M     if (((PB01)  & 8000h) != PREV_ALT)
                          M       if ((PB01)  & 8000h)
                          M         bsf     WDTCON, ADSHR
                          M       else
                          M         bcf     WDTCON, ADSHR
                          M       endif
                          M PREV_ALT = (PB01)  & 8000h
                          M     endif
                          M     if ((((PB01)  & 0fffh) > BANKA_END) & (((PB01)  & 0fffh) < (0f01h + BANKA_END)))
                          M       if (((PB01)  & 0f00h) != (PREV_BANK << 8))
                          M         movlb   high (PB01)
                          M PREV_BANK = high (PB01)
                          M       endif
                          M     endif
                          M       if ((001h) == 0)
                          M         btfss PB01,  000h
                          M       else
000A42 B02A               M         btfsc PB01,  000h
                          M       endif
000A44 68E8               M         setf    WREG
                          M         MOVE?AB T1
                          M         CHK?RP  T1
                          M     if (((T1)    & 8000h) != PREV_ALT)
                          M       if ((T1)    & 8000h)
                          M         bsf     WDTCON, ADSHR
                          M       else
                          M         bcf     WDTCON, ADSHR
                          M       endif
                          M PREV_ALT = (T1)    & 8000h
                          M     endif
                          M     if ((((T1)    & 0fffh) > BANKA_END) & (((T1)    & 0fffh) < (0f01h + BANKA_END)))
                          M       if (((T1)    & 0f00h) != (PREV_BANK << 8))
                          M         movlb   high (T1)
                          M PREV_BANK = high (T1)
                          M       endif
                          M     endif
000A46 6E14               M         movwf   T1
                          M     else
                          M         CHK?RP  T1
                          M         clrf    T1
                          M     endif
                      02124         CMPEQ?TCB       _InputA2, 001h, T2
                          M     if (((001h) == 0) | ((001h) == 1))
000A48 6AE8               M         clrf    WREG
                          M         CHK?RP  PB01
                          M     if (((PB01)  & 8000h) != PREV_ALT)
                          M       if ((PB01)  & 8000h)
MPASM 5.81                   PICKBYLIGHT.ASM   1-20-2021  23:46:00         PAGE 195


LOC  OBJECT CODE     LINE SOURCE TEXT
  VALUE

                          M         bsf     WDTCON, ADSHR
                          M       else
                          M         bcf     WDTCON, ADSHR
                          M       endif
                          M PREV_ALT = (PB01)  & 8000h
                          M     endif
                          M     if ((((PB01)  & 0fffh) > BANKA_END) & (((PB01)  & 0fffh) < (0f01h + BANKA_END)))
                          M       if (((PB01)  & 0f00h) != (PREV_BANK << 8))
                          M         movlb   high (PB01)
                          M PREV_BANK = high (PB01)
                          M       endif
                          M     endif
                          M       if ((001h) == 0)
                          M         btfss PB01,  001h
                          M       else
000A4A B22A               M         btfsc PB01,  001h
                          M       endif
000A4C 68E8               M         setf    WREG
                          M         MOVE?AB T2
                          M         CHK?RP  T2
                          M     if (((T2)    & 8000h) != PREV_ALT)
                          M       if ((T2)    & 8000h)
                          M         bsf     WDTCON, ADSHR
                          M       else
                          M         bcf     WDTCON, ADSHR
                          M       endif
                          M PREV_ALT = (T2)    & 8000h
                          M     endif
                          M     if ((((T2)    & 0fffh) > BANKA_END) & (((T2)    & 0fffh) < (0f01h + BANKA_END)))
                          M       if (((T2)    & 0f00h) != (PREV_BANK << 8))
                          M         movlb   high (T2)
                          M PREV_BANK = high (T2)
                          M       endif
                          M     endif
000A4E 6E16               M         movwf   T2
                          M     else
                          M         CHK?RP  T2
                          M         clrf    T2
                          M     endif
                      02125         LOR?BBW T1, T2, T2
                          M         MOVE?BB T1,   R0
000A50 C014 F002          M         movff   T1,  R0
                          M         MOVE?BA T2
                          M         CHK?RP  T2
                          M     if (((T2)    & 8000h) != PREV_ALT)
                          M       if ((T2)    & 8000h)
                          M         bsf     WDTCON, ADSHR
                          M       else
                          M         bcf     WDTCON, ADSHR
                          M       endif
                          M PREV_ALT = (T2)    & 8000h
                          M     endif
                          M     if ((((T2)    & 0fffh) > BANKA_END) & (((T2)    & 0fffh) < (0f01h + BANKA_END)))
MPASM 5.81                   PICKBYLIGHT.ASM   1-20-2021  23:46:00         PAGE 196


LOC  OBJECT CODE     LINE SOURCE TEXT
  VALUE

                          M       if (((T2)    & 0f00h) != (PREV_BANK << 8))
                          M         movlb   high (T2)
                          M PREV_BANK = high (T2)
                          M       endif
                          M     endif
000A54 5016               M         movf    T2,  W
                          M         L?CALL  LOR
                          M         RST?RP
                          M     if (PREV_ALT != 0)
                          M         bcf     WDTCON, ADSHR
                          M PREV_ALT = 0
                          M     endif
                          M     if (PREV_BANK != 0)
                          M         movlb   0
                          M PREV_BANK = 0
                          M     endif
                          M 
                          M     ifdef USE_LINKER
                          M         call    LOR
                          M     else
                          M       if ((LOR)   < 1)
                          M         call    LOR
                          M       else
                          M         if ((LOR)   > $)
                          M         call    LOR
                          M         else
                          M           if ((LOR)   < ($ - 3ffh))
000A56 ECB8 F000          M         call    LOR
                          M           else
                          M         rcall   LOR
                          M           endif
                          M         endif
                          M       endif
                          M     endif
                          M         MOVE?AB T2
                          M         CHK?RP  T2
                          M     if (((T2)    & 8000h) != PREV_ALT)
                          M       if ((T2)    & 8000h)
                          M         bsf     WDTCON, ADSHR
                          M       else
                          M         bcf     WDTCON, ADSHR
                          M       endif
                          M PREV_ALT = (T2)    & 8000h
                          M     endif
                          M     if ((((T2)    & 0fffh) > BANKA_END) & (((T2)    & 0fffh) < (0f01h + BANKA_END)))
                          M       if (((T2)    & 0f00h) != (PREV_BANK << 8))
                          M         movlb   high (T2)
                          M PREV_BANK = high (T2)
                          M       endif
                          M     endif
000A5A 6E16               M         movwf   T2
000A5C 6E17               M         movwf   T2   + 1
                      02126         CMPEQ?TCB       _InputA3, 001h, T3
MPASM 5.81                   PICKBYLIGHT.ASM   1-20-2021  23:46:00         PAGE 197


LOC  OBJECT CODE     LINE SOURCE TEXT
  VALUE

                          M     if (((001h) == 0) | ((001h) == 1))
000A5E 6AE8               M         clrf    WREG
                          M         CHK?RP  PB01
                          M     if (((PB01)  & 8000h) != PREV_ALT)
                          M       if ((PB01)  & 8000h)
                          M         bsf     WDTCON, ADSHR
                          M       else
                          M         bcf     WDTCON, ADSHR
                          M       endif
                          M PREV_ALT = (PB01)  & 8000h
                          M     endif
                          M     if ((((PB01)  & 0fffh) > BANKA_END) & (((PB01)  & 0fffh) < (0f01h + BANKA_END)))
                          M       if (((PB01)  & 0f00h) != (PREV_BANK << 8))
                          M         movlb   high (PB01)
                          M PREV_BANK = high (PB01)
                          M       endif
                          M     endif
                          M       if ((001h) == 0)
                          M         btfss PB01,  002h
                          M       else
000A60 B42A               M         btfsc PB01,  002h
                          M       endif
000A62 68E8               M         setf    WREG
                          M         MOVE?AB T3
                          M         CHK?RP  T3
                          M     if (((T3)    & 8000h) != PREV_ALT)
                          M       if ((T3)    & 8000h)
                          M         bsf     WDTCON, ADSHR
                          M       else
                          M         bcf     WDTCON, ADSHR
                          M       endif
                          M PREV_ALT = (T3)    & 8000h
                          M     endif
                          M     if ((((T3)    & 0fffh) > BANKA_END) & (((T3)    & 0fffh) < (0f01h + BANKA_END)))
                          M       if (((T3)    & 0f00h) != (PREV_BANK << 8))
                          M         movlb   high (T3)
                          M PREV_BANK = high (T3)
                          M       endif
                          M     endif
000A64 6E18               M         movwf   T3
                          M     else
                          M         CHK?RP  T3
                          M         clrf    T3
                          M     endif
                      02127         LOR?WBW T2, T3, T3
                          M         MOVE?BA T2
                          M         CHK?RP  T2
                          M     if (((T2)    & 8000h) != PREV_ALT)
                          M       if ((T2)    & 8000h)
                          M         bsf     WDTCON, ADSHR
                          M       else
                          M         bcf     WDTCON, ADSHR
                          M       endif
MPASM 5.81                   PICKBYLIGHT.ASM   1-20-2021  23:46:00         PAGE 198


LOC  OBJECT CODE     LINE SOURCE TEXT
  VALUE

                          M PREV_ALT = (T2)    & 8000h
                          M     endif
                          M     if ((((T2)    & 0fffh) > BANKA_END) & (((T2)    & 0fffh) < (0f01h + BANKA_END)))
                          M       if (((T2)    & 0f00h) != (PREV_BANK << 8))
                          M         movlb   high (T2)
                          M PREV_BANK = high (T2)
                          M       endif
                          M     endif
000A66 5016               M         movf    T2,  W
000A68 1017               M         iorwf   T2  + 1, W
000A6A 6E02               M         movwf   R0
                          M         MOVE?BA T3
                          M         CHK?RP  T3
                          M     if (((T3)    & 8000h) != PREV_ALT)
                          M       if ((T3)    & 8000h)
                          M         bsf     WDTCON, ADSHR
                          M       else
                          M         bcf     WDTCON, ADSHR
                          M       endif
                          M PREV_ALT = (T3)    & 8000h
                          M     endif
                          M     if ((((T3)    & 0fffh) > BANKA_END) & (((T3)    & 0fffh) < (0f01h + BANKA_END)))
                          M       if (((T3)    & 0f00h) != (PREV_BANK << 8))
                          M         movlb   high (T3)
                          M PREV_BANK = high (T3)
                          M       endif
                          M     endif
000A6C 5018               M         movf    T3,  W
                          M         L?CALL  LOR
                          M         RST?RP
                          M     if (PREV_ALT != 0)
                          M         bcf     WDTCON, ADSHR
                          M PREV_ALT = 0
                          M     endif
                          M     if (PREV_BANK != 0)
                          M         movlb   0
                          M PREV_BANK = 0
                          M     endif
                          M 
                          M     ifdef USE_LINKER
                          M         call    LOR
                          M     else
                          M       if ((LOR)   < 1)
                          M         call    LOR
                          M       else
                          M         if ((LOR)   > $)
                          M         call    LOR
                          M         else
                          M           if ((LOR)   < ($ - 3ffh))
000A6E ECB8 F000          M         call    LOR
                          M           else
                          M         rcall   LOR
                          M           endif
MPASM 5.81                   PICKBYLIGHT.ASM   1-20-2021  23:46:00         PAGE 199


LOC  OBJECT CODE     LINE SOURCE TEXT
  VALUE

                          M         endif
                          M       endif
                          M     endif
                          M         MOVE?AB T3
                          M         CHK?RP  T3
                          M     if (((T3)    & 8000h) != PREV_ALT)
                          M       if ((T3)    & 8000h)
                          M         bsf     WDTCON, ADSHR
                          M       else
                          M         bcf     WDTCON, ADSHR
                          M       endif
                          M PREV_ALT = (T3)    & 8000h
                          M     endif
                          M     if ((((T3)    & 0fffh) > BANKA_END) & (((T3)    & 0fffh) < (0f01h + BANKA_END)))
                          M       if (((T3)    & 0f00h) != (PREV_BANK << 8))
                          M         movlb   high (T3)
                          M PREV_BANK = high (T3)
                          M       endif
                          M     endif
000A72 6E18               M         movwf   T3
000A74 6E19               M         movwf   T3   + 1
                      02128         CMPEQ?TCB       _InputA4, 001h, T4
                          M     if (((001h) == 0) | ((001h) == 1))
000A76 6AE8               M         clrf    WREG
                          M         CHK?RP  PB01
                          M     if (((PB01)  & 8000h) != PREV_ALT)
                          M       if ((PB01)  & 8000h)
                          M         bsf     WDTCON, ADSHR
                          M       else
                          M         bcf     WDTCON, ADSHR
                          M       endif
                          M PREV_ALT = (PB01)  & 8000h
                          M     endif
                          M     if ((((PB01)  & 0fffh) > BANKA_END) & (((PB01)  & 0fffh) < (0f01h + BANKA_END)))
                          M       if (((PB01)  & 0f00h) != (PREV_BANK << 8))
                          M         movlb   high (PB01)
                          M PREV_BANK = high (PB01)
                          M       endif
                          M     endif
                          M       if ((001h) == 0)
                          M         btfss PB01,  003h
                          M       else
000A78 B62A               M         btfsc PB01,  003h
                          M       endif
000A7A 68E8               M         setf    WREG
                          M         MOVE?AB T4
                          M         CHK?RP  T4
                          M     if (((T4)    & 8000h) != PREV_ALT)
                          M       if ((T4)    & 8000h)
                          M         bsf     WDTCON, ADSHR
                          M       else
                          M         bcf     WDTCON, ADSHR
                          M       endif
MPASM 5.81                   PICKBYLIGHT.ASM   1-20-2021  23:46:00         PAGE 200


LOC  OBJECT CODE     LINE SOURCE TEXT
  VALUE

                          M PREV_ALT = (T4)    & 8000h
                          M     endif
                          M     if ((((T4)    & 0fffh) > BANKA_END) & (((T4)    & 0fffh) < (0f01h + BANKA_END)))
                          M       if (((T4)    & 0f00h) != (PREV_BANK << 8))
                          M         movlb   high (T4)
                          M PREV_BANK = high (T4)
                          M       endif
                          M     endif
000A7C 6E1A               M         movwf   T4
                          M     else
                          M         CHK?RP  T4
                          M         clrf    T4
                          M     endif
                      02129         LOR?WBW T3, T4, T4
                          M         MOVE?BA T3
                          M         CHK?RP  T3
                          M     if (((T3)    & 8000h) != PREV_ALT)
                          M       if ((T3)    & 8000h)
                          M         bsf     WDTCON, ADSHR
                          M       else
                          M         bcf     WDTCON, ADSHR
                          M       endif
                          M PREV_ALT = (T3)    & 8000h
                          M     endif
                          M     if ((((T3)    & 0fffh) > BANKA_END) & (((T3)    & 0fffh) < (0f01h + BANKA_END)))
                          M       if (((T3)    & 0f00h) != (PREV_BANK << 8))
                          M         movlb   high (T3)
                          M PREV_BANK = high (T3)
                          M       endif
                          M     endif
000A7E 5018               M         movf    T3,  W
000A80 1019               M         iorwf   T3  + 1, W
000A82 6E02               M         movwf   R0
                          M         MOVE?BA T4
                          M         CHK?RP  T4
                          M     if (((T4)    & 8000h) != PREV_ALT)
                          M       if ((T4)    & 8000h)
                          M         bsf     WDTCON, ADSHR
                          M       else
                          M         bcf     WDTCON, ADSHR
                          M       endif
                          M PREV_ALT = (T4)    & 8000h
                          M     endif
                          M     if ((((T4)    & 0fffh) > BANKA_END) & (((T4)    & 0fffh) < (0f01h + BANKA_END)))
                          M       if (((T4)    & 0f00h) != (PREV_BANK << 8))
                          M         movlb   high (T4)
                          M PREV_BANK = high (T4)
                          M       endif
                          M     endif
000A84 501A               M         movf    T4,  W
                          M         L?CALL  LOR
                          M         RST?RP
                          M     if (PREV_ALT != 0)
MPASM 5.81                   PICKBYLIGHT.ASM   1-20-2021  23:46:00         PAGE 201


LOC  OBJECT CODE     LINE SOURCE TEXT
  VALUE

                          M         bcf     WDTCON, ADSHR
                          M PREV_ALT = 0
                          M     endif
                          M     if (PREV_BANK != 0)
                          M         movlb   0
                          M PREV_BANK = 0
                          M     endif
                          M 
                          M     ifdef USE_LINKER
                          M         call    LOR
                          M     else
                          M       if ((LOR)   < 1)
                          M         call    LOR
                          M       else
                          M         if ((LOR)   > $)
                          M         call    LOR
                          M         else
                          M           if ((LOR)   < ($ - 3ffh))
000A86 ECB8 F000          M         call    LOR
                          M           else
                          M         rcall   LOR
                          M           endif
                          M         endif
                          M       endif
                          M     endif
                          M         MOVE?AB T4
                          M         CHK?RP  T4
                          M     if (((T4)    & 8000h) != PREV_ALT)
                          M       if ((T4)    & 8000h)
                          M         bsf     WDTCON, ADSHR
                          M       else
                          M         bcf     WDTCON, ADSHR
                          M       endif
                          M PREV_ALT = (T4)    & 8000h
                          M     endif
                          M     if ((((T4)    & 0fffh) > BANKA_END) & (((T4)    & 0fffh) < (0f01h + BANKA_END)))
                          M       if (((T4)    & 0f00h) != (PREV_BANK << 8))
                          M         movlb   high (T4)
                          M PREV_BANK = high (T4)
                          M       endif
                          M     endif
000A8A 6E1A               M         movwf   T4
000A8C 6E1B               M         movwf   T4   + 1
                      02130         CMPF?WL T4, L00006
                          M         CLRWDT?
                          M     ifndef NO_CLRWDT
000A8E 0004               M         clrwdt
                          M     endif
                          M         MOVE?BA T4
                          M         CHK?RP  T4
                          M     if (((T4)    & 8000h) != PREV_ALT)
                          M       if ((T4)    & 8000h)
                          M         bsf     WDTCON, ADSHR
MPASM 5.81                   PICKBYLIGHT.ASM   1-20-2021  23:46:00         PAGE 202


LOC  OBJECT CODE     LINE SOURCE TEXT
  VALUE

                          M       else
                          M         bcf     WDTCON, ADSHR
                          M       endif
                          M PREV_ALT = (T4)    & 8000h
                          M     endif
                          M     if ((((T4)    & 0fffh) > BANKA_END) & (((T4)    & 0fffh) < (0f01h + BANKA_END)))
                          M       if (((T4)    & 0f00h) != (PREV_BANK << 8))
                          M         movlb   high (T4)
                          M PREV_BANK = high (T4)
                          M       endif
                          M     endif
000A90 501A               M         movf    T4,  W
000A92 101B               M         iorwf   (T4)  + 1, W
                          M         BIT?GOTO 1, STATUS, Z, L00006
                          M     ifdef USE_LINKER
                          M         CLRWDT?
                          M     else
                          M       if ($ == (L00006))
                          M         CLRWDT?
                          M       endif
                          M     endif
                          M 
                          M     if (((STATUS) > BANKA_END) & ((STATUS) < (0f01h + BANKA_END)))
                          M         bcf     STATUS, OV
                          M         CHK?RP  STATUS
                          M       if ((1)      == 0)
                          M         btfss   STATUS, Z
                          M       else
                          M         btfsc   STATUS, Z
                          M       endif
                          M         bsf     STATUS, OV
                          M         RST?RP
                          M       ifdef USE_LINKER
                          M         btfsc   STATUS, OV
                          M         goto    L00006
                          M       else
                          M         if ((L00006) < 1)
                          M         btfsc   STATUS, OV
                          M         goto    L00006
                          M         else
                          M           if ((L00006) > $)
                          M         btfsc   STATUS, OV
                          M         goto    L00006
                          M           else
                          M             if ((L00006) < ($ - 7fh))
                          M         btfsc   STATUS, OV
                          M         goto    L00006
                          M             else
                          M         bov     L00006
                          M             endif
                          M           endif
                          M         endif
                          M       endif
MPASM 5.81                   PICKBYLIGHT.ASM   1-20-2021  23:46:00         PAGE 203


LOC  OBJECT CODE     LINE SOURCE TEXT
  VALUE

                          M     else
                          M         RST?RP
                          M     if (PREV_ALT != 0)
                          M         bcf     WDTCON, ADSHR
                          M PREV_ALT = 0
                          M     endif
                          M     if (PREV_BANK != 0)
                          M         movlb   0
                          M PREV_BANK = 0
                          M     endif
                          M       if ((1)      == 0)
                          M         btfss   STATUS, Z
                          M       else
000A94 B4D8               M         btfsc   STATUS, Z
                          M       endif
                          M       ifdef USE_LINKER
                          M         goto    L00006
                          M       else
                          M         if ((L00006) < 1)
                          M         goto    L00006
                          M         else
                          M           if ((L00006) > $)
000A96 EF4F F005          M         goto    L00006
                          M           else
                          M             if ((L00006) < ($ - 3ffh))
                          M         goto    L00006
                          M             else
                          M         bra     L00006
                          M             endif
                          M           endif
                          M         endif
                          M       endif
                          M     endif
                      02131         GOSUB?L _senddata
  0000                    M     local dlabel
                          M     ifdef DEBUG_STACK
                          M         CHK?RP  DEBUG_STACK
                          M       ifdef DEBUG_STACK_ADDR
                          M         bcf     STATUS, C
                          M         rlcf    DEBUG_STACK, W
                          M         addlw   DEBUG_STACK_ADDR
                          M         movwf   FSR0L
                          M         clrf    FSR0H
                          M         movlw   low (dlabel)
                          M         movwf   POSTINC0
                          M         movlw   high (dlabel)
                          M         movwf   INDF0
                          M       endif
                          M         incf    DEBUG_STACK, F
                          M     endif
                          M         L?CALL  _senddata
                          M         RST?RP
                          M     if (PREV_ALT != 0)
MPASM 5.81                   PICKBYLIGHT.ASM   1-20-2021  23:46:00         PAGE 204


LOC  OBJECT CODE     LINE SOURCE TEXT
  VALUE

                          M         bcf     WDTCON, ADSHR
                          M PREV_ALT = 0
                          M     endif
                          M     if (PREV_BANK != 0)
                          M         movlb   0
                          M PREV_BANK = 0
                          M     endif
                          M 
                          M     ifdef USE_LINKER
                          M         call    _senddata
                          M     else
                          M       if ((_senddata) < 1)
                          M         call    _senddata
                          M       else
                          M         if ((_senddata) > $)
000A9A EC60 F005          M         call    _senddata
                          M         else
                          M           if ((_senddata) < ($ - 3ffh))
                          M         call    _senddata
                          M           else
                          M         rcall   _senddata
                          M           endif
                          M         endif
                          M       endif
                          M     endif
000A9E                    M dlabel
                      02132         LABEL?L L00006  
                          M         RST?RP
                          M     if (PREV_ALT != 0)
                          M         bcf     WDTCON, ADSHR
                          M PREV_ALT = 0
                          M     endif
                          M     if (PREV_BANK != 0)
                          M         movlb   0
                          M PREV_BANK = 0
                          M     endif
                          M     ifdef PM_USED
                          M         LALL
                          M L00006
                          M         XALL
                          M     else
000A9E                    M L00006
                          M     endif
                      02133 
                      02134 ; C:\USERS\DMILOSAVLJEVIC\DOCUMENTS\PROJECT\TECOMATIC\PICKBYLIGHT\PICKBYLIGHT.PBP       00123   @ INT_RE
                            TURN
                      02135 
                      02136         ASM?
                          M         RST?RP
                          M     if (PREV_ALT != 0)
                          M         bcf     WDTCON, ADSHR
                          M PREV_ALT = 0
                          M     endif
MPASM 5.81                   PICKBYLIGHT.ASM   1-20-2021  23:46:00         PAGE 205


LOC  OBJECT CODE     LINE SOURCE TEXT
  VALUE

                          M     if (PREV_BANK != 0)
                          M         movlb   0
                          M PREV_BANK = 0
                          M     endif
                      02137  INT_RETURN
  0000                    M   local Ret2LP, Ret2HP
000A9E B41C               M       btfsc   _InHPint, 0
000AA0 EF59 F005          M       goto    Ret2HP
000AA4                    M Ret2LP
000AA4 C029 FFFB          M       movff   RetAddrL + 2, PCLATU  ; Load PC buffers with return address
000AA8 C028 FFFA          M       movff   RetAddrL + 1, PCLATH
000AAC 5027               M       movf    RetAddrL, W, 0
000AAE 6AE0               M     clrf  BSR                    ; Set to BANK0 before returning
  00000000                M PREV_BANK = 0                    ; Tell PBP about the BANK change
000AB0 6EF9               M       movwf   PCL, 0             ; Go back to where we were
                          M       
000AB2                    M Ret2HP       
000AB2 C026 FFFB          M       movff   RetAddrH + 2, PCLATU ; Load PC buffers with return address
000AB6 C025 FFFA          M       movff   RetAddrH + 1, PCLATH
000ABA 5024               M       movf    RetAddrH, W, 0
000ABC 6AE0               M     clrf  BSR                    ; Set to BANK0 before returning
  00000000                M PREV_BANK = 0                    ; Tell PBP about the BANK change
000ABE 6EF9               M       movwf   PCL, 0             ; Go back to where we were
                      02138 
                      02139         ENDASM?
                      02140 
                      02141 
                      02142 ; C:\USERS\DMILOSAVLJEVIC\DOCUMENTS\PROJECT\TECOMATIC\PICKBYLIGHT\PICKBYLIGHT.PBP       00125   SendData
                            :
                      02143 
                      02144         LABEL?L _senddata       
                          M         RST?RP
                          M     if (PREV_ALT != 0)
                          M         bcf     WDTCON, ADSHR
                          M PREV_ALT = 0
                          M     endif
                          M     if (PREV_BANK != 0)
                          M         movlb   0
                          M PREV_BANK = 0
                          M     endif
                          M     ifdef PM_USED
                          M         LALL
                          M _senddata
                          M         XALL
                          M     else
000AC0                    M _senddata
                          M     endif
                      02145 
                      02146 ; C:\USERS\DMILOSAVLJEVIC\DOCUMENTS\PROJECT\TECOMATIC\PICKBYLIGHT\PICKBYLIGHT.PBP       00126         sE
                            ROUT _rs232Tx,rs232_bps,["PBL-IN->",#InputA1,#InputA2,#InputA3,#InputA4,13,10] 
                      02147         SERPIN?T        __rs232Tx
                          M         BIT?R1  PORTD, 007h
000AC0 0E83               M         movlw   low ((PORTD) + ((007h)  >> 3))
MPASM 5.81                   PICKBYLIGHT.ASM   1-20-2021  23:46:00         PAGE 206


LOC  OBJECT CODE     LINE SOURCE TEXT
  VALUE

                          M         CHK?RP  RR1
                          M     if (((RR1)   & 8000h) != PREV_ALT)
                          M       if ((RR1)   & 8000h)
                          M         bsf     WDTCON, ADSHR
                          M       else
                          M         bcf     WDTCON, ADSHR
                          M       endif
                          M PREV_ALT = (RR1)   & 8000h
                          M     endif
                          M     if ((((RR1)   & 0fffh) > BANKA_END) & (((RR1)   & 0fffh) < (0f01h + BANKA_END)))
                          M       if (((RR1)   & 0f00h) != (PREV_BANK << 8))
                          M         movlb   high (RR1)
                          M PREV_BANK = high (RR1)
                          M       endif
                          M     endif
000AC2 6E1F               M         movwf   RR1
000AC4 0E0F               M         movlw   high ((PORTD) + ((007h)  >> 3))
000AC6 6E21               M         movwf   RS1
                          M         BIT?W   007h
                          M     if (((007h)  & 7) == 0)
                          M         movlw   01h
                          M     endif
                          M     if (((007h)  & 7) == 1)
                          M         movlw   02h
                          M     endif
                          M     if (((007h)  & 7) == 2)
                          M         movlw   04h
                          M     endif
                          M     if (((007h)  & 7) == 3)
                          M         movlw   08h
                          M     endif
                          M     if (((007h)  & 7) == 4)
                          M         movlw   10h
                          M     endif
                          M     if (((007h)  & 7) == 5)
                          M         movlw   20h
                          M     endif
                          M     if (((007h)  & 7) == 6)
                          M         movlw   40h
                          M     endif
                          M     if (((007h)  & 7) == 7)
000AC8 0E80               M         movlw   80h
                          M     endif
000ACA 6E1D               M         movwf   RM1
                      02148         SERMODE?C       _rs232_bps
                          M         MOVE?CB _rs232_bps, GOP
                          M         CHK?RP  GOP
                          M     if (((GOP)   & 8000h) != PREV_ALT)
                          M       if ((GOP)   & 8000h)
                          M         bsf     WDTCON, ADSHR
                          M       else
                          M         bcf     WDTCON, ADSHR
                          M       endif
MPASM 5.81                   PICKBYLIGHT.ASM   1-20-2021  23:46:00         PAGE 207


LOC  OBJECT CODE     LINE SOURCE TEXT
  VALUE

                          M PREV_ALT = (GOP)   & 8000h
                          M     endif
                          M     if ((((GOP)   & 0fffh) > BANKA_END) & (((GOP)   & 0fffh) < (0f01h + BANKA_END)))
                          M       if (((GOP)   & 0f00h) != (PREV_BANK << 8))
                          M         movlb   high (GOP)
                          M PREV_BANK = high (GOP)
                          M       endif
                          M     endif
                          M     if (low (_rs232_bps) == 0)
                          M         clrf    GOP
                          M     else
                          M       if (low (_rs232_bps) == 255)
                          M         setf    GOP
                          M       else
000ACC 0E06               M         movlw   low (_rs232_bps)
000ACE 6E01               M         movwf   GOP
                          M       endif
                          M     endif
                      02149         SEROUT?C        050h
000AD0 0E50               M         movlw   050h
                          M         L?CALL  SEROUT
                          M         RST?RP
                          M     if (PREV_ALT != 0)
                          M         bcf     WDTCON, ADSHR
                          M PREV_ALT = 0
                          M     endif
                          M     if (PREV_BANK != 0)
                          M         movlb   0
                          M PREV_BANK = 0
                          M     endif
                          M 
                          M     ifdef USE_LINKER
                          M         call    SEROUT
                          M     else
                          M       if ((SEROUT) < 1)
                          M         call    SEROUT
                          M       else
                          M         if ((SEROUT) > $)
                          M         call    SEROUT
                          M         else
                          M           if ((SEROUT) < ($ - 3ffh))
000AD2 EC4B F000          M         call    SEROUT
                          M           else
                          M         rcall   SEROUT
                          M           endif
                          M         endif
                          M       endif
                          M     endif
                      02150         SEROUT?C        042h
000AD6 0E42               M         movlw   042h
                          M         L?CALL  SEROUT
                          M         RST?RP
                          M     if (PREV_ALT != 0)
MPASM 5.81                   PICKBYLIGHT.ASM   1-20-2021  23:46:00         PAGE 208


LOC  OBJECT CODE     LINE SOURCE TEXT
  VALUE

                          M         bcf     WDTCON, ADSHR
                          M PREV_ALT = 0
                          M     endif
                          M     if (PREV_BANK != 0)
                          M         movlb   0
                          M PREV_BANK = 0
                          M     endif
                          M 
                          M     ifdef USE_LINKER
                          M         call    SEROUT
                          M     else
                          M       if ((SEROUT) < 1)
                          M         call    SEROUT
                          M       else
                          M         if ((SEROUT) > $)
                          M         call    SEROUT
                          M         else
                          M           if ((SEROUT) < ($ - 3ffh))
000AD8 EC4B F000          M         call    SEROUT
                          M           else
                          M         rcall   SEROUT
                          M           endif
                          M         endif
                          M       endif
                          M     endif
                      02151         SEROUT?C        04Ch
000ADC 0E4C               M         movlw   04Ch
                          M         L?CALL  SEROUT
                          M         RST?RP
                          M     if (PREV_ALT != 0)
                          M         bcf     WDTCON, ADSHR
                          M PREV_ALT = 0
                          M     endif
                          M     if (PREV_BANK != 0)
                          M         movlb   0
                          M PREV_BANK = 0
                          M     endif
                          M 
                          M     ifdef USE_LINKER
                          M         call    SEROUT
                          M     else
                          M       if ((SEROUT) < 1)
                          M         call    SEROUT
                          M       else
                          M         if ((SEROUT) > $)
                          M         call    SEROUT
                          M         else
                          M           if ((SEROUT) < ($ - 3ffh))
000ADE EC4B F000          M         call    SEROUT
                          M           else
                          M         rcall   SEROUT
                          M           endif
                          M         endif
MPASM 5.81                   PICKBYLIGHT.ASM   1-20-2021  23:46:00         PAGE 209


LOC  OBJECT CODE     LINE SOURCE TEXT
  VALUE

                          M       endif
                          M     endif
                      02152         SEROUT?C        02Dh
000AE2 0E2D               M         movlw   02Dh
                          M         L?CALL  SEROUT
                          M         RST?RP
                          M     if (PREV_ALT != 0)
                          M         bcf     WDTCON, ADSHR
                          M PREV_ALT = 0
                          M     endif
                          M     if (PREV_BANK != 0)
                          M         movlb   0
                          M PREV_BANK = 0
                          M     endif
                          M 
                          M     ifdef USE_LINKER
                          M         call    SEROUT
                          M     else
                          M       if ((SEROUT) < 1)
                          M         call    SEROUT
                          M       else
                          M         if ((SEROUT) > $)
                          M         call    SEROUT
                          M         else
                          M           if ((SEROUT) < ($ - 3ffh))
000AE4 EC4B F000          M         call    SEROUT
                          M           else
                          M         rcall   SEROUT
                          M           endif
                          M         endif
                          M       endif
                          M     endif
                      02153         SEROUT?C        049h
000AE8 0E49               M         movlw   049h
                          M         L?CALL  SEROUT
                          M         RST?RP
                          M     if (PREV_ALT != 0)
                          M         bcf     WDTCON, ADSHR
                          M PREV_ALT = 0
                          M     endif
                          M     if (PREV_BANK != 0)
                          M         movlb   0
                          M PREV_BANK = 0
                          M     endif
                          M 
                          M     ifdef USE_LINKER
                          M         call    SEROUT
                          M     else
                          M       if ((SEROUT) < 1)
                          M         call    SEROUT
                          M       else
                          M         if ((SEROUT) > $)
                          M         call    SEROUT
MPASM 5.81                   PICKBYLIGHT.ASM   1-20-2021  23:46:00         PAGE 210


LOC  OBJECT CODE     LINE SOURCE TEXT
  VALUE

                          M         else
                          M           if ((SEROUT) < ($ - 3ffh))
000AEA EC4B F000          M         call    SEROUT
                          M           else
                          M         rcall   SEROUT
                          M           endif
                          M         endif
                          M       endif
                          M     endif
                      02154         SEROUT?C        04Eh
000AEE 0E4E               M         movlw   04Eh
                          M         L?CALL  SEROUT
                          M         RST?RP
                          M     if (PREV_ALT != 0)
                          M         bcf     WDTCON, ADSHR
                          M PREV_ALT = 0
                          M     endif
                          M     if (PREV_BANK != 0)
                          M         movlb   0
                          M PREV_BANK = 0
                          M     endif
                          M 
                          M     ifdef USE_LINKER
                          M         call    SEROUT
                          M     else
                          M       if ((SEROUT) < 1)
                          M         call    SEROUT
                          M       else
                          M         if ((SEROUT) > $)
                          M         call    SEROUT
                          M         else
                          M           if ((SEROUT) < ($ - 3ffh))
000AF0 EC4B F000          M         call    SEROUT
                          M           else
                          M         rcall   SEROUT
                          M           endif
                          M         endif
                          M       endif
                          M     endif
                      02155         SEROUT?C        02Dh
000AF4 0E2D               M         movlw   02Dh
                          M         L?CALL  SEROUT
                          M         RST?RP
                          M     if (PREV_ALT != 0)
                          M         bcf     WDTCON, ADSHR
                          M PREV_ALT = 0
                          M     endif
                          M     if (PREV_BANK != 0)
                          M         movlb   0
                          M PREV_BANK = 0
                          M     endif
                          M 
                          M     ifdef USE_LINKER
MPASM 5.81                   PICKBYLIGHT.ASM   1-20-2021  23:46:00         PAGE 211


LOC  OBJECT CODE     LINE SOURCE TEXT
  VALUE

                          M         call    SEROUT
                          M     else
                          M       if ((SEROUT) < 1)
                          M         call    SEROUT
                          M       else
                          M         if ((SEROUT) > $)
                          M         call    SEROUT
                          M         else
                          M           if ((SEROUT) < ($ - 3ffh))
000AF6 EC4B F000          M         call    SEROUT
                          M           else
                          M         rcall   SEROUT
                          M           endif
                          M         endif
                          M       endif
                          M     endif
                      02156         SEROUT?C        03Eh
000AFA 0E3E               M         movlw   03Eh
                          M         L?CALL  SEROUT
                          M         RST?RP
                          M     if (PREV_ALT != 0)
                          M         bcf     WDTCON, ADSHR
                          M PREV_ALT = 0
                          M     endif
                          M     if (PREV_BANK != 0)
                          M         movlb   0
                          M PREV_BANK = 0
                          M     endif
                          M 
                          M     ifdef USE_LINKER
                          M         call    SEROUT
                          M     else
                          M       if ((SEROUT) < 1)
                          M         call    SEROUT
                          M       else
                          M         if ((SEROUT) > $)
                          M         call    SEROUT
                          M         else
                          M           if ((SEROUT) < ($ - 3ffh))
000AFC EC4B F000          M         call    SEROUT
                          M           else
                          M         rcall   SEROUT
                          M           endif
                          M         endif
                          M       endif
                          M     endif
                      02157         SEROUTD?T       _InputA1
                          M         MOVE?TA PB01,  000h
                          M         CHK?RP  PB01
                          M     if (((PB01)  & 8000h) != PREV_ALT)
                          M       if ((PB01)  & 8000h)
                          M         bsf     WDTCON, ADSHR
                          M       else
MPASM 5.81                   PICKBYLIGHT.ASM   1-20-2021  23:46:00         PAGE 212


LOC  OBJECT CODE     LINE SOURCE TEXT
  VALUE

                          M         bcf     WDTCON, ADSHR
                          M       endif
                          M PREV_ALT = (PB01)  & 8000h
                          M     endif
                          M     if ((((PB01)  & 0fffh) > BANKA_END) & (((PB01)  & 0fffh) < (0f01h + BANKA_END)))
                          M       if (((PB01)  & 0f00h) != (PREV_BANK << 8))
                          M         movlb   high (PB01)
                          M PREV_BANK = high (PB01)
                          M       endif
                          M     endif
000B00 0E00               M         movlw   0
000B02 B02A               M         btfsc   PB01,  000h
000B04 0E01               M         movlw   1
                          M         L?CALL  SEROUTDEC
                          M         RST?RP
                          M     if (PREV_ALT != 0)
                          M         bcf     WDTCON, ADSHR
                          M PREV_ALT = 0
                          M     endif
                          M     if (PREV_BANK != 0)
                          M         movlb   0
                          M PREV_BANK = 0
                          M     endif
                          M 
                          M     ifdef USE_LINKER
                          M         call    SEROUTDEC
                          M     else
                          M       if ((SEROUTDEC) < 1)
                          M         call    SEROUTDEC
                          M       else
                          M         if ((SEROUTDEC) > $)
                          M         call    SEROUTDEC
                          M         else
                          M           if ((SEROUTDEC) < ($ - 3ffh))
000B06 EC2C F000          M         call    SEROUTDEC
                          M           else
                          M         rcall   SEROUTDEC
                          M           endif
                          M         endif
                          M       endif
                          M     endif
                      02158         SEROUTD?T       _InputA2
                          M         MOVE?TA PB01,  001h
                          M         CHK?RP  PB01
                          M     if (((PB01)  & 8000h) != PREV_ALT)
                          M       if ((PB01)  & 8000h)
                          M         bsf     WDTCON, ADSHR
                          M       else
                          M         bcf     WDTCON, ADSHR
                          M       endif
                          M PREV_ALT = (PB01)  & 8000h
                          M     endif
                          M     if ((((PB01)  & 0fffh) > BANKA_END) & (((PB01)  & 0fffh) < (0f01h + BANKA_END)))
MPASM 5.81                   PICKBYLIGHT.ASM   1-20-2021  23:46:00         PAGE 213


LOC  OBJECT CODE     LINE SOURCE TEXT
  VALUE

                          M       if (((PB01)  & 0f00h) != (PREV_BANK << 8))
                          M         movlb   high (PB01)
                          M PREV_BANK = high (PB01)
                          M       endif
                          M     endif
000B0A 0E00               M         movlw   0
000B0C B22A               M         btfsc   PB01,  001h
000B0E 0E01               M         movlw   1
                          M         L?CALL  SEROUTDEC
                          M         RST?RP
                          M     if (PREV_ALT != 0)
                          M         bcf     WDTCON, ADSHR
                          M PREV_ALT = 0
                          M     endif
                          M     if (PREV_BANK != 0)
                          M         movlb   0
                          M PREV_BANK = 0
                          M     endif
                          M 
                          M     ifdef USE_LINKER
                          M         call    SEROUTDEC
                          M     else
                          M       if ((SEROUTDEC) < 1)
                          M         call    SEROUTDEC
                          M       else
                          M         if ((SEROUTDEC) > $)
                          M         call    SEROUTDEC
                          M         else
                          M           if ((SEROUTDEC) < ($ - 3ffh))
000B10 EC2C F000          M         call    SEROUTDEC
                          M           else
                          M         rcall   SEROUTDEC
                          M           endif
                          M         endif
                          M       endif
                          M     endif
                      02159         SEROUTD?T       _InputA3
                          M         MOVE?TA PB01,  002h
                          M         CHK?RP  PB01
                          M     if (((PB01)  & 8000h) != PREV_ALT)
                          M       if ((PB01)  & 8000h)
                          M         bsf     WDTCON, ADSHR
                          M       else
                          M         bcf     WDTCON, ADSHR
                          M       endif
                          M PREV_ALT = (PB01)  & 8000h
                          M     endif
                          M     if ((((PB01)  & 0fffh) > BANKA_END) & (((PB01)  & 0fffh) < (0f01h + BANKA_END)))
                          M       if (((PB01)  & 0f00h) != (PREV_BANK << 8))
                          M         movlb   high (PB01)
                          M PREV_BANK = high (PB01)
                          M       endif
                          M     endif
MPASM 5.81                   PICKBYLIGHT.ASM   1-20-2021  23:46:00         PAGE 214


LOC  OBJECT CODE     LINE SOURCE TEXT
  VALUE

000B14 0E00               M         movlw   0
000B16 B42A               M         btfsc   PB01,  002h
000B18 0E01               M         movlw   1
                          M         L?CALL  SEROUTDEC
                          M         RST?RP
                          M     if (PREV_ALT != 0)
                          M         bcf     WDTCON, ADSHR
                          M PREV_ALT = 0
                          M     endif
                          M     if (PREV_BANK != 0)
                          M         movlb   0
                          M PREV_BANK = 0
                          M     endif
                          M 
                          M     ifdef USE_LINKER
                          M         call    SEROUTDEC
                          M     else
                          M       if ((SEROUTDEC) < 1)
                          M         call    SEROUTDEC
                          M       else
                          M         if ((SEROUTDEC) > $)
                          M         call    SEROUTDEC
                          M         else
                          M           if ((SEROUTDEC) < ($ - 3ffh))
000B1A EC2C F000          M         call    SEROUTDEC
                          M           else
                          M         rcall   SEROUTDEC
                          M           endif
                          M         endif
                          M       endif
                          M     endif
                      02160         SEROUTD?T       _InputA4
                          M         MOVE?TA PB01,  003h
                          M         CHK?RP  PB01
                          M     if (((PB01)  & 8000h) != PREV_ALT)
                          M       if ((PB01)  & 8000h)
                          M         bsf     WDTCON, ADSHR
                          M       else
                          M         bcf     WDTCON, ADSHR
                          M       endif
                          M PREV_ALT = (PB01)  & 8000h
                          M     endif
                          M     if ((((PB01)  & 0fffh) > BANKA_END) & (((PB01)  & 0fffh) < (0f01h + BANKA_END)))
                          M       if (((PB01)  & 0f00h) != (PREV_BANK << 8))
                          M         movlb   high (PB01)
                          M PREV_BANK = high (PB01)
                          M       endif
                          M     endif
000B1E 0E00               M         movlw   0
000B20 B62A               M         btfsc   PB01,  003h
000B22 0E01               M         movlw   1
                          M         L?CALL  SEROUTDEC
                          M         RST?RP
MPASM 5.81                   PICKBYLIGHT.ASM   1-20-2021  23:46:00         PAGE 215


LOC  OBJECT CODE     LINE SOURCE TEXT
  VALUE

                          M     if (PREV_ALT != 0)
                          M         bcf     WDTCON, ADSHR
                          M PREV_ALT = 0
                          M     endif
                          M     if (PREV_BANK != 0)
                          M         movlb   0
                          M PREV_BANK = 0
                          M     endif
                          M 
                          M     ifdef USE_LINKER
                          M         call    SEROUTDEC
                          M     else
                          M       if ((SEROUTDEC) < 1)
                          M         call    SEROUTDEC
                          M       else
                          M         if ((SEROUTDEC) > $)
                          M         call    SEROUTDEC
                          M         else
                          M           if ((SEROUTDEC) < ($ - 3ffh))
000B24 EC2C F000          M         call    SEROUTDEC
                          M           else
                          M         rcall   SEROUTDEC
                          M           endif
                          M         endif
                          M       endif
                          M     endif
                      02161         SEROUT?C        00Dh
000B28 0E0D               M         movlw   00Dh
                          M         L?CALL  SEROUT
                          M         RST?RP
                          M     if (PREV_ALT != 0)
                          M         bcf     WDTCON, ADSHR
                          M PREV_ALT = 0
                          M     endif
                          M     if (PREV_BANK != 0)
                          M         movlb   0
                          M PREV_BANK = 0
                          M     endif
                          M 
                          M     ifdef USE_LINKER
                          M         call    SEROUT
                          M     else
                          M       if ((SEROUT) < 1)
                          M         call    SEROUT
                          M       else
                          M         if ((SEROUT) > $)
                          M         call    SEROUT
                          M         else
                          M           if ((SEROUT) < ($ - 3ffh))
000B2A EC4B F000          M         call    SEROUT
                          M           else
                          M         rcall   SEROUT
                          M           endif
MPASM 5.81                   PICKBYLIGHT.ASM   1-20-2021  23:46:00         PAGE 216


LOC  OBJECT CODE     LINE SOURCE TEXT
  VALUE

                          M         endif
                          M       endif
                          M     endif
                      02162         SEROUT?C        00Ah
000B2E 0E0A               M         movlw   00Ah
                          M         L?CALL  SEROUT
                          M         RST?RP
                          M     if (PREV_ALT != 0)
                          M         bcf     WDTCON, ADSHR
                          M PREV_ALT = 0
                          M     endif
                          M     if (PREV_BANK != 0)
                          M         movlb   0
                          M PREV_BANK = 0
                          M     endif
                          M 
                          M     ifdef USE_LINKER
                          M         call    SEROUT
                          M     else
                          M       if ((SEROUT) < 1)
                          M         call    SEROUT
                          M       else
                          M         if ((SEROUT) > $)
                          M         call    SEROUT
                          M         else
                          M           if ((SEROUT) < ($ - 3ffh))
000B30 EC4B F000          M         call    SEROUT
                          M           else
                          M         rcall   SEROUT
                          M           endif
                          M         endif
                          M       endif
                          M     endif
                      02163 
                      02164 ; C:\USERS\DMILOSAVLJEVIC\DOCUMENTS\PROJECT\TECOMATIC\PICKBYLIGHT\PICKBYLIGHT.PBP       00127         pa
                            use 50
                      02165         PAUSE?C 032h
                          M     if (((032h) >> 8) == 0)
                          M         MOVE?CA 032h
000B34 0E32               M         movlw   low (032h)
                          M         L?CALL  PAUSE
                          M         RST?RP
                          M     if (PREV_ALT != 0)
                          M         bcf     WDTCON, ADSHR
                          M PREV_ALT = 0
                          M     endif
                          M     if (PREV_BANK != 0)
                          M         movlb   0
                          M PREV_BANK = 0
                          M     endif
                          M 
                          M     ifdef USE_LINKER
                          M         call    PAUSE
MPASM 5.81                   PICKBYLIGHT.ASM   1-20-2021  23:46:00         PAGE 217


LOC  OBJECT CODE     LINE SOURCE TEXT
  VALUE

                          M     else
                          M       if ((PAUSE) < 1)
                          M         call    PAUSE
                          M       else
                          M         if ((PAUSE) > $)
                          M         call    PAUSE
                          M         else
                          M           if ((PAUSE) < ($ - 3ffh))
000B36 EC99 F000          M         call    PAUSE
                          M           else
                          M         rcall   PAUSE
                          M           endif
                          M         endif
                          M       endif
                          M     endif
                          M     else
                          M         MOVE?CB (032h) >> 8, R1 + 1
                          M         MOVE?CA low (032h)
                          M         L?CALL  PAUSEL
                          M     endif
                      02166 
                      02167 ; C:\USERS\DMILOSAVLJEVIC\DOCUMENTS\PROJECT\TECOMATIC\PICKBYLIGHT\PICKBYLIGHT.PBP       00128   Return
                      02168         RETURN? 
                          M     ifdef DEBUG_STACK
                          M         CHK?RP  DEBUG_STACK
                          M         decf    DEBUG_STACK, F
                          M     endif
                          M         RST?RP
                          M     if (PREV_ALT != 0)
                          M         bcf     WDTCON, ADSHR
                          M PREV_ALT = 0
                          M     endif
                          M     if (PREV_BANK != 0)
                          M         movlb   0
                          M PREV_BANK = 0
                          M     endif
000B3A 0012               M         return
                      02169 
                      02170 ; C:\USERS\DMILOSAVLJEVIC\DOCUMENTS\PROJECT\TECOMATIC\PICKBYLIGHT\PICKBYLIGHT.PBP       00130   DoOutput
                            s:
                      02171 
                      02172         LABEL?L _DoOutputs      
                          M         RST?RP
                          M     if (PREV_ALT != 0)
                          M         bcf     WDTCON, ADSHR
                          M PREV_ALT = 0
                          M     endif
                          M     if (PREV_BANK != 0)
                          M         movlb   0
                          M PREV_BANK = 0
                          M     endif
                          M     ifdef PM_USED
                          M         LALL
MPASM 5.81                   PICKBYLIGHT.ASM   1-20-2021  23:46:00         PAGE 218


LOC  OBJECT CODE     LINE SOURCE TEXT
  VALUE

                          M _DoOutputs
                          M         XALL
                          M     else
000B3C                    M _DoOutputs
                          M     endif
                      02173 
                      02174 ; C:\USERS\DMILOSAVLJEVIC\DOCUMENTS\PROJECT\TECOMATIC\PICKBYLIGHT\PICKBYLIGHT.PBP       00131        ser
                            in  _rs232Rx ,rs232_bps,["PBL-OUT->"],tmp[0],tmp[1],tmp[2],tmp[3]
                      02175         SERPIN?T        __rs232Rx
                          M         BIT?R1  PORTD, 006h
000B3C 0E83               M         movlw   low ((PORTD) + ((006h)  >> 3))
                          M         CHK?RP  RR1
                          M     if (((RR1)   & 8000h) != PREV_ALT)
                          M       if ((RR1)   & 8000h)
                          M         bsf     WDTCON, ADSHR
                          M       else
                          M         bcf     WDTCON, ADSHR
                          M       endif
                          M PREV_ALT = (RR1)   & 8000h
                          M     endif
                          M     if ((((RR1)   & 0fffh) > BANKA_END) & (((RR1)   & 0fffh) < (0f01h + BANKA_END)))
                          M       if (((RR1)   & 0f00h) != (PREV_BANK << 8))
                          M         movlb   high (RR1)
                          M PREV_BANK = high (RR1)
                          M       endif
                          M     endif
000B3E 6E1F               M         movwf   RR1
000B40 0E0F               M         movlw   high ((PORTD) + ((006h)  >> 3))
000B42 6E21               M         movwf   RS1
                          M         BIT?W   006h
                          M     if (((006h)  & 7) == 0)
                          M         movlw   01h
                          M     endif
                          M     if (((006h)  & 7) == 1)
                          M         movlw   02h
                          M     endif
                          M     if (((006h)  & 7) == 2)
                          M         movlw   04h
                          M     endif
                          M     if (((006h)  & 7) == 3)
                          M         movlw   08h
                          M     endif
                          M     if (((006h)  & 7) == 4)
                          M         movlw   10h
                          M     endif
                          M     if (((006h)  & 7) == 5)
                          M         movlw   20h
                          M     endif
                          M     if (((006h)  & 7) == 6)
000B44 0E40               M         movlw   40h
                          M     endif
                          M     if (((006h)  & 7) == 7)
                          M         movlw   80h
MPASM 5.81                   PICKBYLIGHT.ASM   1-20-2021  23:46:00         PAGE 219


LOC  OBJECT CODE     LINE SOURCE TEXT
  VALUE

                          M     endif
000B46 6E1D               M         movwf   RM1
                      02176         SERMODE?C       _rs232_bps
                          M         MOVE?CB _rs232_bps, GOP
                          M         CHK?RP  GOP
                          M     if (((GOP)   & 8000h) != PREV_ALT)
                          M       if ((GOP)   & 8000h)
                          M         bsf     WDTCON, ADSHR
                          M       else
                          M         bcf     WDTCON, ADSHR
                          M       endif
                          M PREV_ALT = (GOP)   & 8000h
                          M     endif
                          M     if ((((GOP)   & 0fffh) > BANKA_END) & (((GOP)   & 0fffh) < (0f01h + BANKA_END)))
                          M       if (((GOP)   & 0f00h) != (PREV_BANK << 8))
                          M         movlb   high (GOP)
                          M PREV_BANK = high (GOP)
                          M       endif
                          M     endif
                          M     if (low (_rs232_bps) == 0)
                          M         clrf    GOP
                          M     else
                          M       if (low (_rs232_bps) == 255)
                          M         setf    GOP
                          M       else
000B48 0E06               M         movlw   low (_rs232_bps)
000B4A 6E01               M         movwf   GOP
                          M       endif
                          M     endif
                      02177 
                      02178         LABEL?L L00001  
                          M         RST?RP
                          M     if (PREV_ALT != 0)
                          M         bcf     WDTCON, ADSHR
                          M PREV_ALT = 0
                          M     endif
                          M     if (PREV_BANK != 0)
                          M         movlb   0
                          M PREV_BANK = 0
                          M     endif
                          M     ifdef PM_USED
                          M         LALL
                          M L00001
                          M         XALL
                          M     else
000B4C                    M L00001
                          M     endif
                      02179         SERINQ?CL       050h, L00001
                          M         L?CALL  SERIN
                          M         RST?RP
                          M     if (PREV_ALT != 0)
                          M         bcf     WDTCON, ADSHR
                          M PREV_ALT = 0
MPASM 5.81                   PICKBYLIGHT.ASM   1-20-2021  23:46:00         PAGE 220


LOC  OBJECT CODE     LINE SOURCE TEXT
  VALUE

                          M     endif
                          M     if (PREV_BANK != 0)
                          M         movlb   0
                          M PREV_BANK = 0
                          M     endif
                          M 
                          M     ifdef USE_LINKER
                          M         call    SERIN
                          M     else
                          M       if ((SERIN) < 1)
                          M         call    SERIN
                          M       else
                          M         if ((SERIN) > $)
                          M         call    SERIN
                          M         else
                          M           if ((SERIN) < ($ - 3ffh))
000B4C EC0E F000          M         call    SERIN
                          M           else
                          M         rcall   SERIN
                          M           endif
                          M         endif
                          M       endif
                          M     endif
000B50 0850               M         sublw   050h
                          M         BIT?GOTO 0, STATUS, Z, L00001
                          M     ifdef USE_LINKER
                          M         CLRWDT?
                          M     else
                          M       if ($ == (L00001))
                          M         CLRWDT?
                          M       endif
                          M     endif
                          M 
                          M     if (((STATUS) > BANKA_END) & ((STATUS) < (0f01h + BANKA_END)))
                          M         bcf     STATUS, OV
                          M         CHK?RP  STATUS
                          M       if ((0)      == 0)
                          M         btfss   STATUS, Z
                          M       else
                          M         btfsc   STATUS, Z
                          M       endif
                          M         bsf     STATUS, OV
                          M         RST?RP
                          M       ifdef USE_LINKER
                          M         btfsc   STATUS, OV
                          M         goto    L00001
                          M       else
                          M         if ((L00001) < 1)
                          M         btfsc   STATUS, OV
                          M         goto    L00001
                          M         else
                          M           if ((L00001) > $)
                          M         btfsc   STATUS, OV
MPASM 5.81                   PICKBYLIGHT.ASM   1-20-2021  23:46:00         PAGE 221


LOC  OBJECT CODE     LINE SOURCE TEXT
  VALUE

                          M         goto    L00001
                          M           else
                          M             if ((L00001) < ($ - 7fh))
                          M         btfsc   STATUS, OV
                          M         goto    L00001
                          M             else
                          M         bov     L00001
                          M             endif
                          M           endif
                          M         endif
                          M       endif
                          M     else
                          M         RST?RP
                          M     if (PREV_ALT != 0)
                          M         bcf     WDTCON, ADSHR
                          M PREV_ALT = 0
                          M     endif
                          M     if (PREV_BANK != 0)
                          M         movlb   0
                          M PREV_BANK = 0
                          M     endif
                          M       if ((0)      == 0)
000B52 A4D8               M         btfss   STATUS, Z
                          M       else
                          M         btfsc   STATUS, Z
                          M       endif
                          M       ifdef USE_LINKER
                          M         goto    L00001
                          M       else
                          M         if ((L00001) < 1)
                          M         goto    L00001
                          M         else
                          M           if ((L00001) > $)
                          M         goto    L00001
                          M           else
                          M             if ((L00001) < ($ - 3ffh))
                          M         goto    L00001
                          M             else
000B54 D7FB               M         bra     L00001
                          M             endif
                          M           endif
                          M         endif
                          M       endif
                          M     endif
                      02180         SERINQ?CL       042h, L00001
                          M         L?CALL  SERIN
                          M         RST?RP
                          M     if (PREV_ALT != 0)
                          M         bcf     WDTCON, ADSHR
                          M PREV_ALT = 0
                          M     endif
                          M     if (PREV_BANK != 0)
                          M         movlb   0
MPASM 5.81                   PICKBYLIGHT.ASM   1-20-2021  23:46:00         PAGE 222


LOC  OBJECT CODE     LINE SOURCE TEXT
  VALUE

                          M PREV_BANK = 0
                          M     endif
                          M 
                          M     ifdef USE_LINKER
                          M         call    SERIN
                          M     else
                          M       if ((SERIN) < 1)
                          M         call    SERIN
                          M       else
                          M         if ((SERIN) > $)
                          M         call    SERIN
                          M         else
                          M           if ((SERIN) < ($ - 3ffh))
000B56 EC0E F000          M         call    SERIN
                          M           else
                          M         rcall   SERIN
                          M           endif
                          M         endif
                          M       endif
                          M     endif
000B5A 0842               M         sublw   042h
                          M         BIT?GOTO 0, STATUS, Z, L00001
                          M     ifdef USE_LINKER
                          M         CLRWDT?
                          M     else
                          M       if ($ == (L00001))
                          M         CLRWDT?
                          M       endif
                          M     endif
                          M 
                          M     if (((STATUS) > BANKA_END) & ((STATUS) < (0f01h + BANKA_END)))
                          M         bcf     STATUS, OV
                          M         CHK?RP  STATUS
                          M       if ((0)      == 0)
                          M         btfss   STATUS, Z
                          M       else
                          M         btfsc   STATUS, Z
                          M       endif
                          M         bsf     STATUS, OV
                          M         RST?RP
                          M       ifdef USE_LINKER
                          M         btfsc   STATUS, OV
                          M         goto    L00001
                          M       else
                          M         if ((L00001) < 1)
                          M         btfsc   STATUS, OV
                          M         goto    L00001
                          M         else
                          M           if ((L00001) > $)
                          M         btfsc   STATUS, OV
                          M         goto    L00001
                          M           else
                          M             if ((L00001) < ($ - 7fh))
MPASM 5.81                   PICKBYLIGHT.ASM   1-20-2021  23:46:00         PAGE 223


LOC  OBJECT CODE     LINE SOURCE TEXT
  VALUE

                          M         btfsc   STATUS, OV
                          M         goto    L00001
                          M             else
                          M         bov     L00001
                          M             endif
                          M           endif
                          M         endif
                          M       endif
                          M     else
                          M         RST?RP
                          M     if (PREV_ALT != 0)
                          M         bcf     WDTCON, ADSHR
                          M PREV_ALT = 0
                          M     endif
                          M     if (PREV_BANK != 0)
                          M         movlb   0
                          M PREV_BANK = 0
                          M     endif
                          M       if ((0)      == 0)
000B5C A4D8               M         btfss   STATUS, Z
                          M       else
                          M         btfsc   STATUS, Z
                          M       endif
                          M       ifdef USE_LINKER
                          M         goto    L00001
                          M       else
                          M         if ((L00001) < 1)
                          M         goto    L00001
                          M         else
                          M           if ((L00001) > $)
                          M         goto    L00001
                          M           else
                          M             if ((L00001) < ($ - 3ffh))
                          M         goto    L00001
                          M             else
000B5E D7F6               M         bra     L00001
                          M             endif
                          M           endif
                          M         endif
                          M       endif
                          M     endif
                      02181         SERINQ?CL       04Ch, L00001
                          M         L?CALL  SERIN
                          M         RST?RP
                          M     if (PREV_ALT != 0)
                          M         bcf     WDTCON, ADSHR
                          M PREV_ALT = 0
                          M     endif
                          M     if (PREV_BANK != 0)
                          M         movlb   0
                          M PREV_BANK = 0
                          M     endif
                          M 
MPASM 5.81                   PICKBYLIGHT.ASM   1-20-2021  23:46:00         PAGE 224


LOC  OBJECT CODE     LINE SOURCE TEXT
  VALUE

                          M     ifdef USE_LINKER
                          M         call    SERIN
                          M     else
                          M       if ((SERIN) < 1)
                          M         call    SERIN
                          M       else
                          M         if ((SERIN) > $)
                          M         call    SERIN
                          M         else
                          M           if ((SERIN) < ($ - 3ffh))
000B60 EC0E F000          M         call    SERIN
                          M           else
                          M         rcall   SERIN
                          M           endif
                          M         endif
                          M       endif
                          M     endif
000B64 084C               M         sublw   04Ch
                          M         BIT?GOTO 0, STATUS, Z, L00001
                          M     ifdef USE_LINKER
                          M         CLRWDT?
                          M     else
                          M       if ($ == (L00001))
                          M         CLRWDT?
                          M       endif
                          M     endif
                          M 
                          M     if (((STATUS) > BANKA_END) & ((STATUS) < (0f01h + BANKA_END)))
                          M         bcf     STATUS, OV
                          M         CHK?RP  STATUS
                          M       if ((0)      == 0)
                          M         btfss   STATUS, Z
                          M       else
                          M         btfsc   STATUS, Z
                          M       endif
                          M         bsf     STATUS, OV
                          M         RST?RP
                          M       ifdef USE_LINKER
                          M         btfsc   STATUS, OV
                          M         goto    L00001
                          M       else
                          M         if ((L00001) < 1)
                          M         btfsc   STATUS, OV
                          M         goto    L00001
                          M         else
                          M           if ((L00001) > $)
                          M         btfsc   STATUS, OV
                          M         goto    L00001
                          M           else
                          M             if ((L00001) < ($ - 7fh))
                          M         btfsc   STATUS, OV
                          M         goto    L00001
                          M             else
MPASM 5.81                   PICKBYLIGHT.ASM   1-20-2021  23:46:00         PAGE 225


LOC  OBJECT CODE     LINE SOURCE TEXT
  VALUE

                          M         bov     L00001
                          M             endif
                          M           endif
                          M         endif
                          M       endif
                          M     else
                          M         RST?RP
                          M     if (PREV_ALT != 0)
                          M         bcf     WDTCON, ADSHR
                          M PREV_ALT = 0
                          M     endif
                          M     if (PREV_BANK != 0)
                          M         movlb   0
                          M PREV_BANK = 0
                          M     endif
                          M       if ((0)      == 0)
000B66 A4D8               M         btfss   STATUS, Z
                          M       else
                          M         btfsc   STATUS, Z
                          M       endif
                          M       ifdef USE_LINKER
                          M         goto    L00001
                          M       else
                          M         if ((L00001) < 1)
                          M         goto    L00001
                          M         else
                          M           if ((L00001) > $)
                          M         goto    L00001
                          M           else
                          M             if ((L00001) < ($ - 3ffh))
                          M         goto    L00001
                          M             else
000B68 D7F1               M         bra     L00001
                          M             endif
                          M           endif
                          M         endif
                          M       endif
                          M     endif
                      02182         SERINQ?CL       02Dh, L00001
                          M         L?CALL  SERIN
                          M         RST?RP
                          M     if (PREV_ALT != 0)
                          M         bcf     WDTCON, ADSHR
                          M PREV_ALT = 0
                          M     endif
                          M     if (PREV_BANK != 0)
                          M         movlb   0
                          M PREV_BANK = 0
                          M     endif
                          M 
                          M     ifdef USE_LINKER
                          M         call    SERIN
                          M     else
MPASM 5.81                   PICKBYLIGHT.ASM   1-20-2021  23:46:00         PAGE 226


LOC  OBJECT CODE     LINE SOURCE TEXT
  VALUE

                          M       if ((SERIN) < 1)
                          M         call    SERIN
                          M       else
                          M         if ((SERIN) > $)
                          M         call    SERIN
                          M         else
                          M           if ((SERIN) < ($ - 3ffh))
000B6A EC0E F000          M         call    SERIN
                          M           else
                          M         rcall   SERIN
                          M           endif
                          M         endif
                          M       endif
                          M     endif
000B6E 082D               M         sublw   02Dh
                          M         BIT?GOTO 0, STATUS, Z, L00001
                          M     ifdef USE_LINKER
                          M         CLRWDT?
                          M     else
                          M       if ($ == (L00001))
                          M         CLRWDT?
                          M       endif
                          M     endif
                          M 
                          M     if (((STATUS) > BANKA_END) & ((STATUS) < (0f01h + BANKA_END)))
                          M         bcf     STATUS, OV
                          M         CHK?RP  STATUS
                          M       if ((0)      == 0)
                          M         btfss   STATUS, Z
                          M       else
                          M         btfsc   STATUS, Z
                          M       endif
                          M         bsf     STATUS, OV
                          M         RST?RP
                          M       ifdef USE_LINKER
                          M         btfsc   STATUS, OV
                          M         goto    L00001
                          M       else
                          M         if ((L00001) < 1)
                          M         btfsc   STATUS, OV
                          M         goto    L00001
                          M         else
                          M           if ((L00001) > $)
                          M         btfsc   STATUS, OV
                          M         goto    L00001
                          M           else
                          M             if ((L00001) < ($ - 7fh))
                          M         btfsc   STATUS, OV
                          M         goto    L00001
                          M             else
                          M         bov     L00001
                          M             endif
                          M           endif
MPASM 5.81                   PICKBYLIGHT.ASM   1-20-2021  23:46:00         PAGE 227


LOC  OBJECT CODE     LINE SOURCE TEXT
  VALUE

                          M         endif
                          M       endif
                          M     else
                          M         RST?RP
                          M     if (PREV_ALT != 0)
                          M         bcf     WDTCON, ADSHR
                          M PREV_ALT = 0
                          M     endif
                          M     if (PREV_BANK != 0)
                          M         movlb   0
                          M PREV_BANK = 0
                          M     endif
                          M       if ((0)      == 0)
000B70 A4D8               M         btfss   STATUS, Z
                          M       else
                          M         btfsc   STATUS, Z
                          M       endif
                          M       ifdef USE_LINKER
                          M         goto    L00001
                          M       else
                          M         if ((L00001) < 1)
                          M         goto    L00001
                          M         else
                          M           if ((L00001) > $)
                          M         goto    L00001
                          M           else
                          M             if ((L00001) < ($ - 3ffh))
                          M         goto    L00001
                          M             else
000B72 D7EC               M         bra     L00001
                          M             endif
                          M           endif
                          M         endif
                          M       endif
                          M     endif
                      02183         SERINQ?CL       04Fh, L00001
                          M         L?CALL  SERIN
                          M         RST?RP
                          M     if (PREV_ALT != 0)
                          M         bcf     WDTCON, ADSHR
                          M PREV_ALT = 0
                          M     endif
                          M     if (PREV_BANK != 0)
                          M         movlb   0
                          M PREV_BANK = 0
                          M     endif
                          M 
                          M     ifdef USE_LINKER
                          M         call    SERIN
                          M     else
                          M       if ((SERIN) < 1)
                          M         call    SERIN
                          M       else
MPASM 5.81                   PICKBYLIGHT.ASM   1-20-2021  23:46:00         PAGE 228


LOC  OBJECT CODE     LINE SOURCE TEXT
  VALUE

                          M         if ((SERIN) > $)
                          M         call    SERIN
                          M         else
                          M           if ((SERIN) < ($ - 3ffh))
000B74 EC0E F000          M         call    SERIN
                          M           else
                          M         rcall   SERIN
                          M           endif
                          M         endif
                          M       endif
                          M     endif
000B78 084F               M         sublw   04Fh
                          M         BIT?GOTO 0, STATUS, Z, L00001
                          M     ifdef USE_LINKER
                          M         CLRWDT?
                          M     else
                          M       if ($ == (L00001))
                          M         CLRWDT?
                          M       endif
                          M     endif
                          M 
                          M     if (((STATUS) > BANKA_END) & ((STATUS) < (0f01h + BANKA_END)))
                          M         bcf     STATUS, OV
                          M         CHK?RP  STATUS
                          M       if ((0)      == 0)
                          M         btfss   STATUS, Z
                          M       else
                          M         btfsc   STATUS, Z
                          M       endif
                          M         bsf     STATUS, OV
                          M         RST?RP
                          M       ifdef USE_LINKER
                          M         btfsc   STATUS, OV
                          M         goto    L00001
                          M       else
                          M         if ((L00001) < 1)
                          M         btfsc   STATUS, OV
                          M         goto    L00001
                          M         else
                          M           if ((L00001) > $)
                          M         btfsc   STATUS, OV
                          M         goto    L00001
                          M           else
                          M             if ((L00001) < ($ - 7fh))
                          M         btfsc   STATUS, OV
                          M         goto    L00001
                          M             else
                          M         bov     L00001
                          M             endif
                          M           endif
                          M         endif
                          M       endif
                          M     else
MPASM 5.81                   PICKBYLIGHT.ASM   1-20-2021  23:46:00         PAGE 229


LOC  OBJECT CODE     LINE SOURCE TEXT
  VALUE

                          M         RST?RP
                          M     if (PREV_ALT != 0)
                          M         bcf     WDTCON, ADSHR
                          M PREV_ALT = 0
                          M     endif
                          M     if (PREV_BANK != 0)
                          M         movlb   0
                          M PREV_BANK = 0
                          M     endif
                          M       if ((0)      == 0)
000B7A A4D8               M         btfss   STATUS, Z
                          M       else
                          M         btfsc   STATUS, Z
                          M       endif
                          M       ifdef USE_LINKER
                          M         goto    L00001
                          M       else
                          M         if ((L00001) < 1)
                          M         goto    L00001
                          M         else
                          M           if ((L00001) > $)
                          M         goto    L00001
                          M           else
                          M             if ((L00001) < ($ - 3ffh))
                          M         goto    L00001
                          M             else
000B7C D7E7               M         bra     L00001
                          M             endif
                          M           endif
                          M         endif
                          M       endif
                          M     endif
                      02184         SERINQ?CL       055h, L00001
                          M         L?CALL  SERIN
                          M         RST?RP
                          M     if (PREV_ALT != 0)
                          M         bcf     WDTCON, ADSHR
                          M PREV_ALT = 0
                          M     endif
                          M     if (PREV_BANK != 0)
                          M         movlb   0
                          M PREV_BANK = 0
                          M     endif
                          M 
                          M     ifdef USE_LINKER
                          M         call    SERIN
                          M     else
                          M       if ((SERIN) < 1)
                          M         call    SERIN
                          M       else
                          M         if ((SERIN) > $)
                          M         call    SERIN
                          M         else
MPASM 5.81                   PICKBYLIGHT.ASM   1-20-2021  23:46:00         PAGE 230


LOC  OBJECT CODE     LINE SOURCE TEXT
  VALUE

                          M           if ((SERIN) < ($ - 3ffh))
000B7E EC0E F000          M         call    SERIN
                          M           else
                          M         rcall   SERIN
                          M           endif
                          M         endif
                          M       endif
                          M     endif
000B82 0855               M         sublw   055h
                          M         BIT?GOTO 0, STATUS, Z, L00001
                          M     ifdef USE_LINKER
                          M         CLRWDT?
                          M     else
                          M       if ($ == (L00001))
                          M         CLRWDT?
                          M       endif
                          M     endif
                          M 
                          M     if (((STATUS) > BANKA_END) & ((STATUS) < (0f01h + BANKA_END)))
                          M         bcf     STATUS, OV
                          M         CHK?RP  STATUS
                          M       if ((0)      == 0)
                          M         btfss   STATUS, Z
                          M       else
                          M         btfsc   STATUS, Z
                          M       endif
                          M         bsf     STATUS, OV
                          M         RST?RP
                          M       ifdef USE_LINKER
                          M         btfsc   STATUS, OV
                          M         goto    L00001
                          M       else
                          M         if ((L00001) < 1)
                          M         btfsc   STATUS, OV
                          M         goto    L00001
                          M         else
                          M           if ((L00001) > $)
                          M         btfsc   STATUS, OV
                          M         goto    L00001
                          M           else
                          M             if ((L00001) < ($ - 7fh))
                          M         btfsc   STATUS, OV
                          M         goto    L00001
                          M             else
                          M         bov     L00001
                          M             endif
                          M           endif
                          M         endif
                          M       endif
                          M     else
                          M         RST?RP
                          M     if (PREV_ALT != 0)
                          M         bcf     WDTCON, ADSHR
MPASM 5.81                   PICKBYLIGHT.ASM   1-20-2021  23:46:00         PAGE 231


LOC  OBJECT CODE     LINE SOURCE TEXT
  VALUE

                          M PREV_ALT = 0
                          M     endif
                          M     if (PREV_BANK != 0)
                          M         movlb   0
                          M PREV_BANK = 0
                          M     endif
                          M       if ((0)      == 0)
000B84 A4D8               M         btfss   STATUS, Z
                          M       else
                          M         btfsc   STATUS, Z
                          M       endif
                          M       ifdef USE_LINKER
                          M         goto    L00001
                          M       else
                          M         if ((L00001) < 1)
                          M         goto    L00001
                          M         else
                          M           if ((L00001) > $)
                          M         goto    L00001
                          M           else
                          M             if ((L00001) < ($ - 3ffh))
                          M         goto    L00001
                          M             else
000B86 D7E2               M         bra     L00001
                          M             endif
                          M           endif
                          M         endif
                          M       endif
                          M     endif
                      02185         SERINQ?CL       054h, L00001
                          M         L?CALL  SERIN
                          M         RST?RP
                          M     if (PREV_ALT != 0)
                          M         bcf     WDTCON, ADSHR
                          M PREV_ALT = 0
                          M     endif
                          M     if (PREV_BANK != 0)
                          M         movlb   0
                          M PREV_BANK = 0
                          M     endif
                          M 
                          M     ifdef USE_LINKER
                          M         call    SERIN
                          M     else
                          M       if ((SERIN) < 1)
                          M         call    SERIN
                          M       else
                          M         if ((SERIN) > $)
                          M         call    SERIN
                          M         else
                          M           if ((SERIN) < ($ - 3ffh))
000B88 EC0E F000          M         call    SERIN
                          M           else
MPASM 5.81                   PICKBYLIGHT.ASM   1-20-2021  23:46:00         PAGE 232


LOC  OBJECT CODE     LINE SOURCE TEXT
  VALUE

                          M         rcall   SERIN
                          M           endif
                          M         endif
                          M       endif
                          M     endif
000B8C 0854               M         sublw   054h
                          M         BIT?GOTO 0, STATUS, Z, L00001
                          M     ifdef USE_LINKER
                          M         CLRWDT?
                          M     else
                          M       if ($ == (L00001))
                          M         CLRWDT?
                          M       endif
                          M     endif
                          M 
                          M     if (((STATUS) > BANKA_END) & ((STATUS) < (0f01h + BANKA_END)))
                          M         bcf     STATUS, OV
                          M         CHK?RP  STATUS
                          M       if ((0)      == 0)
                          M         btfss   STATUS, Z
                          M       else
                          M         btfsc   STATUS, Z
                          M       endif
                          M         bsf     STATUS, OV
                          M         RST?RP
                          M       ifdef USE_LINKER
                          M         btfsc   STATUS, OV
                          M         goto    L00001
                          M       else
                          M         if ((L00001) < 1)
                          M         btfsc   STATUS, OV
                          M         goto    L00001
                          M         else
                          M           if ((L00001) > $)
                          M         btfsc   STATUS, OV
                          M         goto    L00001
                          M           else
                          M             if ((L00001) < ($ - 7fh))
                          M         btfsc   STATUS, OV
                          M         goto    L00001
                          M             else
                          M         bov     L00001
                          M             endif
                          M           endif
                          M         endif
                          M       endif
                          M     else
                          M         RST?RP
                          M     if (PREV_ALT != 0)
                          M         bcf     WDTCON, ADSHR
                          M PREV_ALT = 0
                          M     endif
                          M     if (PREV_BANK != 0)
MPASM 5.81                   PICKBYLIGHT.ASM   1-20-2021  23:46:00         PAGE 233


LOC  OBJECT CODE     LINE SOURCE TEXT
  VALUE

                          M         movlb   0
                          M PREV_BANK = 0
                          M     endif
                          M       if ((0)      == 0)
000B8E A4D8               M         btfss   STATUS, Z
                          M       else
                          M         btfsc   STATUS, Z
                          M       endif
                          M       ifdef USE_LINKER
                          M         goto    L00001
                          M       else
                          M         if ((L00001) < 1)
                          M         goto    L00001
                          M         else
                          M           if ((L00001) > $)
                          M         goto    L00001
                          M           else
                          M             if ((L00001) < ($ - 3ffh))
                          M         goto    L00001
                          M             else
000B90 D7DD               M         bra     L00001
                          M             endif
                          M           endif
                          M         endif
                          M       endif
                          M     endif
                      02186         SERINQ?CL       02Dh, L00001
                          M         L?CALL  SERIN
                          M         RST?RP
                          M     if (PREV_ALT != 0)
                          M         bcf     WDTCON, ADSHR
                          M PREV_ALT = 0
                          M     endif
                          M     if (PREV_BANK != 0)
                          M         movlb   0
                          M PREV_BANK = 0
                          M     endif
                          M 
                          M     ifdef USE_LINKER
                          M         call    SERIN
                          M     else
                          M       if ((SERIN) < 1)
                          M         call    SERIN
                          M       else
                          M         if ((SERIN) > $)
                          M         call    SERIN
                          M         else
                          M           if ((SERIN) < ($ - 3ffh))
000B92 EC0E F000          M         call    SERIN
                          M           else
                          M         rcall   SERIN
                          M           endif
                          M         endif
MPASM 5.81                   PICKBYLIGHT.ASM   1-20-2021  23:46:00         PAGE 234


LOC  OBJECT CODE     LINE SOURCE TEXT
  VALUE

                          M       endif
                          M     endif
000B96 082D               M         sublw   02Dh
                          M         BIT?GOTO 0, STATUS, Z, L00001
                          M     ifdef USE_LINKER
                          M         CLRWDT?
                          M     else
                          M       if ($ == (L00001))
                          M         CLRWDT?
                          M       endif
                          M     endif
                          M 
                          M     if (((STATUS) > BANKA_END) & ((STATUS) < (0f01h + BANKA_END)))
                          M         bcf     STATUS, OV
                          M         CHK?RP  STATUS
                          M       if ((0)      == 0)
                          M         btfss   STATUS, Z
                          M       else
                          M         btfsc   STATUS, Z
                          M       endif
                          M         bsf     STATUS, OV
                          M         RST?RP
                          M       ifdef USE_LINKER
                          M         btfsc   STATUS, OV
                          M         goto    L00001
                          M       else
                          M         if ((L00001) < 1)
                          M         btfsc   STATUS, OV
                          M         goto    L00001
                          M         else
                          M           if ((L00001) > $)
                          M         btfsc   STATUS, OV
                          M         goto    L00001
                          M           else
                          M             if ((L00001) < ($ - 7fh))
                          M         btfsc   STATUS, OV
                          M         goto    L00001
                          M             else
                          M         bov     L00001
                          M             endif
                          M           endif
                          M         endif
                          M       endif
                          M     else
                          M         RST?RP
                          M     if (PREV_ALT != 0)
                          M         bcf     WDTCON, ADSHR
                          M PREV_ALT = 0
                          M     endif
                          M     if (PREV_BANK != 0)
                          M         movlb   0
                          M PREV_BANK = 0
                          M     endif
MPASM 5.81                   PICKBYLIGHT.ASM   1-20-2021  23:46:00         PAGE 235


LOC  OBJECT CODE     LINE SOURCE TEXT
  VALUE

                          M       if ((0)      == 0)
000B98 A4D8               M         btfss   STATUS, Z
                          M       else
                          M         btfsc   STATUS, Z
                          M       endif
                          M       ifdef USE_LINKER
                          M         goto    L00001
                          M       else
                          M         if ((L00001) < 1)
                          M         goto    L00001
                          M         else
                          M           if ((L00001) > $)
                          M         goto    L00001
                          M           else
                          M             if ((L00001) < ($ - 3ffh))
                          M         goto    L00001
                          M             else
000B9A D7D8               M         bra     L00001
                          M             endif
                          M           endif
                          M         endif
                          M       endif
                          M     endif
                      02187         SERINQ?CL       03Eh, L00001
                          M         L?CALL  SERIN
                          M         RST?RP
                          M     if (PREV_ALT != 0)
                          M         bcf     WDTCON, ADSHR
                          M PREV_ALT = 0
                          M     endif
                          M     if (PREV_BANK != 0)
                          M         movlb   0
                          M PREV_BANK = 0
                          M     endif
                          M 
                          M     ifdef USE_LINKER
                          M         call    SERIN
                          M     else
                          M       if ((SERIN) < 1)
                          M         call    SERIN
                          M       else
                          M         if ((SERIN) > $)
                          M         call    SERIN
                          M         else
                          M           if ((SERIN) < ($ - 3ffh))
000B9C EC0E F000          M         call    SERIN
                          M           else
                          M         rcall   SERIN
                          M           endif
                          M         endif
                          M       endif
                          M     endif
000BA0 083E               M         sublw   03Eh
MPASM 5.81                   PICKBYLIGHT.ASM   1-20-2021  23:46:00         PAGE 236


LOC  OBJECT CODE     LINE SOURCE TEXT
  VALUE

                          M         BIT?GOTO 0, STATUS, Z, L00001
                          M     ifdef USE_LINKER
                          M         CLRWDT?
                          M     else
                          M       if ($ == (L00001))
                          M         CLRWDT?
                          M       endif
                          M     endif
                          M 
                          M     if (((STATUS) > BANKA_END) & ((STATUS) < (0f01h + BANKA_END)))
                          M         bcf     STATUS, OV
                          M         CHK?RP  STATUS
                          M       if ((0)      == 0)
                          M         btfss   STATUS, Z
                          M       else
                          M         btfsc   STATUS, Z
                          M       endif
                          M         bsf     STATUS, OV
                          M         RST?RP
                          M       ifdef USE_LINKER
                          M         btfsc   STATUS, OV
                          M         goto    L00001
                          M       else
                          M         if ((L00001) < 1)
                          M         btfsc   STATUS, OV
                          M         goto    L00001
                          M         else
                          M           if ((L00001) > $)
                          M         btfsc   STATUS, OV
                          M         goto    L00001
                          M           else
                          M             if ((L00001) < ($ - 7fh))
                          M         btfsc   STATUS, OV
                          M         goto    L00001
                          M             else
                          M         bov     L00001
                          M             endif
                          M           endif
                          M         endif
                          M       endif
                          M     else
                          M         RST?RP
                          M     if (PREV_ALT != 0)
                          M         bcf     WDTCON, ADSHR
                          M PREV_ALT = 0
                          M     endif
                          M     if (PREV_BANK != 0)
                          M         movlb   0
                          M PREV_BANK = 0
                          M     endif
                          M       if ((0)      == 0)
000BA2 A4D8               M         btfss   STATUS, Z
                          M       else
MPASM 5.81                   PICKBYLIGHT.ASM   1-20-2021  23:46:00         PAGE 237


LOC  OBJECT CODE     LINE SOURCE TEXT
  VALUE

                          M         btfsc   STATUS, Z
                          M       endif
                          M       ifdef USE_LINKER
                          M         goto    L00001
                          M       else
                          M         if ((L00001) < 1)
                          M         goto    L00001
                          M         else
                          M           if ((L00001) > $)
                          M         goto    L00001
                          M           else
                          M             if ((L00001) < ($ - 3ffh))
                          M         goto    L00001
                          M             else
000BA4 D7D3               M         bra     L00001
                          M             endif
                          M           endif
                          M         endif
                          M       endif
                          M     endif
                      02188         SERIN?B _tmp
                          M         L?CALL  SERIN
                          M         RST?RP
                          M     if (PREV_ALT != 0)
                          M         bcf     WDTCON, ADSHR
                          M PREV_ALT = 0
                          M     endif
                          M     if (PREV_BANK != 0)
                          M         movlb   0
                          M PREV_BANK = 0
                          M     endif
                          M 
                          M     ifdef USE_LINKER
                          M         call    SERIN
                          M     else
                          M       if ((SERIN) < 1)
                          M         call    SERIN
                          M       else
                          M         if ((SERIN) > $)
                          M         call    SERIN
                          M         else
                          M           if ((SERIN) < ($ - 3ffh))
000BA6 EC0E F000          M         call    SERIN
                          M           else
                          M         rcall   SERIN
                          M           endif
                          M         endif
                          M       endif
                          M     endif
                          M         MOVE?AB _tmp
                          M         CHK?RP  _tmp
                          M     if (((_tmp)  & 8000h) != PREV_ALT)
                          M       if ((_tmp)  & 8000h)
MPASM 5.81                   PICKBYLIGHT.ASM   1-20-2021  23:46:00         PAGE 238


LOC  OBJECT CODE     LINE SOURCE TEXT
  VALUE

                          M         bsf     WDTCON, ADSHR
                          M       else
                          M         bcf     WDTCON, ADSHR
                          M       endif
                          M PREV_ALT = (_tmp)  & 8000h
                          M     endif
                          M     if ((((_tmp)  & 0fffh) > BANKA_END) & (((_tmp)  & 0fffh) < (0f01h + BANKA_END)))
                          M       if (((_tmp)  & 0f00h) != (PREV_BANK << 8))
                          M         movlb   high (_tmp)
                          M PREV_BANK = high (_tmp)
                          M       endif
                          M     endif
000BAA 6E2D               M         movwf   _tmp
                      02189         SERIN?B _tmp + 00001h
                          M         L?CALL  SERIN
                          M         RST?RP
                          M     if (PREV_ALT != 0)
                          M         bcf     WDTCON, ADSHR
                          M PREV_ALT = 0
                          M     endif
                          M     if (PREV_BANK != 0)
                          M         movlb   0
                          M PREV_BANK = 0
                          M     endif
                          M 
                          M     ifdef USE_LINKER
                          M         call    SERIN
                          M     else
                          M       if ((SERIN) < 1)
                          M         call    SERIN
                          M       else
                          M         if ((SERIN) > $)
                          M         call    SERIN
                          M         else
                          M           if ((SERIN) < ($ - 3ffh))
000BAC EC0E F000          M         call    SERIN
                          M           else
                          M         rcall   SERIN
                          M           endif
                          M         endif
                          M       endif
                          M     endif
                          M         MOVE?AB _tmp + 00001h
                          M         CHK?RP  _tmp + 00001h
                          M     if (((_tmp + 00001h) & 8000h) != PREV_ALT)
                          M       if ((_tmp + 00001h) & 8000h)
                          M         bsf     WDTCON, ADSHR
                          M       else
                          M         bcf     WDTCON, ADSHR
                          M       endif
                          M PREV_ALT = (_tmp + 00001h) & 8000h
                          M     endif
                          M     if ((((_tmp + 00001h) & 0fffh) > BANKA_END) & (((_tmp + 00001h) & 0fffh) < (0f01h + BANKA_END)))
MPASM 5.81                   PICKBYLIGHT.ASM   1-20-2021  23:46:00         PAGE 239


LOC  OBJECT CODE     LINE SOURCE TEXT
  VALUE

                          M       if (((_tmp + 00001h) & 0f00h) != (PREV_BANK << 8))
                          M         movlb   high (_tmp + 00001h)
                          M PREV_BANK = high (_tmp + 00001h)
                          M       endif
                          M     endif
000BB0 6E2E               M         movwf   _tmp + 00001h
                      02190         SERIN?B _tmp + 00002h
                          M         L?CALL  SERIN
                          M         RST?RP
                          M     if (PREV_ALT != 0)
                          M         bcf     WDTCON, ADSHR
                          M PREV_ALT = 0
                          M     endif
                          M     if (PREV_BANK != 0)
                          M         movlb   0
                          M PREV_BANK = 0
                          M     endif
                          M 
                          M     ifdef USE_LINKER
                          M         call    SERIN
                          M     else
                          M       if ((SERIN) < 1)
                          M         call    SERIN
                          M       else
                          M         if ((SERIN) > $)
                          M         call    SERIN
                          M         else
                          M           if ((SERIN) < ($ - 3ffh))
000BB2 EC0E F000          M         call    SERIN
                          M           else
                          M         rcall   SERIN
                          M           endif
                          M         endif
                          M       endif
                          M     endif
                          M         MOVE?AB _tmp + 00002h
                          M         CHK?RP  _tmp + 00002h
                          M     if (((_tmp + 00002h) & 8000h) != PREV_ALT)
                          M       if ((_tmp + 00002h) & 8000h)
                          M         bsf     WDTCON, ADSHR
                          M       else
                          M         bcf     WDTCON, ADSHR
                          M       endif
                          M PREV_ALT = (_tmp + 00002h) & 8000h
                          M     endif
                          M     if ((((_tmp + 00002h) & 0fffh) > BANKA_END) & (((_tmp + 00002h) & 0fffh) < (0f01h + BANKA_END)))
                          M       if (((_tmp + 00002h) & 0f00h) != (PREV_BANK << 8))
                          M         movlb   high (_tmp + 00002h)
                          M PREV_BANK = high (_tmp + 00002h)
                          M       endif
                          M     endif
000BB6 6E2F               M         movwf   _tmp + 00002h
                      02191         SERIN?B _tmp + 00003h
MPASM 5.81                   PICKBYLIGHT.ASM   1-20-2021  23:46:00         PAGE 240


LOC  OBJECT CODE     LINE SOURCE TEXT
  VALUE

                          M         L?CALL  SERIN
                          M         RST?RP
                          M     if (PREV_ALT != 0)
                          M         bcf     WDTCON, ADSHR
                          M PREV_ALT = 0
                          M     endif
                          M     if (PREV_BANK != 0)
                          M         movlb   0
                          M PREV_BANK = 0
                          M     endif
                          M 
                          M     ifdef USE_LINKER
                          M         call    SERIN
                          M     else
                          M       if ((SERIN) < 1)
                          M         call    SERIN
                          M       else
                          M         if ((SERIN) > $)
                          M         call    SERIN
                          M         else
                          M           if ((SERIN) < ($ - 3ffh))
000BB8 EC0E F000          M         call    SERIN
                          M           else
                          M         rcall   SERIN
                          M           endif
                          M         endif
                          M       endif
                          M     endif
                          M         MOVE?AB _tmp + 00003h
                          M         CHK?RP  _tmp + 00003h
                          M     if (((_tmp + 00003h) & 8000h) != PREV_ALT)
                          M       if ((_tmp + 00003h) & 8000h)
                          M         bsf     WDTCON, ADSHR
                          M       else
                          M         bcf     WDTCON, ADSHR
                          M       endif
                          M PREV_ALT = (_tmp + 00003h) & 8000h
                          M     endif
                          M     if ((((_tmp + 00003h) & 0fffh) > BANKA_END) & (((_tmp + 00003h) & 0fffh) < (0f01h + BANKA_END)))
                          M       if (((_tmp + 00003h) & 0f00h) != (PREV_BANK << 8))
                          M         movlb   high (_tmp + 00003h)
                          M PREV_BANK = high (_tmp + 00003h)
                          M       endif
                          M     endif
000BBC 6E30               M         movwf   _tmp + 00003h
                      02192 
                      02193 ; C:\USERS\DMILOSAVLJEVIC\DOCUMENTS\PROJECT\TECOMATIC\PICKBYLIGHT\PICKBYLIGHT.PBP       00132       _Out
                            putA1 = tmp[0]
                      02194         MOVE?BT _tmp, __OutputA1
                          M     if (((_tmp) <= BANKA_END) | ((_tmp) >= (0f01h + BANKA_END)))
                          M         CHK?RP  PORTD
                          M     if (((PORTD) & 8000h) != PREV_ALT)
                          M       if ((PORTD) & 8000h)
MPASM 5.81                   PICKBYLIGHT.ASM   1-20-2021  23:46:00         PAGE 241


LOC  OBJECT CODE     LINE SOURCE TEXT
  VALUE

                          M         bsf     WDTCON, ADSHR
                          M       else
                          M         bcf     WDTCON, ADSHR
                          M       endif
                          M PREV_ALT = (PORTD) & 8000h
                          M     endif
                          M     if ((((PORTD) & 0fffh) > BANKA_END) & (((PORTD) & 0fffh) < (0f01h + BANKA_END)))
                          M       if (((PORTD) & 0f00h) != (PREV_BANK << 8))
                          M         movlb   high (PORTD)
                          M PREV_BANK = high (PORTD)
                          M       endif
                          M     endif
000BBE B02D               M         btfsc   _tmp, 0
000BC0 8483               M         bsf     PORTD,  002h
000BC2 A02D               M         btfss   _tmp, 0
000BC4 9483               M         bcf     PORTD,  002h
                          M     else
                          M       if (((_tmp) & 0f00h) == ((PORTD) & 0f00h))
                          M         CHK?RP  _tmp
                          M         btfsc   _tmp, 0
                          M         bsf     PORTD,  002h
                          M         btfss   _tmp, 0
                          M         bcf     PORTD,  002h
                          M       else
                          M           if (((PORTD)  <= BANKA_END) | ((PORTD)  >= (0f01h + BANKA_END)))
                          M         CHK?RP  _tmp
                          M         btfsc   _tmp, 0
                          M         bsf     PORTD,  002h
                          M         btfss   _tmp, 0
                          M         bcf     PORTD,  002h
                          M           else
                          M         CHK?RP  _tmp
                          M         rrcf    _tmp, W
                          M         CHK?RP  PORTD
                          M         btfsc   STATUS, C
                          M         bsf     PORTD,  002h
                          M         btfss   STATUS, C
                          M         bcf     PORTD,  002h
                          M           endif
                          M       endif
                          M     endif
                      02195 
                      02196 ; C:\USERS\DMILOSAVLJEVIC\DOCUMENTS\PROJECT\TECOMATIC\PICKBYLIGHT\PICKBYLIGHT.PBP       00133       _Out
                            putA2 = tmp[1]
                      02197         MOVE?BT _tmp + 00001h, __OutputA2
                          M     if (((_tmp + 00001h) <= BANKA_END) | ((_tmp + 00001h) >= (0f01h + BANKA_END)))
                          M         CHK?RP  PORTD
                          M     if (((PORTD) & 8000h) != PREV_ALT)
                          M       if ((PORTD) & 8000h)
                          M         bsf     WDTCON, ADSHR
                          M       else
                          M         bcf     WDTCON, ADSHR
                          M       endif
MPASM 5.81                   PICKBYLIGHT.ASM   1-20-2021  23:46:00         PAGE 242


LOC  OBJECT CODE     LINE SOURCE TEXT
  VALUE

                          M PREV_ALT = (PORTD) & 8000h
                          M     endif
                          M     if ((((PORTD) & 0fffh) > BANKA_END) & (((PORTD) & 0fffh) < (0f01h + BANKA_END)))
                          M       if (((PORTD) & 0f00h) != (PREV_BANK << 8))
                          M         movlb   high (PORTD)
                          M PREV_BANK = high (PORTD)
                          M       endif
                          M     endif
000BC6 B02E               M         btfsc   _tmp + 00001h, 0
000BC8 8683               M         bsf     PORTD,  003h
000BCA A02E               M         btfss   _tmp + 00001h, 0
000BCC 9683               M         bcf     PORTD,  003h
                          M     else
                          M       if (((_tmp + 00001h) & 0f00h) == ((PORTD) & 0f00h))
                          M         CHK?RP  _tmp + 00001h
                          M         btfsc   _tmp + 00001h, 0
                          M         bsf     PORTD,  003h
                          M         btfss   _tmp + 00001h, 0
                          M         bcf     PORTD,  003h
                          M       else
                          M           if (((PORTD)  <= BANKA_END) | ((PORTD)  >= (0f01h + BANKA_END)))
                          M         CHK?RP  _tmp + 00001h
                          M         btfsc   _tmp + 00001h, 0
                          M         bsf     PORTD,  003h
                          M         btfss   _tmp + 00001h, 0
                          M         bcf     PORTD,  003h
                          M           else
                          M         CHK?RP  _tmp + 00001h
                          M         rrcf    _tmp + 00001h, W
                          M         CHK?RP  PORTD
                          M         btfsc   STATUS, C
                          M         bsf     PORTD,  003h
                          M         btfss   STATUS, C
                          M         bcf     PORTD,  003h
                          M           endif
                          M       endif
                          M     endif
                      02198 
                      02199 ; C:\USERS\DMILOSAVLJEVIC\DOCUMENTS\PROJECT\TECOMATIC\PICKBYLIGHT\PICKBYLIGHT.PBP       00134       _Out
                            putA3 = tmp[2]
                      02200         MOVE?BT _tmp + 00002h, __OutputA3
                          M     if (((_tmp + 00002h) <= BANKA_END) | ((_tmp + 00002h) >= (0f01h + BANKA_END)))
                          M         CHK?RP  PORTD
                          M     if (((PORTD) & 8000h) != PREV_ALT)
                          M       if ((PORTD) & 8000h)
                          M         bsf     WDTCON, ADSHR
                          M       else
                          M         bcf     WDTCON, ADSHR
                          M       endif
                          M PREV_ALT = (PORTD) & 8000h
                          M     endif
                          M     if ((((PORTD) & 0fffh) > BANKA_END) & (((PORTD) & 0fffh) < (0f01h + BANKA_END)))
                          M       if (((PORTD) & 0f00h) != (PREV_BANK << 8))
MPASM 5.81                   PICKBYLIGHT.ASM   1-20-2021  23:46:00         PAGE 243


LOC  OBJECT CODE     LINE SOURCE TEXT
  VALUE

                          M         movlb   high (PORTD)
                          M PREV_BANK = high (PORTD)
                          M       endif
                          M     endif
000BCE B02F               M         btfsc   _tmp + 00002h, 0
000BD0 8283               M         bsf     PORTD,  001h
000BD2 A02F               M         btfss   _tmp + 00002h, 0
000BD4 9283               M         bcf     PORTD,  001h
                          M     else
                          M       if (((_tmp + 00002h) & 0f00h) == ((PORTD) & 0f00h))
                          M         CHK?RP  _tmp + 00002h
                          M         btfsc   _tmp + 00002h, 0
                          M         bsf     PORTD,  001h
                          M         btfss   _tmp + 00002h, 0
                          M         bcf     PORTD,  001h
                          M       else
                          M           if (((PORTD)  <= BANKA_END) | ((PORTD)  >= (0f01h + BANKA_END)))
                          M         CHK?RP  _tmp + 00002h
                          M         btfsc   _tmp + 00002h, 0
                          M         bsf     PORTD,  001h
                          M         btfss   _tmp + 00002h, 0
                          M         bcf     PORTD,  001h
                          M           else
                          M         CHK?RP  _tmp + 00002h
                          M         rrcf    _tmp + 00002h, W
                          M         CHK?RP  PORTD
                          M         btfsc   STATUS, C
                          M         bsf     PORTD,  001h
                          M         btfss   STATUS, C
                          M         bcf     PORTD,  001h
                          M           endif
                          M       endif
                          M     endif
                      02201 
                      02202 ; C:\USERS\DMILOSAVLJEVIC\DOCUMENTS\PROJECT\TECOMATIC\PICKBYLIGHT\PICKBYLIGHT.PBP       00135       _Out
                            putA4 = tmp[3] 
                      02203         MOVE?BT _tmp + 00003h, __OutputA4
                          M     if (((_tmp + 00003h) <= BANKA_END) | ((_tmp + 00003h) >= (0f01h + BANKA_END)))
                          M         CHK?RP  PORTD
                          M     if (((PORTD) & 8000h) != PREV_ALT)
                          M       if ((PORTD) & 8000h)
                          M         bsf     WDTCON, ADSHR
                          M       else
                          M         bcf     WDTCON, ADSHR
                          M       endif
                          M PREV_ALT = (PORTD) & 8000h
                          M     endif
                          M     if ((((PORTD) & 0fffh) > BANKA_END) & (((PORTD) & 0fffh) < (0f01h + BANKA_END)))
                          M       if (((PORTD) & 0f00h) != (PREV_BANK << 8))
                          M         movlb   high (PORTD)
                          M PREV_BANK = high (PORTD)
                          M       endif
                          M     endif
MPASM 5.81                   PICKBYLIGHT.ASM   1-20-2021  23:46:00         PAGE 244


LOC  OBJECT CODE     LINE SOURCE TEXT
  VALUE

000BD6 B030               M         btfsc   _tmp + 00003h, 0
000BD8 8083               M         bsf     PORTD,  000h
000BDA A030               M         btfss   _tmp + 00003h, 0
000BDC 9083               M         bcf     PORTD,  000h
                          M     else
                          M       if (((_tmp + 00003h) & 0f00h) == ((PORTD) & 0f00h))
                          M         CHK?RP  _tmp + 00003h
                          M         btfsc   _tmp + 00003h, 0
                          M         bsf     PORTD,  000h
                          M         btfss   _tmp + 00003h, 0
                          M         bcf     PORTD,  000h
                          M       else
                          M           if (((PORTD)  <= BANKA_END) | ((PORTD)  >= (0f01h + BANKA_END)))
                          M         CHK?RP  _tmp + 00003h
                          M         btfsc   _tmp + 00003h, 0
                          M         bsf     PORTD,  000h
                          M         btfss   _tmp + 00003h, 0
                          M         bcf     PORTD,  000h
                          M           else
                          M         CHK?RP  _tmp + 00003h
                          M         rrcf    _tmp + 00003h, W
                          M         CHK?RP  PORTD
                          M         btfsc   STATUS, C
                          M         bsf     PORTD,  000h
                          M         btfss   STATUS, C
                          M         bcf     PORTD,  000h
                          M           endif
                          M       endif
                          M     endif
                      02204 
                      02205 ; C:\USERS\DMILOSAVLJEVIC\DOCUMENTS\PROJECT\TECOMATIC\PICKBYLIGHT\PICKBYLIGHT.PBP       00136       _rs2
                            32Rx = 0
                      02206         MOVE?CT 000h, __rs232Rx
                          M         CHK?RP  PORTD
                          M     if (((PORTD) & 8000h) != PREV_ALT)
                          M       if ((PORTD) & 8000h)
                          M         bsf     WDTCON, ADSHR
                          M       else
                          M         bcf     WDTCON, ADSHR
                          M       endif
                          M PREV_ALT = (PORTD) & 8000h
                          M     endif
                          M     if ((((PORTD) & 0fffh) > BANKA_END) & (((PORTD) & 0fffh) < (0f01h + BANKA_END)))
                          M       if (((PORTD) & 0f00h) != (PREV_BANK << 8))
                          M         movlb   high (PORTD)
                          M PREV_BANK = high (PORTD)
                          M       endif
                          M     endif
                          M     if (((000h) & 1) == 1)
                          M         bsf     PORTD,  006h
                          M     else
000BDE 9C83               M         bcf     PORTD,  006h
                          M     endif
MPASM 5.81                   PICKBYLIGHT.ASM   1-20-2021  23:46:00         PAGE 245


LOC  OBJECT CODE     LINE SOURCE TEXT
  VALUE

                      02207 
                      02208 ; C:\USERS\DMILOSAVLJEVIC\DOCUMENTS\PROJECT\TECOMATIC\PICKBYLIGHT\PICKBYLIGHT.PBP       00137   return
                      02209         RETURN? 
                          M     ifdef DEBUG_STACK
                          M         CHK?RP  DEBUG_STACK
                          M         decf    DEBUG_STACK, F
                          M     endif
                          M         RST?RP
                          M     if (PREV_ALT != 0)
                          M         bcf     WDTCON, ADSHR
                          M PREV_ALT = 0
                          M     endif
                          M     if (PREV_BANK != 0)
                          M         movlb   0
                          M PREV_BANK = 0
                          M     endif
000BE0 0012               M         return
                      02210 
                      02211 ; C:\USERS\DMILOSAVLJEVIC\DOCUMENTS\PROJECT\TECOMATIC\PICKBYLIGHT\PICKBYLIGHT.PBP       00139   SendInte
                            rfaceDetail: 
                      02212 
                      02213         LABEL?L _SendInterfaceDetail    
                          M         RST?RP
                          M     if (PREV_ALT != 0)
                          M         bcf     WDTCON, ADSHR
                          M PREV_ALT = 0
                          M     endif
                          M     if (PREV_BANK != 0)
                          M         movlb   0
                          M PREV_BANK = 0
                          M     endif
                          M     ifdef PM_USED
                          M         LALL
                          M _SendInterfaceDetail
                          M         XALL
                          M     else
000BE2                    M _SendInterfaceDetail
                          M     endif
                      02214 
                      02215 ; C:\USERS\DMILOSAVLJEVIC\DOCUMENTS\PROJECT\TECOMATIC\PICKBYLIGHT\PICKBYLIGHT.PBP       00140       sERO
                            UT _rs232Tx,rs232_bps,["Interface SN:","4455",13,10] 
                      02216         SERPIN?T        __rs232Tx
                          M         BIT?R1  PORTD, 007h
000BE2 0E83               M         movlw   low ((PORTD) + ((007h)  >> 3))
                          M         CHK?RP  RR1
                          M     if (((RR1)   & 8000h) != PREV_ALT)
                          M       if ((RR1)   & 8000h)
                          M         bsf     WDTCON, ADSHR
                          M       else
                          M         bcf     WDTCON, ADSHR
                          M       endif
                          M PREV_ALT = (RR1)   & 8000h
                          M     endif
MPASM 5.81                   PICKBYLIGHT.ASM   1-20-2021  23:46:00         PAGE 246


LOC  OBJECT CODE     LINE SOURCE TEXT
  VALUE

                          M     if ((((RR1)   & 0fffh) > BANKA_END) & (((RR1)   & 0fffh) < (0f01h + BANKA_END)))
                          M       if (((RR1)   & 0f00h) != (PREV_BANK << 8))
                          M         movlb   high (RR1)
                          M PREV_BANK = high (RR1)
                          M       endif
                          M     endif
000BE4 6E1F               M         movwf   RR1
000BE6 0E0F               M         movlw   high ((PORTD) + ((007h)  >> 3))
000BE8 6E21               M         movwf   RS1
                          M         BIT?W   007h
                          M     if (((007h)  & 7) == 0)
                          M         movlw   01h
                          M     endif
                          M     if (((007h)  & 7) == 1)
                          M         movlw   02h
                          M     endif
                          M     if (((007h)  & 7) == 2)
                          M         movlw   04h
                          M     endif
                          M     if (((007h)  & 7) == 3)
                          M         movlw   08h
                          M     endif
                          M     if (((007h)  & 7) == 4)
                          M         movlw   10h
                          M     endif
                          M     if (((007h)  & 7) == 5)
                          M         movlw   20h
                          M     endif
                          M     if (((007h)  & 7) == 6)
                          M         movlw   40h
                          M     endif
                          M     if (((007h)  & 7) == 7)
000BEA 0E80               M         movlw   80h
                          M     endif
000BEC 6E1D               M         movwf   RM1
                      02217         SERMODE?C       _rs232_bps
                          M         MOVE?CB _rs232_bps, GOP
                          M         CHK?RP  GOP
                          M     if (((GOP)   & 8000h) != PREV_ALT)
                          M       if ((GOP)   & 8000h)
                          M         bsf     WDTCON, ADSHR
                          M       else
                          M         bcf     WDTCON, ADSHR
                          M       endif
                          M PREV_ALT = (GOP)   & 8000h
                          M     endif
                          M     if ((((GOP)   & 0fffh) > BANKA_END) & (((GOP)   & 0fffh) < (0f01h + BANKA_END)))
                          M       if (((GOP)   & 0f00h) != (PREV_BANK << 8))
                          M         movlb   high (GOP)
                          M PREV_BANK = high (GOP)
                          M       endif
                          M     endif
                          M     if (low (_rs232_bps) == 0)
MPASM 5.81                   PICKBYLIGHT.ASM   1-20-2021  23:46:00         PAGE 247


LOC  OBJECT CODE     LINE SOURCE TEXT
  VALUE

                          M         clrf    GOP
                          M     else
                          M       if (low (_rs232_bps) == 255)
                          M         setf    GOP
                          M       else
000BEE 0E06               M         movlw   low (_rs232_bps)
000BF0 6E01               M         movwf   GOP
                          M       endif
                          M     endif
                      02218         SEROUT?C        049h
000BF2 0E49               M         movlw   049h
                          M         L?CALL  SEROUT
                          M         RST?RP
                          M     if (PREV_ALT != 0)
                          M         bcf     WDTCON, ADSHR
                          M PREV_ALT = 0
                          M     endif
                          M     if (PREV_BANK != 0)
                          M         movlb   0
                          M PREV_BANK = 0
                          M     endif
                          M 
                          M     ifdef USE_LINKER
                          M         call    SEROUT
                          M     else
                          M       if ((SEROUT) < 1)
                          M         call    SEROUT
                          M       else
                          M         if ((SEROUT) > $)
                          M         call    SEROUT
                          M         else
                          M           if ((SEROUT) < ($ - 3ffh))
000BF4 EC4B F000          M         call    SEROUT
                          M           else
                          M         rcall   SEROUT
                          M           endif
                          M         endif
                          M       endif
                          M     endif
                      02219         SEROUT?C        06Eh
000BF8 0E6E               M         movlw   06Eh
                          M         L?CALL  SEROUT
                          M         RST?RP
                          M     if (PREV_ALT != 0)
                          M         bcf     WDTCON, ADSHR
                          M PREV_ALT = 0
                          M     endif
                          M     if (PREV_BANK != 0)
                          M         movlb   0
                          M PREV_BANK = 0
                          M     endif
                          M 
                          M     ifdef USE_LINKER
MPASM 5.81                   PICKBYLIGHT.ASM   1-20-2021  23:46:00         PAGE 248


LOC  OBJECT CODE     LINE SOURCE TEXT
  VALUE

                          M         call    SEROUT
                          M     else
                          M       if ((SEROUT) < 1)
                          M         call    SEROUT
                          M       else
                          M         if ((SEROUT) > $)
                          M         call    SEROUT
                          M         else
                          M           if ((SEROUT) < ($ - 3ffh))
000BFA EC4B F000          M         call    SEROUT
                          M           else
                          M         rcall   SEROUT
                          M           endif
                          M         endif
                          M       endif
                          M     endif
                      02220         SEROUT?C        074h
000BFE 0E74               M         movlw   074h
                          M         L?CALL  SEROUT
                          M         RST?RP
                          M     if (PREV_ALT != 0)
                          M         bcf     WDTCON, ADSHR
                          M PREV_ALT = 0
                          M     endif
                          M     if (PREV_BANK != 0)
                          M         movlb   0
                          M PREV_BANK = 0
                          M     endif
                          M 
                          M     ifdef USE_LINKER
                          M         call    SEROUT
                          M     else
                          M       if ((SEROUT) < 1)
                          M         call    SEROUT
                          M       else
                          M         if ((SEROUT) > $)
                          M         call    SEROUT
                          M         else
                          M           if ((SEROUT) < ($ - 3ffh))
000C00 EC4B F000          M         call    SEROUT
                          M           else
                          M         rcall   SEROUT
                          M           endif
                          M         endif
                          M       endif
                          M     endif
                      02221         SEROUT?C        065h
000C04 0E65               M         movlw   065h
                          M         L?CALL  SEROUT
                          M         RST?RP
                          M     if (PREV_ALT != 0)
                          M         bcf     WDTCON, ADSHR
                          M PREV_ALT = 0
MPASM 5.81                   PICKBYLIGHT.ASM   1-20-2021  23:46:00         PAGE 249


LOC  OBJECT CODE     LINE SOURCE TEXT
  VALUE

                          M     endif
                          M     if (PREV_BANK != 0)
                          M         movlb   0
                          M PREV_BANK = 0
                          M     endif
                          M 
                          M     ifdef USE_LINKER
                          M         call    SEROUT
                          M     else
                          M       if ((SEROUT) < 1)
                          M         call    SEROUT
                          M       else
                          M         if ((SEROUT) > $)
                          M         call    SEROUT
                          M         else
                          M           if ((SEROUT) < ($ - 3ffh))
000C06 EC4B F000          M         call    SEROUT
                          M           else
                          M         rcall   SEROUT
                          M           endif
                          M         endif
                          M       endif
                          M     endif
                      02222         SEROUT?C        072h
000C0A 0E72               M         movlw   072h
                          M         L?CALL  SEROUT
                          M         RST?RP
                          M     if (PREV_ALT != 0)
                          M         bcf     WDTCON, ADSHR
                          M PREV_ALT = 0
                          M     endif
                          M     if (PREV_BANK != 0)
                          M         movlb   0
                          M PREV_BANK = 0
                          M     endif
                          M 
                          M     ifdef USE_LINKER
                          M         call    SEROUT
                          M     else
                          M       if ((SEROUT) < 1)
                          M         call    SEROUT
                          M       else
                          M         if ((SEROUT) > $)
                          M         call    SEROUT
                          M         else
                          M           if ((SEROUT) < ($ - 3ffh))
000C0C EC4B F000          M         call    SEROUT
                          M           else
                          M         rcall   SEROUT
                          M           endif
                          M         endif
                          M       endif
                          M     endif
MPASM 5.81                   PICKBYLIGHT.ASM   1-20-2021  23:46:00         PAGE 250


LOC  OBJECT CODE     LINE SOURCE TEXT
  VALUE

                      02223         SEROUT?C        066h
000C10 0E66               M         movlw   066h
                          M         L?CALL  SEROUT
                          M         RST?RP
                          M     if (PREV_ALT != 0)
                          M         bcf     WDTCON, ADSHR
                          M PREV_ALT = 0
                          M     endif
                          M     if (PREV_BANK != 0)
                          M         movlb   0
                          M PREV_BANK = 0
                          M     endif
                          M 
                          M     ifdef USE_LINKER
                          M         call    SEROUT
                          M     else
                          M       if ((SEROUT) < 1)
                          M         call    SEROUT
                          M       else
                          M         if ((SEROUT) > $)
                          M         call    SEROUT
                          M         else
                          M           if ((SEROUT) < ($ - 3ffh))
000C12 EC4B F000          M         call    SEROUT
                          M           else
                          M         rcall   SEROUT
                          M           endif
                          M         endif
                          M       endif
                          M     endif
                      02224         SEROUT?C        061h
000C16 0E61               M         movlw   061h
                          M         L?CALL  SEROUT
                          M         RST?RP
                          M     if (PREV_ALT != 0)
                          M         bcf     WDTCON, ADSHR
                          M PREV_ALT = 0
                          M     endif
                          M     if (PREV_BANK != 0)
                          M         movlb   0
                          M PREV_BANK = 0
                          M     endif
                          M 
                          M     ifdef USE_LINKER
                          M         call    SEROUT
                          M     else
                          M       if ((SEROUT) < 1)
                          M         call    SEROUT
                          M       else
                          M         if ((SEROUT) > $)
                          M         call    SEROUT
                          M         else
                          M           if ((SEROUT) < ($ - 3ffh))
MPASM 5.81                   PICKBYLIGHT.ASM   1-20-2021  23:46:00         PAGE 251


LOC  OBJECT CODE     LINE SOURCE TEXT
  VALUE

000C18 EC4B F000          M         call    SEROUT
                          M           else
                          M         rcall   SEROUT
                          M           endif
                          M         endif
                          M       endif
                          M     endif
                      02225         SEROUT?C        063h
000C1C 0E63               M         movlw   063h
                          M         L?CALL  SEROUT
                          M         RST?RP
                          M     if (PREV_ALT != 0)
                          M         bcf     WDTCON, ADSHR
                          M PREV_ALT = 0
                          M     endif
                          M     if (PREV_BANK != 0)
                          M         movlb   0
                          M PREV_BANK = 0
                          M     endif
                          M 
                          M     ifdef USE_LINKER
                          M         call    SEROUT
                          M     else
                          M       if ((SEROUT) < 1)
                          M         call    SEROUT
                          M       else
                          M         if ((SEROUT) > $)
                          M         call    SEROUT
                          M         else
                          M           if ((SEROUT) < ($ - 3ffh))
000C1E EC4B F000          M         call    SEROUT
                          M           else
                          M         rcall   SEROUT
                          M           endif
                          M         endif
                          M       endif
                          M     endif
                      02226         SEROUT?C        065h
000C22 0E65               M         movlw   065h
                          M         L?CALL  SEROUT
                          M         RST?RP
                          M     if (PREV_ALT != 0)
                          M         bcf     WDTCON, ADSHR
                          M PREV_ALT = 0
                          M     endif
                          M     if (PREV_BANK != 0)
                          M         movlb   0
                          M PREV_BANK = 0
                          M     endif
                          M 
                          M     ifdef USE_LINKER
                          M         call    SEROUT
                          M     else
MPASM 5.81                   PICKBYLIGHT.ASM   1-20-2021  23:46:00         PAGE 252


LOC  OBJECT CODE     LINE SOURCE TEXT
  VALUE

                          M       if ((SEROUT) < 1)
                          M         call    SEROUT
                          M       else
                          M         if ((SEROUT) > $)
                          M         call    SEROUT
                          M         else
                          M           if ((SEROUT) < ($ - 3ffh))
000C24 EC4B F000          M         call    SEROUT
                          M           else
                          M         rcall   SEROUT
                          M           endif
                          M         endif
                          M       endif
                          M     endif
                      02227         SEROUT?C        020h
000C28 0E20               M         movlw   020h
                          M         L?CALL  SEROUT
                          M         RST?RP
                          M     if (PREV_ALT != 0)
                          M         bcf     WDTCON, ADSHR
                          M PREV_ALT = 0
                          M     endif
                          M     if (PREV_BANK != 0)
                          M         movlb   0
                          M PREV_BANK = 0
                          M     endif
                          M 
                          M     ifdef USE_LINKER
                          M         call    SEROUT
                          M     else
                          M       if ((SEROUT) < 1)
                          M         call    SEROUT
                          M       else
                          M         if ((SEROUT) > $)
                          M         call    SEROUT
                          M         else
                          M           if ((SEROUT) < ($ - 3ffh))
000C2A EC4B F000          M         call    SEROUT
                          M           else
                          M         rcall   SEROUT
                          M           endif
                          M         endif
                          M       endif
                          M     endif
                      02228         SEROUT?C        053h
000C2E 0E53               M         movlw   053h
                          M         L?CALL  SEROUT
                          M         RST?RP
                          M     if (PREV_ALT != 0)
                          M         bcf     WDTCON, ADSHR
                          M PREV_ALT = 0
                          M     endif
                          M     if (PREV_BANK != 0)
MPASM 5.81                   PICKBYLIGHT.ASM   1-20-2021  23:46:00         PAGE 253


LOC  OBJECT CODE     LINE SOURCE TEXT
  VALUE

                          M         movlb   0
                          M PREV_BANK = 0
                          M     endif
                          M 
                          M     ifdef USE_LINKER
                          M         call    SEROUT
                          M     else
                          M       if ((SEROUT) < 1)
                          M         call    SEROUT
                          M       else
                          M         if ((SEROUT) > $)
                          M         call    SEROUT
                          M         else
                          M           if ((SEROUT) < ($ - 3ffh))
000C30 EC4B F000          M         call    SEROUT
                          M           else
                          M         rcall   SEROUT
                          M           endif
                          M         endif
                          M       endif
                          M     endif
                      02229         SEROUT?C        04Eh
000C34 0E4E               M         movlw   04Eh
                          M         L?CALL  SEROUT
                          M         RST?RP
                          M     if (PREV_ALT != 0)
                          M         bcf     WDTCON, ADSHR
                          M PREV_ALT = 0
                          M     endif
                          M     if (PREV_BANK != 0)
                          M         movlb   0
                          M PREV_BANK = 0
                          M     endif
                          M 
                          M     ifdef USE_LINKER
                          M         call    SEROUT
                          M     else
                          M       if ((SEROUT) < 1)
                          M         call    SEROUT
                          M       else
                          M         if ((SEROUT) > $)
                          M         call    SEROUT
                          M         else
                          M           if ((SEROUT) < ($ - 3ffh))
000C36 EC4B F000          M         call    SEROUT
                          M           else
                          M         rcall   SEROUT
                          M           endif
                          M         endif
                          M       endif
                          M     endif
                      02230         SEROUT?C        03Ah
000C3A 0E3A               M         movlw   03Ah
MPASM 5.81                   PICKBYLIGHT.ASM   1-20-2021  23:46:00         PAGE 254


LOC  OBJECT CODE     LINE SOURCE TEXT
  VALUE

                          M         L?CALL  SEROUT
                          M         RST?RP
                          M     if (PREV_ALT != 0)
                          M         bcf     WDTCON, ADSHR
                          M PREV_ALT = 0
                          M     endif
                          M     if (PREV_BANK != 0)
                          M         movlb   0
                          M PREV_BANK = 0
                          M     endif
                          M 
                          M     ifdef USE_LINKER
                          M         call    SEROUT
                          M     else
                          M       if ((SEROUT) < 1)
                          M         call    SEROUT
                          M       else
                          M         if ((SEROUT) > $)
                          M         call    SEROUT
                          M         else
                          M           if ((SEROUT) < ($ - 3ffh))
000C3C EC4B F000          M         call    SEROUT
                          M           else
                          M         rcall   SEROUT
                          M           endif
                          M         endif
                          M       endif
                          M     endif
                      02231         SEROUT?C        034h
000C40 0E34               M         movlw   034h
                          M         L?CALL  SEROUT
                          M         RST?RP
                          M     if (PREV_ALT != 0)
                          M         bcf     WDTCON, ADSHR
                          M PREV_ALT = 0
                          M     endif
                          M     if (PREV_BANK != 0)
                          M         movlb   0
                          M PREV_BANK = 0
                          M     endif
                          M 
                          M     ifdef USE_LINKER
                          M         call    SEROUT
                          M     else
                          M       if ((SEROUT) < 1)
                          M         call    SEROUT
                          M       else
                          M         if ((SEROUT) > $)
                          M         call    SEROUT
                          M         else
                          M           if ((SEROUT) < ($ - 3ffh))
000C42 EC4B F000          M         call    SEROUT
                          M           else
MPASM 5.81                   PICKBYLIGHT.ASM   1-20-2021  23:46:00         PAGE 255


LOC  OBJECT CODE     LINE SOURCE TEXT
  VALUE

                          M         rcall   SEROUT
                          M           endif
                          M         endif
                          M       endif
                          M     endif
                      02232         SEROUT?C        034h
000C46 0E34               M         movlw   034h
                          M         L?CALL  SEROUT
                          M         RST?RP
                          M     if (PREV_ALT != 0)
                          M         bcf     WDTCON, ADSHR
                          M PREV_ALT = 0
                          M     endif
                          M     if (PREV_BANK != 0)
                          M         movlb   0
                          M PREV_BANK = 0
                          M     endif
                          M 
                          M     ifdef USE_LINKER
                          M         call    SEROUT
                          M     else
                          M       if ((SEROUT) < 1)
                          M         call    SEROUT
                          M       else
                          M         if ((SEROUT) > $)
                          M         call    SEROUT
                          M         else
                          M           if ((SEROUT) < ($ - 3ffh))
000C48 EC4B F000          M         call    SEROUT
                          M           else
                          M         rcall   SEROUT
                          M           endif
                          M         endif
                          M       endif
                          M     endif
                      02233         SEROUT?C        035h
000C4C 0E35               M         movlw   035h
                          M         L?CALL  SEROUT
                          M         RST?RP
                          M     if (PREV_ALT != 0)
                          M         bcf     WDTCON, ADSHR
                          M PREV_ALT = 0
                          M     endif
                          M     if (PREV_BANK != 0)
                          M         movlb   0
                          M PREV_BANK = 0
                          M     endif
                          M 
                          M     ifdef USE_LINKER
                          M         call    SEROUT
                          M     else
                          M       if ((SEROUT) < 1)
                          M         call    SEROUT
MPASM 5.81                   PICKBYLIGHT.ASM   1-20-2021  23:46:00         PAGE 256


LOC  OBJECT CODE     LINE SOURCE TEXT
  VALUE

                          M       else
                          M         if ((SEROUT) > $)
                          M         call    SEROUT
                          M         else
                          M           if ((SEROUT) < ($ - 3ffh))
000C4E EC4B F000          M         call    SEROUT
                          M           else
                          M         rcall   SEROUT
                          M           endif
                          M         endif
                          M       endif
                          M     endif
                      02234         SEROUT?C        035h
000C52 0E35               M         movlw   035h
                          M         L?CALL  SEROUT
                          M         RST?RP
                          M     if (PREV_ALT != 0)
                          M         bcf     WDTCON, ADSHR
                          M PREV_ALT = 0
                          M     endif
                          M     if (PREV_BANK != 0)
                          M         movlb   0
                          M PREV_BANK = 0
                          M     endif
                          M 
                          M     ifdef USE_LINKER
                          M         call    SEROUT
                          M     else
                          M       if ((SEROUT) < 1)
                          M         call    SEROUT
                          M       else
                          M         if ((SEROUT) > $)
                          M         call    SEROUT
                          M         else
                          M           if ((SEROUT) < ($ - 3ffh))
000C54 EC4B F000          M         call    SEROUT
                          M           else
                          M         rcall   SEROUT
                          M           endif
                          M         endif
                          M       endif
                          M     endif
                      02235         SEROUT?C        00Dh
000C58 0E0D               M         movlw   00Dh
                          M         L?CALL  SEROUT
                          M         RST?RP
                          M     if (PREV_ALT != 0)
                          M         bcf     WDTCON, ADSHR
                          M PREV_ALT = 0
                          M     endif
                          M     if (PREV_BANK != 0)
                          M         movlb   0
                          M PREV_BANK = 0
MPASM 5.81                   PICKBYLIGHT.ASM   1-20-2021  23:46:00         PAGE 257


LOC  OBJECT CODE     LINE SOURCE TEXT
  VALUE

                          M     endif
                          M 
                          M     ifdef USE_LINKER
                          M         call    SEROUT
                          M     else
                          M       if ((SEROUT) < 1)
                          M         call    SEROUT
                          M       else
                          M         if ((SEROUT) > $)
                          M         call    SEROUT
                          M         else
                          M           if ((SEROUT) < ($ - 3ffh))
000C5A EC4B F000          M         call    SEROUT
                          M           else
                          M         rcall   SEROUT
                          M           endif
                          M         endif
                          M       endif
                          M     endif
                      02236         SEROUT?C        00Ah
000C5E 0E0A               M         movlw   00Ah
                          M         L?CALL  SEROUT
                          M         RST?RP
                          M     if (PREV_ALT != 0)
                          M         bcf     WDTCON, ADSHR
                          M PREV_ALT = 0
                          M     endif
                          M     if (PREV_BANK != 0)
                          M         movlb   0
                          M PREV_BANK = 0
                          M     endif
                          M 
                          M     ifdef USE_LINKER
                          M         call    SEROUT
                          M     else
                          M       if ((SEROUT) < 1)
                          M         call    SEROUT
                          M       else
                          M         if ((SEROUT) > $)
                          M         call    SEROUT
                          M         else
                          M           if ((SEROUT) < ($ - 3ffh))
000C60 EC4B F000          M         call    SEROUT
                          M           else
                          M         rcall   SEROUT
                          M           endif
                          M         endif
                          M       endif
                          M     endif
                      02237 
                      02238 ; C:\USERS\DMILOSAVLJEVIC\DOCUMENTS\PROJECT\TECOMATIC\PICKBYLIGHT\PICKBYLIGHT.PBP       00141   return
                      02239         RETURN? 
                          M     ifdef DEBUG_STACK
MPASM 5.81                   PICKBYLIGHT.ASM   1-20-2021  23:46:00         PAGE 258


LOC  OBJECT CODE     LINE SOURCE TEXT
  VALUE

                          M         CHK?RP  DEBUG_STACK
                          M         decf    DEBUG_STACK, F
                          M     endif
                          M         RST?RP
                          M     if (PREV_ALT != 0)
                          M         bcf     WDTCON, ADSHR
                          M PREV_ALT = 0
                          M     endif
                          M     if (PREV_BANK != 0)
                          M         movlb   0
                          M PREV_BANK = 0
                          M     endif
000C64 0012               M         return
                      02240 
                      02241 ; C:\USERS\DMILOSAVLJEVIC\DOCUMENTS\PROJECT\TECOMATIC\PICKBYLIGHT\PICKBYLIGHT.PBP       00143   ReadInpu
                            ts: 
                      02242 
                      02243         LABEL?L _ReadInputs     
                          M         RST?RP
                          M     if (PREV_ALT != 0)
                          M         bcf     WDTCON, ADSHR
                          M PREV_ALT = 0
                          M     endif
                          M     if (PREV_BANK != 0)
                          M         movlb   0
                          M PREV_BANK = 0
                          M     endif
                          M     ifdef PM_USED
                          M         LALL
                          M _ReadInputs
                          M         XALL
                          M     else
000C66                    M _ReadInputs
                          M     endif
                      02244 
                      02245 ; C:\USERS\DMILOSAVLJEVIC\DOCUMENTS\PROJECT\TECOMATIC\PICKBYLIGHT\PICKBYLIGHT.PBP       00144       NewS
                            tateA1 =  _inputA1
                      02246         MOVE?TT __inputA1, _NewStateA1
                          M     if (((PORTA) <= BANKA_END) | ((PORTA) >= (0f01h + BANKA_END)))
                          M         CHK?RP  PB01
                          M     if (((PB01)  & 8000h) != PREV_ALT)
                          M       if ((PB01)  & 8000h)
                          M         bsf     WDTCON, ADSHR
                          M       else
                          M         bcf     WDTCON, ADSHR
                          M       endif
                          M PREV_ALT = (PB01)  & 8000h
                          M     endif
                          M     if ((((PB01)  & 0fffh) > BANKA_END) & (((PB01)  & 0fffh) < (0f01h + BANKA_END)))
                          M       if (((PB01)  & 0f00h) != (PREV_BANK << 8))
                          M         movlb   high (PB01)
                          M PREV_BANK = high (PB01)
                          M       endif
MPASM 5.81                   PICKBYLIGHT.ASM   1-20-2021  23:46:00         PAGE 259


LOC  OBJECT CODE     LINE SOURCE TEXT
  VALUE

                          M     endif
000C66 B080               M         btfsc   PORTA, 000h
000C68 882A               M         bsf     PB01,   004h
000C6A A080               M         btfss   PORTA, 000h
000C6C 982A               M         bcf     PB01,   004h
                          M     else
                          M       if (((PORTA) & 0f00h) == ((PB01)   & 0f00h))
                          M         CHK?RP  PORTA
                          M         btfsc   PORTA, 000h
                          M         bsf     PB01,   004h
                          M         btfss   PORTA, 000h
                          M         bcf     PB01,   004h
                          M       else
                          M           if (((PB01)   <= BANKA_END) | ((PB01)   >= (0f01h + BANKA_END)))
                          M         CHK?RP  PORTA
                          M         btfsc   PORTA, 000h
                          M         bsf     PB01,   004h
                          M         btfss   PORTA, 000h
                          M         bcf     PB01,   004h
                          M           else
                          M         MOVE?TA PORTA, 000h
                          M         MOVE?AT PB01,   004h
                          M           endif
                          M       endif
                          M     endif
                      02247 
                      02248 ; C:\USERS\DMILOSAVLJEVIC\DOCUMENTS\PROJECT\TECOMATIC\PICKBYLIGHT\PICKBYLIGHT.PBP       00145       NewS
                            tateA2 =  _inputA2
                      02249         MOVE?TT __inputA2, _NewStateA2
                          M     if (((PORTA) <= BANKA_END) | ((PORTA) >= (0f01h + BANKA_END)))
                          M         CHK?RP  PB01
                          M     if (((PB01)  & 8000h) != PREV_ALT)
                          M       if ((PB01)  & 8000h)
                          M         bsf     WDTCON, ADSHR
                          M       else
                          M         bcf     WDTCON, ADSHR
                          M       endif
                          M PREV_ALT = (PB01)  & 8000h
                          M     endif
                          M     if ((((PB01)  & 0fffh) > BANKA_END) & (((PB01)  & 0fffh) < (0f01h + BANKA_END)))
                          M       if (((PB01)  & 0f00h) != (PREV_BANK << 8))
                          M         movlb   high (PB01)
                          M PREV_BANK = high (PB01)
                          M       endif
                          M     endif
000C6E B280               M         btfsc   PORTA, 001h
000C70 8A2A               M         bsf     PB01,   005h
000C72 A280               M         btfss   PORTA, 001h
000C74 9A2A               M         bcf     PB01,   005h
                          M     else
                          M       if (((PORTA) & 0f00h) == ((PB01)   & 0f00h))
                          M         CHK?RP  PORTA
                          M         btfsc   PORTA, 001h
MPASM 5.81                   PICKBYLIGHT.ASM   1-20-2021  23:46:00         PAGE 260


LOC  OBJECT CODE     LINE SOURCE TEXT
  VALUE

                          M         bsf     PB01,   005h
                          M         btfss   PORTA, 001h
                          M         bcf     PB01,   005h
                          M       else
                          M           if (((PB01)   <= BANKA_END) | ((PB01)   >= (0f01h + BANKA_END)))
                          M         CHK?RP  PORTA
                          M         btfsc   PORTA, 001h
                          M         bsf     PB01,   005h
                          M         btfss   PORTA, 001h
                          M         bcf     PB01,   005h
                          M           else
                          M         MOVE?TA PORTA, 001h
                          M         MOVE?AT PB01,   005h
                          M           endif
                          M       endif
                          M     endif
                      02250 
                      02251 ; C:\USERS\DMILOSAVLJEVIC\DOCUMENTS\PROJECT\TECOMATIC\PICKBYLIGHT\PICKBYLIGHT.PBP       00146       NewS
                            tateA3 =  _inputA3
                      02252         MOVE?TT __inputA3, _NewStateA3
                          M     if (((PORTA) <= BANKA_END) | ((PORTA) >= (0f01h + BANKA_END)))
                          M         CHK?RP  PB01
                          M     if (((PB01)  & 8000h) != PREV_ALT)
                          M       if ((PB01)  & 8000h)
                          M         bsf     WDTCON, ADSHR
                          M       else
                          M         bcf     WDTCON, ADSHR
                          M       endif
                          M PREV_ALT = (PB01)  & 8000h
                          M     endif
                          M     if ((((PB01)  & 0fffh) > BANKA_END) & (((PB01)  & 0fffh) < (0f01h + BANKA_END)))
                          M       if (((PB01)  & 0f00h) != (PREV_BANK << 8))
                          M         movlb   high (PB01)
                          M PREV_BANK = high (PB01)
                          M       endif
                          M     endif
000C76 B480               M         btfsc   PORTA, 002h
000C78 8C2A               M         bsf     PB01,   006h
000C7A A480               M         btfss   PORTA, 002h
000C7C 9C2A               M         bcf     PB01,   006h
                          M     else
                          M       if (((PORTA) & 0f00h) == ((PB01)   & 0f00h))
                          M         CHK?RP  PORTA
                          M         btfsc   PORTA, 002h
                          M         bsf     PB01,   006h
                          M         btfss   PORTA, 002h
                          M         bcf     PB01,   006h
                          M       else
                          M           if (((PB01)   <= BANKA_END) | ((PB01)   >= (0f01h + BANKA_END)))
                          M         CHK?RP  PORTA
                          M         btfsc   PORTA, 002h
                          M         bsf     PB01,   006h
                          M         btfss   PORTA, 002h
MPASM 5.81                   PICKBYLIGHT.ASM   1-20-2021  23:46:00         PAGE 261


LOC  OBJECT CODE     LINE SOURCE TEXT
  VALUE

                          M         bcf     PB01,   006h
                          M           else
                          M         MOVE?TA PORTA, 002h
                          M         MOVE?AT PB01,   006h
                          M           endif
                          M       endif
                          M     endif
                      02253 
                      02254 ; C:\USERS\DMILOSAVLJEVIC\DOCUMENTS\PROJECT\TECOMATIC\PICKBYLIGHT\PICKBYLIGHT.PBP       00147       NewS
                            tateA4 =  _inputA4
                      02255         MOVE?TT __inputA4, _NewStateA4
                          M     if (((PORTA) <= BANKA_END) | ((PORTA) >= (0f01h + BANKA_END)))
                          M         CHK?RP  PB01
                          M     if (((PB01)  & 8000h) != PREV_ALT)
                          M       if ((PB01)  & 8000h)
                          M         bsf     WDTCON, ADSHR
                          M       else
                          M         bcf     WDTCON, ADSHR
                          M       endif
                          M PREV_ALT = (PB01)  & 8000h
                          M     endif
                          M     if ((((PB01)  & 0fffh) > BANKA_END) & (((PB01)  & 0fffh) < (0f01h + BANKA_END)))
                          M       if (((PB01)  & 0f00h) != (PREV_BANK << 8))
                          M         movlb   high (PB01)
                          M PREV_BANK = high (PB01)
                          M       endif
                          M     endif
000C7E B680               M         btfsc   PORTA, 003h
000C80 8E2A               M         bsf     PB01,   007h
000C82 A680               M         btfss   PORTA, 003h
000C84 9E2A               M         bcf     PB01,   007h
                          M     else
                          M       if (((PORTA) & 0f00h) == ((PB01)   & 0f00h))
                          M         CHK?RP  PORTA
                          M         btfsc   PORTA, 003h
                          M         bsf     PB01,   007h
                          M         btfss   PORTA, 003h
                          M         bcf     PB01,   007h
                          M       else
                          M           if (((PB01)   <= BANKA_END) | ((PB01)   >= (0f01h + BANKA_END)))
                          M         CHK?RP  PORTA
                          M         btfsc   PORTA, 003h
                          M         bsf     PB01,   007h
                          M         btfss   PORTA, 003h
                          M         bcf     PB01,   007h
                          M           else
                          M         MOVE?TA PORTA, 003h
                          M         MOVE?AT PB01,   007h
                          M           endif
                          M       endif
                          M     endif
                      02256 
                      02257 ; C:\USERS\DMILOSAVLJEVIC\DOCUMENTS\PROJECT\TECOMATIC\PICKBYLIGHT\PICKBYLIGHT.PBP       00148       if N
MPASM 5.81                   PICKBYLIGHT.ASM   1-20-2021  23:46:00         PAGE 262


LOC  OBJECT CODE     LINE SOURCE TEXT
  VALUE

                            ewStateA1 < OldStateA1 then 
                      02258         CMPGE?TTL       _NewStateA1, _OldStateA1, L00008
                          M         CLRWDT?
                          M     ifndef NO_CLRWDT
000C86 0004               M         clrwdt
                          M     endif
                          M         BIT?GOTO 1, PB01,   004h,   L00008
                          M     ifdef USE_LINKER
                          M         CLRWDT?
                          M     else
                          M       if ($ == (L00008))
                          M         CLRWDT?
                          M       endif
                          M     endif
                          M 
                          M     if (((PB01)  > BANKA_END) & ((PB01)  < (0f01h + BANKA_END)))
                          M         bcf     STATUS, OV
                          M         CHK?RP  PB01
                          M       if ((1)      == 0)
                          M         btfss   PB01,  004h
                          M       else
                          M         btfsc   PB01,  004h
                          M       endif
                          M         bsf     STATUS, OV
                          M         RST?RP
                          M       ifdef USE_LINKER
                          M         btfsc   STATUS, OV
                          M         goto    L00008
                          M       else
                          M         if ((L00008) < 1)
                          M         btfsc   STATUS, OV
                          M         goto    L00008
                          M         else
                          M           if ((L00008) > $)
                          M         btfsc   STATUS, OV
                          M         goto    L00008
                          M           else
                          M             if ((L00008) < ($ - 7fh))
                          M         btfsc   STATUS, OV
                          M         goto    L00008
                          M             else
                          M         bov     L00008
                          M             endif
                          M           endif
                          M         endif
                          M       endif
                          M     else
                          M         RST?RP
                          M     if (PREV_ALT != 0)
                          M         bcf     WDTCON, ADSHR
                          M PREV_ALT = 0
                          M     endif
                          M     if (PREV_BANK != 0)
MPASM 5.81                   PICKBYLIGHT.ASM   1-20-2021  23:46:00         PAGE 263


LOC  OBJECT CODE     LINE SOURCE TEXT
  VALUE

                          M         movlb   0
                          M PREV_BANK = 0
                          M     endif
                          M       if ((1)      == 0)
                          M         btfss   PB01,  004h
                          M       else
000C88 B82A               M         btfsc   PB01,  004h
                          M       endif
                          M       ifdef USE_LINKER
                          M         goto    L00008
                          M       else
                          M         if ((L00008) < 1)
                          M         goto    L00008
                          M         else
                          M           if ((L00008) > $)
000C8A EF4D F006          M         goto    L00008
                          M           else
                          M             if ((L00008) < ($ - 3ffh))
                          M         goto    L00008
                          M             else
                          M         bra     L00008
                          M             endif
                          M           endif
                          M         endif
                          M       endif
                          M     endif
                          M         BIT?GOTO 0, PB02,   000h,   L00008
                          M     ifdef USE_LINKER
                          M         CLRWDT?
                          M     else
                          M       if ($ == (L00008))
                          M         CLRWDT?
                          M       endif
                          M     endif
                          M 
                          M     if (((PB02)  > BANKA_END) & ((PB02)  < (0f01h + BANKA_END)))
                          M         bcf     STATUS, OV
                          M         CHK?RP  PB02
                          M       if ((0)      == 0)
                          M         btfss   PB02,  000h
                          M       else
                          M         btfsc   PB02,  000h
                          M       endif
                          M         bsf     STATUS, OV
                          M         RST?RP
                          M       ifdef USE_LINKER
                          M         btfsc   STATUS, OV
                          M         goto    L00008
                          M       else
                          M         if ((L00008) < 1)
                          M         btfsc   STATUS, OV
                          M         goto    L00008
                          M         else
MPASM 5.81                   PICKBYLIGHT.ASM   1-20-2021  23:46:00         PAGE 264


LOC  OBJECT CODE     LINE SOURCE TEXT
  VALUE

                          M           if ((L00008) > $)
                          M         btfsc   STATUS, OV
                          M         goto    L00008
                          M           else
                          M             if ((L00008) < ($ - 7fh))
                          M         btfsc   STATUS, OV
                          M         goto    L00008
                          M             else
                          M         bov     L00008
                          M             endif
                          M           endif
                          M         endif
                          M       endif
                          M     else
                          M         RST?RP
                          M     if (PREV_ALT != 0)
                          M         bcf     WDTCON, ADSHR
                          M PREV_ALT = 0
                          M     endif
                          M     if (PREV_BANK != 0)
                          M         movlb   0
                          M PREV_BANK = 0
                          M     endif
                          M       if ((0)      == 0)
000C8E A02B               M         btfss   PB02,  000h
                          M       else
                          M         btfsc   PB02,  000h
                          M       endif
                          M       ifdef USE_LINKER
                          M         goto    L00008
                          M       else
                          M         if ((L00008) < 1)
                          M         goto    L00008
                          M         else
                          M           if ((L00008) > $)
000C90 EF4D F006          M         goto    L00008
                          M           else
                          M             if ((L00008) < ($ - 3ffh))
                          M         goto    L00008
                          M             else
                          M         bra     L00008
                          M             endif
                          M           endif
                          M         endif
                          M       endif
                          M     endif
                      02259 
                      02260 ; C:\USERS\DMILOSAVLJEVIC\DOCUMENTS\PROJECT\TECOMATIC\PICKBYLIGHT\PICKBYLIGHT.PBP       00149           
                            InputA1 = 1 
                      02261         MOVE?CT 001h, _InputA1
                          M         CHK?RP  PB01
                          M     if (((PB01)  & 8000h) != PREV_ALT)
                          M       if ((PB01)  & 8000h)
MPASM 5.81                   PICKBYLIGHT.ASM   1-20-2021  23:46:00         PAGE 265


LOC  OBJECT CODE     LINE SOURCE TEXT
  VALUE

                          M         bsf     WDTCON, ADSHR
                          M       else
                          M         bcf     WDTCON, ADSHR
                          M       endif
                          M PREV_ALT = (PB01)  & 8000h
                          M     endif
                          M     if ((((PB01)  & 0fffh) > BANKA_END) & (((PB01)  & 0fffh) < (0f01h + BANKA_END)))
                          M       if (((PB01)  & 0f00h) != (PREV_BANK << 8))
                          M         movlb   high (PB01)
                          M PREV_BANK = high (PB01)
                          M       endif
                          M     endif
                          M     if (((001h) & 1) == 1)
000C94 802A               M         bsf     PB01,   000h
                          M     else
                          M         bcf     PB01,   000h
                          M     endif
                      02262 
                      02263 ; C:\USERS\DMILOSAVLJEVIC\DOCUMENTS\PROJECT\TECOMATIC\PICKBYLIGHT\PICKBYLIGHT.PBP       00150       else
                      02264         GOTO?L  L00009
                          M         L?GOTO  L00009
                          M     ifdef USE_LINKER
                          M         CLRWDT?
                          M     else
                          M       if ($ == (L00009))
                          M         CLRWDT?
                          M       endif
                          M     endif
                          M 
                          M         RST?RP
                          M     if (PREV_ALT != 0)
                          M         bcf     WDTCON, ADSHR
                          M PREV_ALT = 0
                          M     endif
                          M     if (PREV_BANK != 0)
                          M         movlb   0
                          M PREV_BANK = 0
                          M     endif
                          M 
                          M     ifdef USE_LINKER
                          M         goto    L00009
                          M     else
                          M       if ((L00009) < 1)
                          M         goto    L00009
                          M       else
                          M         if ((L00009) > $)
000C96 EF4E F006          M         goto    L00009
                          M         else
                          M           if ((L00009) < ($ - 3ffh))
                          M         goto    L00009
                          M           else
                          M         bra     L00009
                          M           endif
MPASM 5.81                   PICKBYLIGHT.ASM   1-20-2021  23:46:00         PAGE 266


LOC  OBJECT CODE     LINE SOURCE TEXT
  VALUE

                          M         endif
                          M       endif
                          M     endif
                      02265         LABEL?L L00008  
                          M         RST?RP
                          M     if (PREV_ALT != 0)
                          M         bcf     WDTCON, ADSHR
                          M PREV_ALT = 0
                          M     endif
                          M     if (PREV_BANK != 0)
                          M         movlb   0
                          M PREV_BANK = 0
                          M     endif
                          M     ifdef PM_USED
                          M         LALL
                          M L00008
                          M         XALL
                          M     else
000C9A                    M L00008
                          M     endif
                      02266 
                      02267 ; C:\USERS\DMILOSAVLJEVIC\DOCUMENTS\PROJECT\TECOMATIC\PICKBYLIGHT\PICKBYLIGHT.PBP       00151           
                            InputA1 = 0 
                      02268         MOVE?CT 000h, _InputA1
                          M         CHK?RP  PB01
                          M     if (((PB01)  & 8000h) != PREV_ALT)
                          M       if ((PB01)  & 8000h)
                          M         bsf     WDTCON, ADSHR
                          M       else
                          M         bcf     WDTCON, ADSHR
                          M       endif
                          M PREV_ALT = (PB01)  & 8000h
                          M     endif
                          M     if ((((PB01)  & 0fffh) > BANKA_END) & (((PB01)  & 0fffh) < (0f01h + BANKA_END)))
                          M       if (((PB01)  & 0f00h) != (PREV_BANK << 8))
                          M         movlb   high (PB01)
                          M PREV_BANK = high (PB01)
                          M       endif
                          M     endif
                          M     if (((000h) & 1) == 1)
                          M         bsf     PB01,   000h
                          M     else
000C9A 902A               M         bcf     PB01,   000h
                          M     endif
                      02269 
                      02270 ; C:\USERS\DMILOSAVLJEVIC\DOCUMENTS\PROJECT\TECOMATIC\PICKBYLIGHT\PICKBYLIGHT.PBP       00152       ENDI
                            F   
                      02271         LABEL?L L00009  
                          M         RST?RP
                          M     if (PREV_ALT != 0)
                          M         bcf     WDTCON, ADSHR
                          M PREV_ALT = 0
                          M     endif
MPASM 5.81                   PICKBYLIGHT.ASM   1-20-2021  23:46:00         PAGE 267


LOC  OBJECT CODE     LINE SOURCE TEXT
  VALUE

                          M     if (PREV_BANK != 0)
                          M         movlb   0
                          M PREV_BANK = 0
                          M     endif
                          M     ifdef PM_USED
                          M         LALL
                          M L00009
                          M         XALL
                          M     else
000C9C                    M L00009
                          M     endif
                      02272 
                      02273 ; C:\USERS\DMILOSAVLJEVIC\DOCUMENTS\PROJECT\TECOMATIC\PICKBYLIGHT\PICKBYLIGHT.PBP       00153       if N
                            ewStateA2 < OldStateA2 then 
                      02274         CMPGE?TTL       _NewStateA2, _OldStateA2, L00010
                          M         CLRWDT?
                          M     ifndef NO_CLRWDT
000C9C 0004               M         clrwdt
                          M     endif
                          M         BIT?GOTO 1, PB01,   005h,   L00010
                          M     ifdef USE_LINKER
                          M         CLRWDT?
                          M     else
                          M       if ($ == (L00010))
                          M         CLRWDT?
                          M       endif
                          M     endif
                          M 
                          M     if (((PB01)  > BANKA_END) & ((PB01)  < (0f01h + BANKA_END)))
                          M         bcf     STATUS, OV
                          M         CHK?RP  PB01
                          M       if ((1)      == 0)
                          M         btfss   PB01,  005h
                          M       else
                          M         btfsc   PB01,  005h
                          M       endif
                          M         bsf     STATUS, OV
                          M         RST?RP
                          M       ifdef USE_LINKER
                          M         btfsc   STATUS, OV
                          M         goto    L00010
                          M       else
                          M         if ((L00010) < 1)
                          M         btfsc   STATUS, OV
                          M         goto    L00010
                          M         else
                          M           if ((L00010) > $)
                          M         btfsc   STATUS, OV
                          M         goto    L00010
                          M           else
                          M             if ((L00010) < ($ - 7fh))
                          M         btfsc   STATUS, OV
                          M         goto    L00010
MPASM 5.81                   PICKBYLIGHT.ASM   1-20-2021  23:46:00         PAGE 268


LOC  OBJECT CODE     LINE SOURCE TEXT
  VALUE

                          M             else
                          M         bov     L00010
                          M             endif
                          M           endif
                          M         endif
                          M       endif
                          M     else
                          M         RST?RP
                          M     if (PREV_ALT != 0)
                          M         bcf     WDTCON, ADSHR
                          M PREV_ALT = 0
                          M     endif
                          M     if (PREV_BANK != 0)
                          M         movlb   0
                          M PREV_BANK = 0
                          M     endif
                          M       if ((1)      == 0)
                          M         btfss   PB01,  005h
                          M       else
000C9E BA2A               M         btfsc   PB01,  005h
                          M       endif
                          M       ifdef USE_LINKER
                          M         goto    L00010
                          M       else
                          M         if ((L00010) < 1)
                          M         goto    L00010
                          M         else
                          M           if ((L00010) > $)
000CA0 EF58 F006          M         goto    L00010
                          M           else
                          M             if ((L00010) < ($ - 3ffh))
                          M         goto    L00010
                          M             else
                          M         bra     L00010
                          M             endif
                          M           endif
                          M         endif
                          M       endif
                          M     endif
                          M         BIT?GOTO 0, PB02,   001h,   L00010
                          M     ifdef USE_LINKER
                          M         CLRWDT?
                          M     else
                          M       if ($ == (L00010))
                          M         CLRWDT?
                          M       endif
                          M     endif
                          M 
                          M     if (((PB02)  > BANKA_END) & ((PB02)  < (0f01h + BANKA_END)))
                          M         bcf     STATUS, OV
                          M         CHK?RP  PB02
                          M       if ((0)      == 0)
                          M         btfss   PB02,  001h
MPASM 5.81                   PICKBYLIGHT.ASM   1-20-2021  23:46:00         PAGE 269


LOC  OBJECT CODE     LINE SOURCE TEXT
  VALUE

                          M       else
                          M         btfsc   PB02,  001h
                          M       endif
                          M         bsf     STATUS, OV
                          M         RST?RP
                          M       ifdef USE_LINKER
                          M         btfsc   STATUS, OV
                          M         goto    L00010
                          M       else
                          M         if ((L00010) < 1)
                          M         btfsc   STATUS, OV
                          M         goto    L00010
                          M         else
                          M           if ((L00010) > $)
                          M         btfsc   STATUS, OV
                          M         goto    L00010
                          M           else
                          M             if ((L00010) < ($ - 7fh))
                          M         btfsc   STATUS, OV
                          M         goto    L00010
                          M             else
                          M         bov     L00010
                          M             endif
                          M           endif
                          M         endif
                          M       endif
                          M     else
                          M         RST?RP
                          M     if (PREV_ALT != 0)
                          M         bcf     WDTCON, ADSHR
                          M PREV_ALT = 0
                          M     endif
                          M     if (PREV_BANK != 0)
                          M         movlb   0
                          M PREV_BANK = 0
                          M     endif
                          M       if ((0)      == 0)
000CA4 A22B               M         btfss   PB02,  001h
                          M       else
                          M         btfsc   PB02,  001h
                          M       endif
                          M       ifdef USE_LINKER
                          M         goto    L00010
                          M       else
                          M         if ((L00010) < 1)
                          M         goto    L00010
                          M         else
                          M           if ((L00010) > $)
000CA6 EF58 F006          M         goto    L00010
                          M           else
                          M             if ((L00010) < ($ - 3ffh))
                          M         goto    L00010
                          M             else
MPASM 5.81                   PICKBYLIGHT.ASM   1-20-2021  23:46:00         PAGE 270


LOC  OBJECT CODE     LINE SOURCE TEXT
  VALUE

                          M         bra     L00010
                          M             endif
                          M           endif
                          M         endif
                          M       endif
                          M     endif
                      02275 
                      02276 ; C:\USERS\DMILOSAVLJEVIC\DOCUMENTS\PROJECT\TECOMATIC\PICKBYLIGHT\PICKBYLIGHT.PBP       00154           
                            InputA2 = 1
                      02277         MOVE?CT 001h, _InputA2
                          M         CHK?RP  PB01
                          M     if (((PB01)  & 8000h) != PREV_ALT)
                          M       if ((PB01)  & 8000h)
                          M         bsf     WDTCON, ADSHR
                          M       else
                          M         bcf     WDTCON, ADSHR
                          M       endif
                          M PREV_ALT = (PB01)  & 8000h
                          M     endif
                          M     if ((((PB01)  & 0fffh) > BANKA_END) & (((PB01)  & 0fffh) < (0f01h + BANKA_END)))
                          M       if (((PB01)  & 0f00h) != (PREV_BANK << 8))
                          M         movlb   high (PB01)
                          M PREV_BANK = high (PB01)
                          M       endif
                          M     endif
                          M     if (((001h) & 1) == 1)
000CAA 822A               M         bsf     PB01,   001h
                          M     else
                          M         bcf     PB01,   001h
                          M     endif
                      02278 
                      02279 ; C:\USERS\DMILOSAVLJEVIC\DOCUMENTS\PROJECT\TECOMATIC\PICKBYLIGHT\PICKBYLIGHT.PBP       00155       else
                             
                      02280         GOTO?L  L00011
                          M         L?GOTO  L00011
                          M     ifdef USE_LINKER
                          M         CLRWDT?
                          M     else
                          M       if ($ == (L00011))
                          M         CLRWDT?
                          M       endif
                          M     endif
                          M 
                          M         RST?RP
                          M     if (PREV_ALT != 0)
                          M         bcf     WDTCON, ADSHR
                          M PREV_ALT = 0
                          M     endif
                          M     if (PREV_BANK != 0)
                          M         movlb   0
                          M PREV_BANK = 0
                          M     endif
                          M 
MPASM 5.81                   PICKBYLIGHT.ASM   1-20-2021  23:46:00         PAGE 271


LOC  OBJECT CODE     LINE SOURCE TEXT
  VALUE

                          M     ifdef USE_LINKER
                          M         goto    L00011
                          M     else
                          M       if ((L00011) < 1)
                          M         goto    L00011
                          M       else
                          M         if ((L00011) > $)
000CAC EF59 F006          M         goto    L00011
                          M         else
                          M           if ((L00011) < ($ - 3ffh))
                          M         goto    L00011
                          M           else
                          M         bra     L00011
                          M           endif
                          M         endif
                          M       endif
                          M     endif
                      02281         LABEL?L L00010  
                          M         RST?RP
                          M     if (PREV_ALT != 0)
                          M         bcf     WDTCON, ADSHR
                          M PREV_ALT = 0
                          M     endif
                          M     if (PREV_BANK != 0)
                          M         movlb   0
                          M PREV_BANK = 0
                          M     endif
                          M     ifdef PM_USED
                          M         LALL
                          M L00010
                          M         XALL
                          M     else
000CB0                    M L00010
                          M     endif
                      02282 
                      02283 ; C:\USERS\DMILOSAVLJEVIC\DOCUMENTS\PROJECT\TECOMATIC\PICKBYLIGHT\PICKBYLIGHT.PBP       00156           
                            InputA2 = 0
                      02284         MOVE?CT 000h, _InputA2
                          M         CHK?RP  PB01
                          M     if (((PB01)  & 8000h) != PREV_ALT)
                          M       if ((PB01)  & 8000h)
                          M         bsf     WDTCON, ADSHR
                          M       else
                          M         bcf     WDTCON, ADSHR
                          M       endif
                          M PREV_ALT = (PB01)  & 8000h
                          M     endif
                          M     if ((((PB01)  & 0fffh) > BANKA_END) & (((PB01)  & 0fffh) < (0f01h + BANKA_END)))
                          M       if (((PB01)  & 0f00h) != (PREV_BANK << 8))
                          M         movlb   high (PB01)
                          M PREV_BANK = high (PB01)
                          M       endif
                          M     endif
MPASM 5.81                   PICKBYLIGHT.ASM   1-20-2021  23:46:00         PAGE 272


LOC  OBJECT CODE     LINE SOURCE TEXT
  VALUE

                          M     if (((000h) & 1) == 1)
                          M         bsf     PB01,   001h
                          M     else
000CB0 922A               M         bcf     PB01,   001h
                          M     endif
                      02285 
                      02286 ; C:\USERS\DMILOSAVLJEVIC\DOCUMENTS\PROJECT\TECOMATIC\PICKBYLIGHT\PICKBYLIGHT.PBP       00157       ENDI
                            F    
                      02287         LABEL?L L00011  
                          M         RST?RP
                          M     if (PREV_ALT != 0)
                          M         bcf     WDTCON, ADSHR
                          M PREV_ALT = 0
                          M     endif
                          M     if (PREV_BANK != 0)
                          M         movlb   0
                          M PREV_BANK = 0
                          M     endif
                          M     ifdef PM_USED
                          M         LALL
                          M L00011
                          M         XALL
                          M     else
000CB2                    M L00011
                          M     endif
                      02288 
                      02289 ; C:\USERS\DMILOSAVLJEVIC\DOCUMENTS\PROJECT\TECOMATIC\PICKBYLIGHT\PICKBYLIGHT.PBP       00158       if N
                            ewStateA3 < OldStateA3 then 
                      02290         CMPGE?TTL       _NewStateA3, _OldStateA3, L00012
                          M         CLRWDT?
                          M     ifndef NO_CLRWDT
000CB2 0004               M         clrwdt
                          M     endif
                          M         BIT?GOTO 1, PB01,   006h,   L00012
                          M     ifdef USE_LINKER
                          M         CLRWDT?
                          M     else
                          M       if ($ == (L00012))
                          M         CLRWDT?
                          M       endif
                          M     endif
                          M 
                          M     if (((PB01)  > BANKA_END) & ((PB01)  < (0f01h + BANKA_END)))
                          M         bcf     STATUS, OV
                          M         CHK?RP  PB01
                          M       if ((1)      == 0)
                          M         btfss   PB01,  006h
                          M       else
                          M         btfsc   PB01,  006h
                          M       endif
                          M         bsf     STATUS, OV
                          M         RST?RP
                          M       ifdef USE_LINKER
MPASM 5.81                   PICKBYLIGHT.ASM   1-20-2021  23:46:00         PAGE 273


LOC  OBJECT CODE     LINE SOURCE TEXT
  VALUE

                          M         btfsc   STATUS, OV
                          M         goto    L00012
                          M       else
                          M         if ((L00012) < 1)
                          M         btfsc   STATUS, OV
                          M         goto    L00012
                          M         else
                          M           if ((L00012) > $)
                          M         btfsc   STATUS, OV
                          M         goto    L00012
                          M           else
                          M             if ((L00012) < ($ - 7fh))
                          M         btfsc   STATUS, OV
                          M         goto    L00012
                          M             else
                          M         bov     L00012
                          M             endif
                          M           endif
                          M         endif
                          M       endif
                          M     else
                          M         RST?RP
                          M     if (PREV_ALT != 0)
                          M         bcf     WDTCON, ADSHR
                          M PREV_ALT = 0
                          M     endif
                          M     if (PREV_BANK != 0)
                          M         movlb   0
                          M PREV_BANK = 0
                          M     endif
                          M       if ((1)      == 0)
                          M         btfss   PB01,  006h
                          M       else
000CB4 BC2A               M         btfsc   PB01,  006h
                          M       endif
                          M       ifdef USE_LINKER
                          M         goto    L00012
                          M       else
                          M         if ((L00012) < 1)
                          M         goto    L00012
                          M         else
                          M           if ((L00012) > $)
000CB6 EF63 F006          M         goto    L00012
                          M           else
                          M             if ((L00012) < ($ - 3ffh))
                          M         goto    L00012
                          M             else
                          M         bra     L00012
                          M             endif
                          M           endif
                          M         endif
                          M       endif
                          M     endif
MPASM 5.81                   PICKBYLIGHT.ASM   1-20-2021  23:46:00         PAGE 274


LOC  OBJECT CODE     LINE SOURCE TEXT
  VALUE

                          M         BIT?GOTO 0, PB02,   002h,   L00012
                          M     ifdef USE_LINKER
                          M         CLRWDT?
                          M     else
                          M       if ($ == (L00012))
                          M         CLRWDT?
                          M       endif
                          M     endif
                          M 
                          M     if (((PB02)  > BANKA_END) & ((PB02)  < (0f01h + BANKA_END)))
                          M         bcf     STATUS, OV
                          M         CHK?RP  PB02
                          M       if ((0)      == 0)
                          M         btfss   PB02,  002h
                          M       else
                          M         btfsc   PB02,  002h
                          M       endif
                          M         bsf     STATUS, OV
                          M         RST?RP
                          M       ifdef USE_LINKER
                          M         btfsc   STATUS, OV
                          M         goto    L00012
                          M       else
                          M         if ((L00012) < 1)
                          M         btfsc   STATUS, OV
                          M         goto    L00012
                          M         else
                          M           if ((L00012) > $)
                          M         btfsc   STATUS, OV
                          M         goto    L00012
                          M           else
                          M             if ((L00012) < ($ - 7fh))
                          M         btfsc   STATUS, OV
                          M         goto    L00012
                          M             else
                          M         bov     L00012
                          M             endif
                          M           endif
                          M         endif
                          M       endif
                          M     else
                          M         RST?RP
                          M     if (PREV_ALT != 0)
                          M         bcf     WDTCON, ADSHR
                          M PREV_ALT = 0
                          M     endif
                          M     if (PREV_BANK != 0)
                          M         movlb   0
                          M PREV_BANK = 0
                          M     endif
                          M       if ((0)      == 0)
000CBA A42B               M         btfss   PB02,  002h
                          M       else
MPASM 5.81                   PICKBYLIGHT.ASM   1-20-2021  23:46:00         PAGE 275


LOC  OBJECT CODE     LINE SOURCE TEXT
  VALUE

                          M         btfsc   PB02,  002h
                          M       endif
                          M       ifdef USE_LINKER
                          M         goto    L00012
                          M       else
                          M         if ((L00012) < 1)
                          M         goto    L00012
                          M         else
                          M           if ((L00012) > $)
000CBC EF63 F006          M         goto    L00012
                          M           else
                          M             if ((L00012) < ($ - 3ffh))
                          M         goto    L00012
                          M             else
                          M         bra     L00012
                          M             endif
                          M           endif
                          M         endif
                          M       endif
                          M     endif
                      02291 
                      02292 ; C:\USERS\DMILOSAVLJEVIC\DOCUMENTS\PROJECT\TECOMATIC\PICKBYLIGHT\PICKBYLIGHT.PBP       00159           
                            InputA3= 1
                      02293         MOVE?CT 001h, _InputA3
                          M         CHK?RP  PB01
                          M     if (((PB01)  & 8000h) != PREV_ALT)
                          M       if ((PB01)  & 8000h)
                          M         bsf     WDTCON, ADSHR
                          M       else
                          M         bcf     WDTCON, ADSHR
                          M       endif
                          M PREV_ALT = (PB01)  & 8000h
                          M     endif
                          M     if ((((PB01)  & 0fffh) > BANKA_END) & (((PB01)  & 0fffh) < (0f01h + BANKA_END)))
                          M       if (((PB01)  & 0f00h) != (PREV_BANK << 8))
                          M         movlb   high (PB01)
                          M PREV_BANK = high (PB01)
                          M       endif
                          M     endif
                          M     if (((001h) & 1) == 1)
000CC0 842A               M         bsf     PB01,   002h
                          M     else
                          M         bcf     PB01,   002h
                          M     endif
                      02294 
                      02295 ; C:\USERS\DMILOSAVLJEVIC\DOCUMENTS\PROJECT\TECOMATIC\PICKBYLIGHT\PICKBYLIGHT.PBP       00160       else
                      02296         GOTO?L  L00013
                          M         L?GOTO  L00013
                          M     ifdef USE_LINKER
                          M         CLRWDT?
                          M     else
                          M       if ($ == (L00013))
                          M         CLRWDT?
MPASM 5.81                   PICKBYLIGHT.ASM   1-20-2021  23:46:00         PAGE 276


LOC  OBJECT CODE     LINE SOURCE TEXT
  VALUE

                          M       endif
                          M     endif
                          M 
                          M         RST?RP
                          M     if (PREV_ALT != 0)
                          M         bcf     WDTCON, ADSHR
                          M PREV_ALT = 0
                          M     endif
                          M     if (PREV_BANK != 0)
                          M         movlb   0
                          M PREV_BANK = 0
                          M     endif
                          M 
                          M     ifdef USE_LINKER
                          M         goto    L00013
                          M     else
                          M       if ((L00013) < 1)
                          M         goto    L00013
                          M       else
                          M         if ((L00013) > $)
000CC2 EF64 F006          M         goto    L00013
                          M         else
                          M           if ((L00013) < ($ - 3ffh))
                          M         goto    L00013
                          M           else
                          M         bra     L00013
                          M           endif
                          M         endif
                          M       endif
                          M     endif
                      02297         LABEL?L L00012  
                          M         RST?RP
                          M     if (PREV_ALT != 0)
                          M         bcf     WDTCON, ADSHR
                          M PREV_ALT = 0
                          M     endif
                          M     if (PREV_BANK != 0)
                          M         movlb   0
                          M PREV_BANK = 0
                          M     endif
                          M     ifdef PM_USED
                          M         LALL
                          M L00012
                          M         XALL
                          M     else
000CC6                    M L00012
                          M     endif
                      02298 
                      02299 ; C:\USERS\DMILOSAVLJEVIC\DOCUMENTS\PROJECT\TECOMATIC\PICKBYLIGHT\PICKBYLIGHT.PBP       00161           
                            InputA3= 0
                      02300         MOVE?CT 000h, _InputA3
                          M         CHK?RP  PB01
                          M     if (((PB01)  & 8000h) != PREV_ALT)
MPASM 5.81                   PICKBYLIGHT.ASM   1-20-2021  23:46:00         PAGE 277


LOC  OBJECT CODE     LINE SOURCE TEXT
  VALUE

                          M       if ((PB01)  & 8000h)
                          M         bsf     WDTCON, ADSHR
                          M       else
                          M         bcf     WDTCON, ADSHR
                          M       endif
                          M PREV_ALT = (PB01)  & 8000h
                          M     endif
                          M     if ((((PB01)  & 0fffh) > BANKA_END) & (((PB01)  & 0fffh) < (0f01h + BANKA_END)))
                          M       if (((PB01)  & 0f00h) != (PREV_BANK << 8))
                          M         movlb   high (PB01)
                          M PREV_BANK = high (PB01)
                          M       endif
                          M     endif
                          M     if (((000h) & 1) == 1)
                          M         bsf     PB01,   002h
                          M     else
000CC6 942A               M         bcf     PB01,   002h
                          M     endif
                      02301 
                      02302 ; C:\USERS\DMILOSAVLJEVIC\DOCUMENTS\PROJECT\TECOMATIC\PICKBYLIGHT\PICKBYLIGHT.PBP       00162       ENDI
                            F    
                      02303         LABEL?L L00013  
                          M         RST?RP
                          M     if (PREV_ALT != 0)
                          M         bcf     WDTCON, ADSHR
                          M PREV_ALT = 0
                          M     endif
                          M     if (PREV_BANK != 0)
                          M         movlb   0
                          M PREV_BANK = 0
                          M     endif
                          M     ifdef PM_USED
                          M         LALL
                          M L00013
                          M         XALL
                          M     else
000CC8                    M L00013
                          M     endif
                      02304 
                      02305 ; C:\USERS\DMILOSAVLJEVIC\DOCUMENTS\PROJECT\TECOMATIC\PICKBYLIGHT\PICKBYLIGHT.PBP       00163       if N
                            ewStateA4 < OldStateA4 then 
                      02306         CMPGE?TTL       _NewStateA4, _OldStateA4, L00014
                          M         CLRWDT?
                          M     ifndef NO_CLRWDT
000CC8 0004               M         clrwdt
                          M     endif
                          M         BIT?GOTO 1, PB01,   007h,   L00014
                          M     ifdef USE_LINKER
                          M         CLRWDT?
                          M     else
                          M       if ($ == (L00014))
                          M         CLRWDT?
                          M       endif
MPASM 5.81                   PICKBYLIGHT.ASM   1-20-2021  23:46:00         PAGE 278


LOC  OBJECT CODE     LINE SOURCE TEXT
  VALUE

                          M     endif
                          M 
                          M     if (((PB01)  > BANKA_END) & ((PB01)  < (0f01h + BANKA_END)))
                          M         bcf     STATUS, OV
                          M         CHK?RP  PB01
                          M       if ((1)      == 0)
                          M         btfss   PB01,  007h
                          M       else
                          M         btfsc   PB01,  007h
                          M       endif
                          M         bsf     STATUS, OV
                          M         RST?RP
                          M       ifdef USE_LINKER
                          M         btfsc   STATUS, OV
                          M         goto    L00014
                          M       else
                          M         if ((L00014) < 1)
                          M         btfsc   STATUS, OV
                          M         goto    L00014
                          M         else
                          M           if ((L00014) > $)
                          M         btfsc   STATUS, OV
                          M         goto    L00014
                          M           else
                          M             if ((L00014) < ($ - 7fh))
                          M         btfsc   STATUS, OV
                          M         goto    L00014
                          M             else
                          M         bov     L00014
                          M             endif
                          M           endif
                          M         endif
                          M       endif
                          M     else
                          M         RST?RP
                          M     if (PREV_ALT != 0)
                          M         bcf     WDTCON, ADSHR
                          M PREV_ALT = 0
                          M     endif
                          M     if (PREV_BANK != 0)
                          M         movlb   0
                          M PREV_BANK = 0
                          M     endif
                          M       if ((1)      == 0)
                          M         btfss   PB01,  007h
                          M       else
000CCA BE2A               M         btfsc   PB01,  007h
                          M       endif
                          M       ifdef USE_LINKER
                          M         goto    L00014
                          M       else
                          M         if ((L00014) < 1)
                          M         goto    L00014
MPASM 5.81                   PICKBYLIGHT.ASM   1-20-2021  23:46:00         PAGE 279


LOC  OBJECT CODE     LINE SOURCE TEXT
  VALUE

                          M         else
                          M           if ((L00014) > $)
000CCC EF6E F006          M         goto    L00014
                          M           else
                          M             if ((L00014) < ($ - 3ffh))
                          M         goto    L00014
                          M             else
                          M         bra     L00014
                          M             endif
                          M           endif
                          M         endif
                          M       endif
                          M     endif
                          M         BIT?GOTO 0, PB02,   003h,   L00014
                          M     ifdef USE_LINKER
                          M         CLRWDT?
                          M     else
                          M       if ($ == (L00014))
                          M         CLRWDT?
                          M       endif
                          M     endif
                          M 
                          M     if (((PB02)  > BANKA_END) & ((PB02)  < (0f01h + BANKA_END)))
                          M         bcf     STATUS, OV
                          M         CHK?RP  PB02
                          M       if ((0)      == 0)
                          M         btfss   PB02,  003h
                          M       else
                          M         btfsc   PB02,  003h
                          M       endif
                          M         bsf     STATUS, OV
                          M         RST?RP
                          M       ifdef USE_LINKER
                          M         btfsc   STATUS, OV
                          M         goto    L00014
                          M       else
                          M         if ((L00014) < 1)
                          M         btfsc   STATUS, OV
                          M         goto    L00014
                          M         else
                          M           if ((L00014) > $)
                          M         btfsc   STATUS, OV
                          M         goto    L00014
                          M           else
                          M             if ((L00014) < ($ - 7fh))
                          M         btfsc   STATUS, OV
                          M         goto    L00014
                          M             else
                          M         bov     L00014
                          M             endif
                          M           endif
                          M         endif
                          M       endif
MPASM 5.81                   PICKBYLIGHT.ASM   1-20-2021  23:46:00         PAGE 280


LOC  OBJECT CODE     LINE SOURCE TEXT
  VALUE

                          M     else
                          M         RST?RP
                          M     if (PREV_ALT != 0)
                          M         bcf     WDTCON, ADSHR
                          M PREV_ALT = 0
                          M     endif
                          M     if (PREV_BANK != 0)
                          M         movlb   0
                          M PREV_BANK = 0
                          M     endif
                          M       if ((0)      == 0)
000CD0 A62B               M         btfss   PB02,  003h
                          M       else
                          M         btfsc   PB02,  003h
                          M       endif
                          M       ifdef USE_LINKER
                          M         goto    L00014
                          M       else
                          M         if ((L00014) < 1)
                          M         goto    L00014
                          M         else
                          M           if ((L00014) > $)
000CD2 EF6E F006          M         goto    L00014
                          M           else
                          M             if ((L00014) < ($ - 3ffh))
                          M         goto    L00014
                          M             else
                          M         bra     L00014
                          M             endif
                          M           endif
                          M         endif
                          M       endif
                          M     endif
                      02307 
                      02308 ; C:\USERS\DMILOSAVLJEVIC\DOCUMENTS\PROJECT\TECOMATIC\PICKBYLIGHT\PICKBYLIGHT.PBP       00164           
                            InputA4 = 1
                      02309         MOVE?CT 001h, _InputA4
                          M         CHK?RP  PB01
                          M     if (((PB01)  & 8000h) != PREV_ALT)
                          M       if ((PB01)  & 8000h)
                          M         bsf     WDTCON, ADSHR
                          M       else
                          M         bcf     WDTCON, ADSHR
                          M       endif
                          M PREV_ALT = (PB01)  & 8000h
                          M     endif
                          M     if ((((PB01)  & 0fffh) > BANKA_END) & (((PB01)  & 0fffh) < (0f01h + BANKA_END)))
                          M       if (((PB01)  & 0f00h) != (PREV_BANK << 8))
                          M         movlb   high (PB01)
                          M PREV_BANK = high (PB01)
                          M       endif
                          M     endif
                          M     if (((001h) & 1) == 1)
MPASM 5.81                   PICKBYLIGHT.ASM   1-20-2021  23:46:00         PAGE 281


LOC  OBJECT CODE     LINE SOURCE TEXT
  VALUE

000CD6 862A               M         bsf     PB01,   003h
                          M     else
                          M         bcf     PB01,   003h
                          M     endif
                      02310 
                      02311 ; C:\USERS\DMILOSAVLJEVIC\DOCUMENTS\PROJECT\TECOMATIC\PICKBYLIGHT\PICKBYLIGHT.PBP       00165       else
                      02312         GOTO?L  L00015
                          M         L?GOTO  L00015
                          M     ifdef USE_LINKER
                          M         CLRWDT?
                          M     else
                          M       if ($ == (L00015))
                          M         CLRWDT?
                          M       endif
                          M     endif
                          M 
                          M         RST?RP
                          M     if (PREV_ALT != 0)
                          M         bcf     WDTCON, ADSHR
                          M PREV_ALT = 0
                          M     endif
                          M     if (PREV_BANK != 0)
                          M         movlb   0
                          M PREV_BANK = 0
                          M     endif
                          M 
                          M     ifdef USE_LINKER
                          M         goto    L00015
                          M     else
                          M       if ((L00015) < 1)
                          M         goto    L00015
                          M       else
                          M         if ((L00015) > $)
000CD8 EF6F F006          M         goto    L00015
                          M         else
                          M           if ((L00015) < ($ - 3ffh))
                          M         goto    L00015
                          M           else
                          M         bra     L00015
                          M           endif
                          M         endif
                          M       endif
                          M     endif
                      02313         LABEL?L L00014  
                          M         RST?RP
                          M     if (PREV_ALT != 0)
                          M         bcf     WDTCON, ADSHR
                          M PREV_ALT = 0
                          M     endif
                          M     if (PREV_BANK != 0)
                          M         movlb   0
                          M PREV_BANK = 0
                          M     endif
MPASM 5.81                   PICKBYLIGHT.ASM   1-20-2021  23:46:00         PAGE 282


LOC  OBJECT CODE     LINE SOURCE TEXT
  VALUE

                          M     ifdef PM_USED
                          M         LALL
                          M L00014
                          M         XALL
                          M     else
000CDC                    M L00014
                          M     endif
                      02314 
                      02315 ; C:\USERS\DMILOSAVLJEVIC\DOCUMENTS\PROJECT\TECOMATIC\PICKBYLIGHT\PICKBYLIGHT.PBP       00166           
                            InputA4 = 0
                      02316         MOVE?CT 000h, _InputA4
                          M         CHK?RP  PB01
                          M     if (((PB01)  & 8000h) != PREV_ALT)
                          M       if ((PB01)  & 8000h)
                          M         bsf     WDTCON, ADSHR
                          M       else
                          M         bcf     WDTCON, ADSHR
                          M       endif
                          M PREV_ALT = (PB01)  & 8000h
                          M     endif
                          M     if ((((PB01)  & 0fffh) > BANKA_END) & (((PB01)  & 0fffh) < (0f01h + BANKA_END)))
                          M       if (((PB01)  & 0f00h) != (PREV_BANK << 8))
                          M         movlb   high (PB01)
                          M PREV_BANK = high (PB01)
                          M       endif
                          M     endif
                          M     if (((000h) & 1) == 1)
                          M         bsf     PB01,   003h
                          M     else
000CDC 962A               M         bcf     PB01,   003h
                          M     endif
                      02317 
                      02318 ; C:\USERS\DMILOSAVLJEVIC\DOCUMENTS\PROJECT\TECOMATIC\PICKBYLIGHT\PICKBYLIGHT.PBP       00167       ENDI
                            F    
                      02319         LABEL?L L00015  
                          M         RST?RP
                          M     if (PREV_ALT != 0)
                          M         bcf     WDTCON, ADSHR
                          M PREV_ALT = 0
                          M     endif
                          M     if (PREV_BANK != 0)
                          M         movlb   0
                          M PREV_BANK = 0
                          M     endif
                          M     ifdef PM_USED
                          M         LALL
                          M L00015
                          M         XALL
                          M     else
000CDE                    M L00015
                          M     endif
                      02320 
                      02321 ; C:\USERS\DMILOSAVLJEVIC\DOCUMENTS\PROJECT\TECOMATIC\PICKBYLIGHT\PICKBYLIGHT.PBP       00168       OldS
MPASM 5.81                   PICKBYLIGHT.ASM   1-20-2021  23:46:00         PAGE 283


LOC  OBJECT CODE     LINE SOURCE TEXT
  VALUE

                            tateA1 = NewStateA1       
                      02322         MOVE?TT _NewStateA1, _OldStateA1
                          M     if (((PB01)  <= BANKA_END) | ((PB01)  >= (0f01h + BANKA_END)))
                          M         CHK?RP  PB02
                          M     if (((PB02)  & 8000h) != PREV_ALT)
                          M       if ((PB02)  & 8000h)
                          M         bsf     WDTCON, ADSHR
                          M       else
                          M         bcf     WDTCON, ADSHR
                          M       endif
                          M PREV_ALT = (PB02)  & 8000h
                          M     endif
                          M     if ((((PB02)  & 0fffh) > BANKA_END) & (((PB02)  & 0fffh) < (0f01h + BANKA_END)))
                          M       if (((PB02)  & 0f00h) != (PREV_BANK << 8))
                          M         movlb   high (PB02)
                          M PREV_BANK = high (PB02)
                          M       endif
                          M     endif
000CDE B82A               M         btfsc   PB01,  004h
000CE0 802B               M         bsf     PB02,   000h
000CE2 A82A               M         btfss   PB01,  004h
000CE4 902B               M         bcf     PB02,   000h
                          M     else
                          M       if (((PB01)  & 0f00h) == ((PB02)   & 0f00h))
                          M         CHK?RP  PB01
                          M         btfsc   PB01,  004h
                          M         bsf     PB02,   000h
                          M         btfss   PB01,  004h
                          M         bcf     PB02,   000h
                          M       else
                          M           if (((PB02)   <= BANKA_END) | ((PB02)   >= (0f01h + BANKA_END)))
                          M         CHK?RP  PB01
                          M         btfsc   PB01,  004h
                          M         bsf     PB02,   000h
                          M         btfss   PB01,  004h
                          M         bcf     PB02,   000h
                          M           else
                          M         MOVE?TA PB01,  004h
                          M         MOVE?AT PB02,   000h
                          M           endif
                          M       endif
                          M     endif
                      02323 
                      02324 ; C:\USERS\DMILOSAVLJEVIC\DOCUMENTS\PROJECT\TECOMATIC\PICKBYLIGHT\PICKBYLIGHT.PBP       00169       OldS
                            tateA2 = NewStateA2 
                      02325         MOVE?TT _NewStateA2, _OldStateA2
                          M     if (((PB01)  <= BANKA_END) | ((PB01)  >= (0f01h + BANKA_END)))
                          M         CHK?RP  PB02
                          M     if (((PB02)  & 8000h) != PREV_ALT)
                          M       if ((PB02)  & 8000h)
                          M         bsf     WDTCON, ADSHR
                          M       else
                          M         bcf     WDTCON, ADSHR
MPASM 5.81                   PICKBYLIGHT.ASM   1-20-2021  23:46:00         PAGE 284


LOC  OBJECT CODE     LINE SOURCE TEXT
  VALUE

                          M       endif
                          M PREV_ALT = (PB02)  & 8000h
                          M     endif
                          M     if ((((PB02)  & 0fffh) > BANKA_END) & (((PB02)  & 0fffh) < (0f01h + BANKA_END)))
                          M       if (((PB02)  & 0f00h) != (PREV_BANK << 8))
                          M         movlb   high (PB02)
                          M PREV_BANK = high (PB02)
                          M       endif
                          M     endif
000CE6 BA2A               M         btfsc   PB01,  005h
000CE8 822B               M         bsf     PB02,   001h
000CEA AA2A               M         btfss   PB01,  005h
000CEC 922B               M         bcf     PB02,   001h
                          M     else
                          M       if (((PB01)  & 0f00h) == ((PB02)   & 0f00h))
                          M         CHK?RP  PB01
                          M         btfsc   PB01,  005h
                          M         bsf     PB02,   001h
                          M         btfss   PB01,  005h
                          M         bcf     PB02,   001h
                          M       else
                          M           if (((PB02)   <= BANKA_END) | ((PB02)   >= (0f01h + BANKA_END)))
                          M         CHK?RP  PB01
                          M         btfsc   PB01,  005h
                          M         bsf     PB02,   001h
                          M         btfss   PB01,  005h
                          M         bcf     PB02,   001h
                          M           else
                          M         MOVE?TA PB01,  005h
                          M         MOVE?AT PB02,   001h
                          M           endif
                          M       endif
                          M     endif
                      02326 
                      02327 ; C:\USERS\DMILOSAVLJEVIC\DOCUMENTS\PROJECT\TECOMATIC\PICKBYLIGHT\PICKBYLIGHT.PBP       00170       OldS
                            tateA3 = NewStateA3          
                      02328         MOVE?TT _NewStateA3, _OldStateA3
                          M     if (((PB01)  <= BANKA_END) | ((PB01)  >= (0f01h + BANKA_END)))
                          M         CHK?RP  PB02
                          M     if (((PB02)  & 8000h) != PREV_ALT)
                          M       if ((PB02)  & 8000h)
                          M         bsf     WDTCON, ADSHR
                          M       else
                          M         bcf     WDTCON, ADSHR
                          M       endif
                          M PREV_ALT = (PB02)  & 8000h
                          M     endif
                          M     if ((((PB02)  & 0fffh) > BANKA_END) & (((PB02)  & 0fffh) < (0f01h + BANKA_END)))
                          M       if (((PB02)  & 0f00h) != (PREV_BANK << 8))
                          M         movlb   high (PB02)
                          M PREV_BANK = high (PB02)
                          M       endif
                          M     endif
MPASM 5.81                   PICKBYLIGHT.ASM   1-20-2021  23:46:00         PAGE 285


LOC  OBJECT CODE     LINE SOURCE TEXT
  VALUE

000CEE BC2A               M         btfsc   PB01,  006h
000CF0 842B               M         bsf     PB02,   002h
000CF2 AC2A               M         btfss   PB01,  006h
000CF4 942B               M         bcf     PB02,   002h
                          M     else
                          M       if (((PB01)  & 0f00h) == ((PB02)   & 0f00h))
                          M         CHK?RP  PB01
                          M         btfsc   PB01,  006h
                          M         bsf     PB02,   002h
                          M         btfss   PB01,  006h
                          M         bcf     PB02,   002h
                          M       else
                          M           if (((PB02)   <= BANKA_END) | ((PB02)   >= (0f01h + BANKA_END)))
                          M         CHK?RP  PB01
                          M         btfsc   PB01,  006h
                          M         bsf     PB02,   002h
                          M         btfss   PB01,  006h
                          M         bcf     PB02,   002h
                          M           else
                          M         MOVE?TA PB01,  006h
                          M         MOVE?AT PB02,   002h
                          M           endif
                          M       endif
                          M     endif
                      02329 
                      02330 ; C:\USERS\DMILOSAVLJEVIC\DOCUMENTS\PROJECT\TECOMATIC\PICKBYLIGHT\PICKBYLIGHT.PBP       00171       OldS
                            tateA4 = NewStateA4         
                      02331         MOVE?TT _NewStateA4, _OldStateA4
                          M     if (((PB01)  <= BANKA_END) | ((PB01)  >= (0f01h + BANKA_END)))
                          M         CHK?RP  PB02
                          M     if (((PB02)  & 8000h) != PREV_ALT)
                          M       if ((PB02)  & 8000h)
                          M         bsf     WDTCON, ADSHR
                          M       else
                          M         bcf     WDTCON, ADSHR
                          M       endif
                          M PREV_ALT = (PB02)  & 8000h
                          M     endif
                          M     if ((((PB02)  & 0fffh) > BANKA_END) & (((PB02)  & 0fffh) < (0f01h + BANKA_END)))
                          M       if (((PB02)  & 0f00h) != (PREV_BANK << 8))
                          M         movlb   high (PB02)
                          M PREV_BANK = high (PB02)
                          M       endif
                          M     endif
000CF6 BE2A               M         btfsc   PB01,  007h
000CF8 862B               M         bsf     PB02,   003h
000CFA AE2A               M         btfss   PB01,  007h
000CFC 962B               M         bcf     PB02,   003h
                          M     else
                          M       if (((PB01)  & 0f00h) == ((PB02)   & 0f00h))
                          M         CHK?RP  PB01
                          M         btfsc   PB01,  007h
                          M         bsf     PB02,   003h
MPASM 5.81                   PICKBYLIGHT.ASM   1-20-2021  23:46:00         PAGE 286


LOC  OBJECT CODE     LINE SOURCE TEXT
  VALUE

                          M         btfss   PB01,  007h
                          M         bcf     PB02,   003h
                          M       else
                          M           if (((PB02)   <= BANKA_END) | ((PB02)   >= (0f01h + BANKA_END)))
                          M         CHK?RP  PB01
                          M         btfsc   PB01,  007h
                          M         bsf     PB02,   003h
                          M         btfss   PB01,  007h
                          M         bcf     PB02,   003h
                          M           else
                          M         MOVE?TA PB01,  007h
                          M         MOVE?AT PB02,   003h
                          M           endif
                          M       endif
                          M     endif
                      02332 
                      02333 ; C:\USERS\DMILOSAVLJEVIC\DOCUMENTS\PROJECT\TECOMATIC\PICKBYLIGHT\PICKBYLIGHT.PBP       00172   return
                      02334         RETURN? 
                          M     ifdef DEBUG_STACK
                          M         CHK?RP  DEBUG_STACK
                          M         decf    DEBUG_STACK, F
                          M     endif
                          M         RST?RP
                          M     if (PREV_ALT != 0)
                          M         bcf     WDTCON, ADSHR
                          M PREV_ALT = 0
                          M     endif
                          M     if (PREV_BANK != 0)
                          M         movlb   0
                          M PREV_BANK = 0
                          M     endif
000CFE 0012               M         return
                      02335 
                      02336 ; C:\USERS\DMILOSAVLJEVIC\DOCUMENTS\PROJECT\TECOMATIC\PICKBYLIGHT\PICKBYLIGHT.PBP       00174   end 'kra
                            j :) 
                      02337         END?    
  0000                    M     local loop
000D00 0003               M loop    sleep
                          M         L?GOTO  loop
                          M     ifdef USE_LINKER
                          M         CLRWDT?
                          M     else
                          M       if ($ == (_1589loop))
                          M         CLRWDT?
                          M       endif
                          M     endif
                          M 
                          M         RST?RP
                          M     if (PREV_ALT != 0)
                          M         bcf     WDTCON, ADSHR
                          M PREV_ALT = 0
                          M     endif
                          M     if (PREV_BANK != 0)
MPASM 5.81                   PICKBYLIGHT.ASM   1-20-2021  23:46:00         PAGE 287


LOC  OBJECT CODE     LINE SOURCE TEXT
  VALUE

                          M         movlb   0
                          M PREV_BANK = 0
                          M     endif
                          M 
                          M     ifdef USE_LINKER
                          M         goto    _1589loop
                          M     else
                          M       if ((_1589loop) < 1)
                          M         goto    _1589loop
                          M       else
                          M         if ((_1589loop) > $)
                          M         goto    _1589loop
                          M         else
                          M           if ((_1589loop) < ($ - 3ffh))
                          M         goto    _1589loop
                          M           else
000D02 D7FE               M         bra     _1589loop
                          M           endif
                          M         endif
                          M       endif
                          M     endif
                      02338 
                      02339         END
MPASM 5.81                   PICKBYLIGHT.ASM   1-20-2021  23:46:00         PAGE 288


SYMBOL TABLE
  LABEL                             VALUE 

A                                 00000000
ABDEN                             00000000
ABDOVF                            00000007
ACCESS                            00000000
ACKDT                             00000005
ACKEN                             00000004
ACKSTAT                           00000006
ACQT0                             00000003
ACQT1                             00000004
ACQT2                             00000005
ACTVIE                            00000002
ACTVIF                            00000002
ADCON0                            00000FC2
ADCON1                            00000FC1
ADCON2                            00000FC0
ADCS0                             00000000
ADCS1                             00000001
ADCS2                             00000002
ADC_BITS                          00000008
ADC_CLOCK                         00000003
ADC_SAMPLEUS                      00000032
ADDEN                             00000003
ADDR0                             00000000
ADDR1                             00000001
ADDR2                             00000002
ADDR3                             00000003
ADDR4                             00000004
ADDR5                             00000005
ADDR6                             00000006
ADEN                              00000003
ADFM                              00000007
ADIE                              00000006
ADIF                              00000006
ADIP                              00000006
ADON                              00000000
ADRES                             00000FC3
ADRESH                            00000FC4
ADRESL                            00000FC3
AD_INT                            PIR1, ADIF
AN0                               00000000
AN1                               00000001
AN2                               00000002
AN3                               00000003
AN4                               00000005
ASM                               00000000
ASM?                              
Asm                               00000000
BANK0_END                         000000FF
BANK0_START                       00000060
BANK1_END                         000001FF
BANK1_START                       00000100
BANK2_END                         000002FF
BANK2_START                       00000200
MPASM 5.81                   PICKBYLIGHT.ASM   1-20-2021  23:46:00         PAGE 289


SYMBOL TABLE
  LABEL                             VALUE 

BANK3_END                         000003FF
BANK3_START                       00000300
BANK4_END                         000004FF
BANK4_START                       00000400
BANK5_END                         000005FF
BANK5_START                       00000500
BANK6_END                         000006FF
BANK6_START                       00000600
BANK7_END                         000007FF
BANK7_START                       00000700
BANKA_END                         0000005F
BANKA_START                       00000000
BANKED                            00000001
BAUDCON                           00000FB8
BAUDCTL                           00000FB8
BCLIE                             00000003
BCLIF                             00000003
BCLIP                             00000003
BF                                00000000
BGST                              00000005
BIT?FLIP                          
BIT?GOTO                          
BIT?R1                            
BIT?R2                            
BIT?W                             
BLOCK_SIZE                        00000020
BOR                               00000000
BRG16                             00000003
BRGH                              00000002
BSR                               00000FE0
BTOEE                             00000004
BTOEF                             00000004
BTSEE                             00000007
BTSEF                             00000007
BUS1_INT                          PIR2, BCL1IF
BUS2_INT                          PIR3, BCL2IF
BUS_INT                           PIR2, BCLIF
BUTTON_PAUSE                      0000000A
C                                 00000000
C1INV                             00000004
C1OUT                             00000006
C2INV                             00000005
C2OUT                             00000007
CAN_ERR_INT                       PIR3, ERRIF
CAN_FIFOWM_INT                    PIR3, FIFOWMIF
CAN_IRX_INT                       PIR3, IRXIF
CAN_RXB0_INT                      PIR3, RXB0IF
CAN_RXB1_INT                      PIR3, RXB1IF
CAN_RXBn_INT                      PIR3, RXBnIF
CAN_TXB0_INT                      PIR3, TXB0IF
CAN_TXB1_INT                      PIR3, TXB1IF
CAN_TXB2_INT                      PIR3, TXB2IF
CAN_TXBn_INT                      PIR3, TXBnIF
MPASM 5.81                   PICKBYLIGHT.ASM   1-20-2021  23:46:00         PAGE 290


SYMBOL TABLE
  LABEL                             VALUE 

CAN_WAKE_INT                      PIR3, WAKIF
CCP1                              00000002
CCP1AS                            00000FB6
CCP1CON                           00000FBD
CCP1DEL                           00000FB7
CCP1IE                            00000002
CCP1IF                            00000002
CCP1IP                            00000002
CCP1M0                            00000000
CCP1M1                            00000001
CCP1M2                            00000002
CCP1M3                            00000003
CCP1_BIT                          00000002
CCP1_INT                          PIR1, CCP1IF
CCP1_REG                          00000F82
CCP2CON                           00000FBA
CCP2IE                            00000000
CCP2IF                            00000000
CCP2IP                            00000000
CCP2M0                            00000000
CCP2M1                            00000001
CCP2M2                            00000002
CCP2M3                            00000003
CCP2_BIT                          00000001
CCP2_INT                          PIR2, CCP2IF
CCP2_REG                          00000F82
CCP3_INT                          PIR3, CCP3IF
CCP4_INT                          PIR3, CCP4IF
CCP5_INT                          PIR3, CCP5IF
CCPR1                             00000FBE
CCPR1H                            00000FBF
CCPR1L                            00000FBE
CCPR2                             00000FBB
CCPR2H                            00000FBC
CCPR2L                            00000FBB
CFGS                              00000006
CHAR_PACING                       1000
CHK?RP                            
CHKRP?T                           
CHS0                              00000002
CHS1                              00000003
CHS2                              00000004
CHS3                              00000005
CIS                               00000003
CK                                00000006
CK1SPP                            00000000
CK2SPP                            00000001
CKE                               00000006
CKP                               00000004
CLEAR?                            
CLEAR_USED                        00000001
CLK1EN                            00000004
CLKCFG0                           00000006
MPASM 5.81                   PICKBYLIGHT.ASM   1-20-2021  23:46:00         PAGE 291


SYMBOL TABLE
  LABEL                             VALUE 

CLKCFG1                           00000007
CLRWDT?                           
CLRWDT?NOP                        
CM0                               00000000
CM1                               00000001
CM2                               00000002
CMCON                             00000FB4
CMIE                              00000006
CMIF                              00000006
CMIP                              00000006
CMP0_INT                          PIR1, CMP0IF
CMPEQ?TCB                         
CMPF?WL                           
CMPGE?TTL                         
CMPIEREG                          00000FA0
CMPIFREG                          00000FA1
CMPIPREG                          00000FA2
CMPNE?TCL                         
CMP_INT                           PIR2, CMIF
CRC16EE                           00000002
CRC16EF                           00000002
CRC5EE                            00000001
CRC5EF                            00000001
CREN                              00000004
CSEN                              00000005
CSRC                              00000007
CVR0                              00000000
CVR1                              00000001
CVR2                              00000002
CVR3                              00000003
CVRCON                            00000FB5
CVREF                             00000004
CVREN                             00000007
CVROE                             00000006
CVRR                              00000005
CVRSS                             00000004
D                                 00000005
DATA_ADDRESS                      00000005
DC                                00000001
DC1B0                             00000004
DC1B1                             00000005
DC2B0                             00000004
DC2B1                             00000005
DDISABLE?                         
DDRA                              TRISA
DDRB                              TRISB
DDRC                              TRISC
DDRD                              TRISD
DDRE                              TRISE
DEBUGIN_BIT                       00000000
DEBUGIN_MODE                      00000001
DEBUGIN_REG                       00000F81
DEBUG_BAUD                        00000960
MPASM 5.81                   PICKBYLIGHT.ASM   1-20-2021  23:46:00         PAGE 292


SYMBOL TABLE
  LABEL                             VALUE 

DEBUG_BIT                         00000000
DEBUG_DELAY                       0000019A
DEBUG_MODE                        00000001
DEBUG_REG                         00000F81
DENABLE?                          
DFN8EE                            00000003
DFN8EF                            00000003
DIR                               00000002
DIV                               0000017A
DIV32DIV                          0000017E
DIV_USED                          00000001
DONE                              00000001
DUNN                              000001AA
DUNN5                             000001AC
DUNN_USED                         00000001
D_A                               00000005
D_NOT_A                           00000005
ECCP1AS                           00000FB6
ECCP1CON                          00000FBD
ECCP1DEL                          00000FB7
ECCP1_INT                         PIR2, ECCP1IF
ECCPAS0                           00000004
ECCPAS1                           00000005
ECCPAS2                           00000006
ECCPASE                           00000007
EEADR                             00000FA9
EECON1                            00000FA6
EECON2                            00000FA7
EEDATA                            00000FA8
EEIE                              00000004
EEIF                              00000004
EEIP                              00000004
EEPGD                             00000007
EEPROM_START                      00F00000
EE_INT                            PIR2, EEIF
END?                              
ENDASM?                           
ENDP0                             00000003
ENDP1                             00000004
ENDP2                             00000005
ENDP3                             00000006
EPCONDIS                          00000003
EPHSHK                            00000004
EPINEN                            00000001
EPOUTEN                           00000002
EPSTALL                           00000000
ETH_DMA_INT                       EIR, DMAIF
ETH_INT                           PIR2, ETHIF
ETH_LINK_INT                      EIR, LINKIF
ETH_PKT_INT                       EIR, PKTIF
ETH_RXER_INT                      EIR, RXERIF
ETH_TXER_INT                      EIR, TXERIF
ETH_TX_INT                        EIR, TXIF
MPASM 5.81                   PICKBYLIGHT.ASM   1-20-2021  23:46:00         PAGE 293


SYMBOL TABLE
  LABEL                             VALUE 

FAST                              00000001
FERR                              00000002
FLAGS                             00000000
FLTS                              00000002
FREE                              00000004
FRM0                              00000000
FRM1                              00000001
FRM10                             00000002
FRM2                              00000002
FRM3                              00000003
FRM4                              00000004
FRM5                              00000005
FRM6                              00000006
FRM7                              00000007
FRM8                              00000000
FRM9                              00000001
FSEN                              00000002
FSR0                              00000000
FSR0H                             00000FEA
FSR0L                             00000FE9
FSR1                              00000001
FSR1H                             00000FE2
FSR1L                             00000FE1
FSR2                              00000002
FSR2H                             00000FDA
FSR2L                             00000FD9
FindIntPriority                   
Found                             00000001
GCEN                              00000007
GIE                               00000007
GIEH                              00000007
GIEL                              00000006
GIE_GIEH                          00000007
GO                                00000001
GOP                               00000001
GOSUB?L                           
GOTO?L                            
GO_DONE                           00000001
GO_NOT_DONE                       00000001
GetAddress                        
GetAddress21                      
GetIntInfo                        
H                                 00000048
HLVDCON                           00000FD2
HLVDEN                            00000004
HLVDIE                            00000002
HLVDIF                            00000002
HLVDIN                            00000005
HLVDIP                            00000002
HLVDL0                            00000000
HLVDL1                            00000001
HLVDL2                            00000002
HLVDL3                            00000003
MPASM 5.81                   PICKBYLIGHT.ASM   1-20-2021  23:46:00         PAGE 294


SYMBOL TABLE
  LABEL                             VALUE 

HLVD_INT                          PIR2, HLVDIF
HSER2_BAUD                        00000960
HSER2_BITS                        00000008
HSER2_RCSTA                       00000090
HSER2_SPBRG                       00000033
HSER2_TXSTA                       00000020
HSER_BAUD                         00000960
HSER_BITS                         00000008
HSER_PORT                         00000001
HSER_RCSTA                        00000090
HSER_SPBRG                        00000033
HSER_TXSTA                        00000020
I2CFIRSTFLAG                      FLAGS, 2
I2CREADFLAG                       FLAGS, 3
I2CSTOPFLAG                       FLAGS, 5
I2CSTOPSTRFLAG                    FLAGS, 6
I2CWRITEFLAG                      FLAGS, 4
I2C_DAT                           00000005
I2C_READ                          00000002
I2C_START                         00000003
I2C_STOP                          00000004
IC1IF_INT                         PIR3, IC1IF
IC2QEIF_INT                       PIR3, IC2QEIF
IC3DRIF_INT                       PIR3, IC3DRIF
IDLEIE                            00000004
IDLEIF                            00000004
IDLEN                             00000007
INDF0                             00000FEF
INDF1                             00000FE7
INDF2                             00000FDF
INIT                              000001B0
INPUT?T                           
INT0                              00000000
INT0E                             00000004
INT0F                             00000001
INT0IE                            00000004
INT0IF                            00000001
INT0_INT                          INTCON, INT0IF
INT1                              00000001
INT1E                             00000003
INT1F                             00000000
INT1IE                            00000003
INT1IF                            00000000
INT1IP                            00000006
INT1P                             00000006
INT1_INT                          INTCON3,INT1IF
INT2                              00000002
INT2E                             00000004
INT2F                             00000001
INT2IE                            00000004
INT2IF                            00000001
INT2IP                            00000007
INT2P                             00000007
MPASM 5.81                   PICKBYLIGHT.ASM   1-20-2021  23:46:00         PAGE 295


SYMBOL TABLE
  LABEL                             VALUE 

INT2_INT                          INTCON3,INT2IF
INT3_INT                          INTCON3,INT3IF
INTCON                            00000FF2
INTCON2                           00000FF1
INTCON3                           00000FF0
INTEDG0                           00000006
INTEDG1                           00000005
INTEDG2                           00000004
INTHAND                           INT_ENTRY_H
INTLHAND                          INT_ENTRY_L
INTSRC                            00000007
INT_CLEAR                         
INT_CREATE                        
INT_CREATE_H                      
INT_CREATE_L                      
INT_Count                         00000001
INT_DISABLE                       
INT_ENABLE                        
INT_ENTRY_H                       0000037C
INT_ENTRY_L                       000001F0
INT_EXIT_H                        000003E8
INT_Enable_Bit                    00000000
INT_Enable_Reg                    00000F9D
INT_FINISH_H                      
INT_Flag_Bit                      00000000
INT_Flag_Reg                      00000F9E
INT_Flags                         0000001C
INT_Handler                       
INT_INT                           INTCON, INT0IF
INT_LIST                          
INT_Priority_Bit                  00000000
INT_Priority_Reg                  00000F9F
INT_RETURN                        
INT_Source                        
IOFS                              00000002
IPEN                              00000007
IPR1                              00000F9F
IPR2                              00000FA2
IRCF0                             00000004
IRCF1                             00000005
IRCF2                             00000006
IRVST                             00000005
IVRST                             00000005
L                                 0000004C
L00001                            00000B4C
L00002                            00000296
L00004                            00000356
L00006                            00000A9E
L00008                            00000C9A
L00009                            00000C9C
L00010                            00000CB0
L00011                            00000CB2
L00012                            00000CC6
MPASM 5.81                   PICKBYLIGHT.ASM   1-20-2021  23:46:00         PAGE 296


SYMBOL TABLE
  LABEL                             VALUE 

L00013                            00000CC8
L00014                            00000CDC
L00015                            00000CDE
L?CALL                            
L?GOTO                            
LABEL?L                           
LATA                              00000F89
LATA0                             00000000
LATA1                             00000001
LATA2                             00000002
LATA3                             00000003
LATA4                             00000004
LATA5                             00000005
LATA6                             00000006
LATB                              00000F8A
LATB0                             00000000
LATB1                             00000001
LATB2                             00000002
LATB3                             00000003
LATB4                             00000004
LATB5                             00000005
LATB6                             00000006
LATB7                             00000007
LATC                              00000F8B
LATC0                             00000000
LATC1                             00000001
LATC2                             00000002
LATC6                             00000006
LATC7                             00000007
LATD                              00000F8C
LATD0                             00000000
LATD1                             00000001
LATD2                             00000002
LATD3                             00000003
LATD4                             00000004
LATD5                             00000005
LATD6                             00000006
LATD7                             00000007
LATE                              00000F8D
LATE0                             00000000
LATE1                             00000001
LATE2                             00000002
LCDCDFLAG                         FLAGS, 0
LCDINITFLAG                       FLAGS, 1
LCD_BITS                          00000004
LCD_COMMANDUS                     000007D0
LCD_DATAUS                        00000032
LCD_DBIT                          00000000
LCD_DREG                          00000F80
LCD_EBIT                          00000003
LCD_EREG                          00000F81
LCD_INT                           PIR3, LCDIF
LCD_LINES                         00000002
MPASM 5.81                   PICKBYLIGHT.ASM   1-20-2021  23:46:00         PAGE 297


SYMBOL TABLE
  LABEL                             VALUE 

LCD_RSBIT                         00000004
LCD_RSREG                         00000F80
LCD_RWBIT                         00000004
LCD_RWREG                         00000F80
LOR                               00000170
LOR?BBW                           
LOR?WBW                           
LOR_USED                          00000001
LVDCON                            00000FD2
LVDEN                             00000004
LVDIE                             00000002
LVDIF                             00000002
LVDIN                             00000005
LVDIP                             00000002
LVDL0                             00000000
LVDL1                             00000001
LVDL2                             00000002
LVDL3                             00000003
LVD_INT                           PIR2, LVDIF
LVV0                              00000000
LVV1                              00000001
LVV2                              00000002
LVV3                              00000003
List_Start_H                      0000039E
MOVE?AB                           
MOVE?AT                           
MOVE?AW                           
MOVE?AWW                          
MOVE?BA                           
MOVE?BB                           
MOVE?BT                           
MOVE?BW                           
MOVE?CA                           
MOVE?CB                           
MOVE?CT                           
MOVE?CW                           
MOVE?TA                           
MOVE?TB                           
MOVE?TT                           
MOVE?TW                           
MOVE?WA                           
MOVE?WB                           
MOVE?WT                           
MOVE?WW                           
MOVE?WWA                          
MPASMX_USED                       00000001
N                                 00000004
NO                                00000000
NOT_A                             00000005
NOT_ADDRESS                       00000005
NOT_BOR                           00000000
NOT_DONE                          00000001
NOT_IPEN                          00000007
MPASM 5.81                   PICKBYLIGHT.ASM   1-20-2021  23:46:00         PAGE 298


SYMBOL TABLE
  LABEL                             VALUE 

NOT_PD                            00000002
NOT_POR                           00000001
NOT_RBPU                          00000007
NOT_RI                            00000004
NOT_T1SYNC                        00000002
NOT_T3SYNC                        00000002
NOT_TO                            00000003
NOT_W                             00000002
NOT_WRITE                         00000002
No                                00000000
OERR                              00000001
OESPP                             00000002
OSC                               8
OSC2                              00000006
OSCCON                            00000FD3
OSCFIE                            00000007
OSCFIF                            00000007
OSCFIP                            00000007
OSCTUNE                           00000F9B
OSC_INT                           PIR2, OSCFIF
OSC_VALID                         00000001
OSTS                              00000003
OUTPUT?T                          
OV                                00000003
P                                 00000004
P1A                               00000002
P1M0                              00000006
P1M1                              00000007
PAUSE                             00000132
PAUSE?C                           
PAUSEL                            00000134
PAUSEUS                           0000014C
PAUSEUSL                          0000014E
PAUSEUS_USED                      00000001
PAUSE_DELAY                       000003E4
PAUSE_USED                        00000001
PB01                              0000002A
PB02                              0000002B
PBP                               00000001
PBPLongs_Used                     00000000
PBP_HARDWAREDEF                   
PBP_PATH                          C:\PROGRAM FILES (X86)\PBP3\
PC                                00000FF9
PCFG0                             00000000
PCFG1                             00000001
PCFG2                             00000002
PCFG3                             00000003
PCL                               00000FF9
PCLATH                            00000FFA
PCLATU                            00000FFB
PD                                00000002
PDC0                              00000000
PDC1                              00000001
MPASM 5.81                   PICKBYLIGHT.ASM   1-20-2021  23:46:00         PAGE 299


SYMBOL TABLE
  LABEL                             VALUE 

PDC2                              00000002
PDC3                              00000003
PDC4                              00000004
PDC5                              00000005
PDC6                              00000006
PEIE                              00000006
PEIE_GIEL                         00000006
PEN                               00000002
PGC                               00000006
PGD                               00000007
PGM                               00000005
PIDEE                             00000000
PIDEF                             00000000
PIE1                              00000F9D
PIE2                              00000FA0
PIR                               00000F9E
PIR1                              00000F9E
PIR2                              00000FA1
PKTDIS                            00000004
PLUSW0                            00000FEB
PLUSW1                            00000FE3
PLUSW2                            00000FDB
PMP_INT                           PIR1, PMPIF
POR                               00000001
PORTA                             00000F80
PORTB                             00000F81
PORTC                             00000F82
PORTD                             00000F83
PORTE                             00000F84
POSTDEC0                          00000FED
POSTDEC1                          00000FE5
POSTDEC2                          00000FDD
POSTINC0                          00000FEE
POSTINC1                          00000FE6
POSTINC2                          00000FDE
PPB0                              00000000
PPB1                              00000001
PPBI                              00000001
PPBRST                            00000006
PR2                               00000FCB
PREINC0                           00000FEC
PREINC1                           00000FE4
PREINC2                           00000FDC
PREV_ALT                          00000000
PREV_BANK                         00000000
PROD                              00000FF3
PRODH                             00000FF4
PRODL                             00000FF3
PRSEN                             00000007
PSA                               00000003
PSP_INT                           PIR1, PSPIF
PSSAC0                            00000002
PSSAC1                            00000003
MPASM 5.81                   PICKBYLIGHT.ASM   1-20-2021  23:46:00         PAGE 300


SYMBOL TABLE
  LABEL                             VALUE 

PSSBD0                            00000000
PSSBD1                            00000001
PT_INT                            PIR3, PTIF
Pbp                               00000001
Pfound                            00000001
PrList1B                          00000000
PrList1Priority                   00000048
PrList1R                          00000F9E
Priority                          00000048
R                                 00000002
R0                                00000002
R1                                00000004
R2                                00000006
R3                                00000008
R4                                0000000A
R5                                0000000C
R6                                0000000E
R7                                00000010
R8                                00000012
RA0                               00000000
RA1                               00000001
RA2                               00000002
RA3                               00000003
RA4                               00000004
RA5                               00000005
RA6                               00000006
RAM_BANKS                         00000008
RAM_END                           000007FF
RAM_START                         00000000
RB0                               00000000
RB1                               00000001
RB2                               00000002
RB3                               00000003
RB4                               00000004
RB5                               00000005
RB6                               00000006
RB7                               00000007
RBC_INT                           INTCON, RBIF
RBIE                              00000003
RBIF                              00000000
RBIP                              00000000
RBPU                              00000007
RC0                               00000000
RC1                               00000001
RC2                               00000002
RC4                               00000004
RC5                               00000005
RC6                               00000006
RC7                               00000007
RCEN                              00000003
RCIDL                             00000006
RCIE                              00000005
RCIF                              00000005
MPASM 5.81                   PICKBYLIGHT.ASM   1-20-2021  23:46:00         PAGE 301


SYMBOL TABLE
  LABEL                             VALUE 

RCIP                              00000005
RCMT                              00000006
RCON                              00000FD0
RCREG                             00000FAE
RCSTA                             00000FAB
RD                                00000000
RD0                               00000000
RD1                               00000001
RD16                              00000007
RD2                               00000002
RD3                               00000003
RD4                               00000004
RD5                               00000005
RD6                               00000006
RD7                               00000007
RDPU                              00000007
RDSPP                             00000007
RE0                               00000000
RE1                               00000001
RE2                               00000002
RE3                               00000003
READ_WRITE                        00000002
RESET_ORG                         00000000
RESUME                            00000002
RETURN?                           
RI                                00000004
RM1                               0000001D
RM2                               0000001E
RR1                               0000001F
RR2                               00000020
RS1                               00000021
RS2                               00000022
RSEN                              00000001
RST?RP                            
RX                                00000007
RX1_INT                           PIR1, RC1IF
RX2_INT                           PIR3, RC2IF
RX9                               00000006
RX9D                              00000000
RXDTP                             00000005
RX_INT                            PIR1, RCIF
R_NOT_W                           00000002
R_W                               00000002
ReEnterHPused                     1
RestFSR                           
RetAddrH                          00000024
RetAddrL                          00000027
S                                 00000003
SBOREN                            00000006
SCKP                              00000004
SCS0                              00000000
SCS1                              00000001
SDELAY_1200                       00000330
MPASM 5.81                   PICKBYLIGHT.ASM   1-20-2021  23:46:00         PAGE 302


SYMBOL TABLE
  LABEL                             VALUE 

SDELAY_2400                       00000190
SDELAY_300                        00000CF4
SDELAY_9600                       00000057
SE0                               00000005
SEN                               00000000
SENDB                             00000003
SER2_BITS                         8
SERDELAY_USED                     00000001
SERIN                             0000001C
SERIN?B                           
SERINQ?CL                         
SERINX_USED                       00000001
SERIN_USED                        00000001
SERMODE?C                         
SEROUT                            00000096
SEROUT?C                          
SEROUTD?C                         
SEROUTD?T                         
SEROUTDEC                         00000058
SEROUTDECL                        0000005A
SEROUTDEC_USED                    00000001
SEROUT_USED                       00000001
SERPIN?T                          
SMP                               00000007
SOFIE                             00000006
SOFIF                             00000006
SPBRG                             00000FAF
SPBRGH                            00000FB0
SPEN                              00000007
SPP0                              00000000
SPP1                              00000001
SPP2                              00000002
SPP3                              00000003
SPP4                              00000004
SPP5                              00000005
SPP6                              00000006
SPP7                              00000007
SPPBUSY                           00000004
SPPCFG                            00000F63
SPPCON                            00000F65
SPPDATA                           00000F62
SPPEN                             00000000
SPPEPS                            00000F64
SPPIE                             00000007
SPPIF                             00000007
SPPIP                             00000007
SPPOWN                            00000001
SPP_INT                           PIR1, SPPIF
SREN                              00000005
SSP1_INT                          PIR1, SSP1IF
SSP2_INT                          PIR3, SSP2IF
SSPADD                            00000FC8
SSPBUF                            00000FC9
MPASM 5.81                   PICKBYLIGHT.ASM   1-20-2021  23:46:00         PAGE 303


SYMBOL TABLE
  LABEL                             VALUE 

SSPCON1                           00000FC6
SSPCON2                           00000FC5
SSPEN                             00000005
SSPIE                             00000003
SSPIF                             00000003
SSPIP                             00000003
SSPM0                             00000000
SSPM1                             00000001
SSPM2                             00000002
SSPM3                             00000003
SSPOV                             00000006
SSPSTAT                           00000FC7
SSP_INT                           PIR1, SSPIF
STALLIE                           00000005
STALLIF                           00000005
STATUS                            00000FD8
STKFUL                            00000007
STKOVF                            00000007
STKPTR                            00000FFC
STKPTR0                           00000000
STKPTR1                           00000001
STKPTR2                           00000002
STKPTR3                           00000003
STKPTR4                           00000004
STKUNF                            00000006
SUSPND                            00000001
SWDTE                             00000000
SWDTEN                            00000000
SYNC                              00000004
SaveFSR                           
Save_TBLPTR                       00000001
T08BIT                            00000006
T0CKI                             00000004
T0CON                             00000FD5
T0CS                              00000005
T0IE                              00000005
T0IF                              00000002
T0IP                              00000002
T0PS0                             00000000
T0PS1                             00000001
T0PS2                             00000002
T0SE                              00000004
T1                                00000014
T13CKI                            00000000
T1CKPS0                           00000004
T1CKPS1                           00000005
T1CON                             00000FCD
T1OSCEN                           00000003
T1OSI                             00000001
T1OSO                             00000000
T1RUN                             00000006
T1SYNC                            00000002
T2                                00000016
MPASM 5.81                   PICKBYLIGHT.ASM   1-20-2021  23:46:00         PAGE 304


SYMBOL TABLE
  LABEL                             VALUE 

T2CKPS0                           00000000
T2CKPS1                           00000001
T2CON                             00000FCA
T2OUTPS0                          00000003
T2OUTPS1                          00000004
T2OUTPS2                          00000005
T2OUTPS3                          00000006
T3                                00000018
T3CCP1                            00000003
T3CCP2                            00000006
T3CKPS0                           00000004
T3CKPS1                           00000005
T3CON                             00000FB1
T3NSYNC                           00000002
T3SYNC                            00000002
T4                                0000001A
TABLAT                            00000FF5
TBLPTR                            00000FF6
TBLPTRH                           00000FF7
TBLPTRL                           00000FF6
TBLPTRU                           00000FF8
TMR0                              00000FD6
TMR0H                             00000FD7
TMR0IE                            00000005
TMR0IF                            00000002
TMR0IP                            00000002
TMR0L                             00000FD6
TMR0ON                            00000007
TMR0_INT                          INTCON, TMR0IF
TMR1                              00000FCE
TMR1CS                            00000001
TMR1H                             00000FCF
TMR1IE                            00000000
TMR1IF                            00000000
TMR1IP                            00000000
TMR1L                             00000FCE
TMR1ON                            00000000
TMR1_INT                          PIR1, TMR1IF
TMR2                              00000FCC
TMR2IE                            00000001
TMR2IF                            00000001
TMR2IP                            00000001
TMR2ON                            00000002
TMR2_INT                          PIR1, TMR2IF
TMR3                              00000FB2
TMR3CS                            00000001
TMR3H                             00000FB3
TMR3IE                            00000001
TMR3IF                            00000001
TMR3IP                            00000001
TMR3L                             00000FB2
TMR3ON                            00000000
TMR3_INT                          PIR2, TMR3IF
MPASM 5.81                   PICKBYLIGHT.ASM   1-20-2021  23:46:00         PAGE 305


SYMBOL TABLE
  LABEL                             VALUE 

TMR4_INT                          PIR3, TMR4IF
TMR5_INT                          PIR3, TMR5IF
TO                                00000003
TOS                               00000FFD
TOSH                              00000FFE
TOSL                              00000FFD
TOSU                              00000FFF
TOUTPS0                           00000003
TOUTPS1                           00000004
TOUTPS2                           00000005
TOUTPS3                           00000006
TRISA                             00000F92
TRISA0                            00000000
TRISA1                            00000001
TRISA2                            00000002
TRISA3                            00000003
TRISA4                            00000004
TRISA5                            00000005
TRISA6                            00000006
TRISB                             00000F93
TRISB0                            00000000
TRISB1                            00000001
TRISB2                            00000002
TRISB3                            00000003
TRISB4                            00000004
TRISB5                            00000005
TRISB6                            00000006
TRISB7                            00000007
TRISC                             00000F94
TRISC0                            00000000
TRISC1                            00000001
TRISC2                            00000002
TRISC6                            00000006
TRISC7                            00000007
TRISD                             00000F95
TRISD0                            00000000
TRISD1                            00000001
TRISD2                            00000002
TRISD3                            00000003
TRISD4                            00000004
TRISD5                            00000005
TRISD6                            00000006
TRISD7                            00000007
TRISE                             00000F96
TRISE0                            00000000
TRISE1                            00000001
TRISE2                            00000002
TRMT                              00000001
TRNIE                             00000003
TRNIF                             00000003
TUN0                              00000000
TUN1                              00000001
TUN2                              00000002
MPASM 5.81                   PICKBYLIGHT.ASM   1-20-2021  23:46:00         PAGE 306


SYMBOL TABLE
  LABEL                             VALUE 

TUN3                              00000003
TUN4                              00000004
TX                                00000006
TX1_INT                           PIR1, TX1IF
TX2_INT                           PIR3, TX2IF
TX9                               00000006
TX9D                              00000000
TXCKP                             00000004
TXEN                              00000005
TXIE                              00000004
TXIF                              00000004
TXIP                              00000004
TXREG                             00000FAD
TXSTA                             00000FAC
TX_INT                            PIR1, TXIF
UA                                00000001
UADDR                             00000F6E
UCFG                              00000F6F
UCON                              00000F6D
UEIE                              00000F6B
UEIR                              00000F6A
UEP0                              00000F70
UEP1                              00000F71
UEP10                             00000F7A
UEP11                             00000F7B
UEP12                             00000F7C
UEP13                             00000F7D
UEP14                             00000F7E
UEP15                             00000F7F
UEP2                              00000F72
UEP3                              00000F73
UEP4                              00000F74
UEP5                              00000F75
UEP6                              00000F76
UEP7                              00000F77
UEP8                              00000F78
UEP9                              00000F79
UERRIE                            00000001
UERRIF                            00000001
UFRM                              00000F66
UFRMH                             00000F67
UFRML                             00000F66
UIE                               00000F69
UIR                               00000F68
UOEMON                            00000006
UPUEN                             00000004
URSTIE                            00000000
URSTIF                            00000000
USBEN                             00000003
USBIE                             00000005
USBIF                             00000005
USBIP                             00000005
USB_ACTV_INT                      UIR,  ACTVIF
MPASM 5.81                   PICKBYLIGHT.ASM   1-20-2021  23:46:00         PAGE 307


SYMBOL TABLE
  LABEL                             VALUE 

USB_BTO_INT                       UEIR, BTOEF
USB_BTS_INT                       UEIR, BTSEF
USB_CRC16_INT                     UEIR, CRC16EF
USB_CRC5_INT                      UEIR, CRC5EF
USB_DFN8_INT                      UEIR, DFN8EF
USB_ERR_INT                       UIR,  UERRIF
USB_IDLE_INT                      UIR,  IDLEIF
USB_INT                           PIR2, USBIF
USB_PID_INT                       UEIR, PIDEF
USB_RST_INT                       UIR,  URSTIF
USB_SOF_INT                       UIR,  SOFIF
USB_STALL_INT                     UIR,  STALLIF
USB_TRN_INT                       UIR,  TRNIF
USTAT                             00000F6C
UTEYE                             00000007
UTRDIS                            00000003
VCFG0                             00000004
VCFG1                             00000005
VDIRMAG                           00000007
VREFM                             00000002
VREFP                             00000003
W                                 00000000
WCOL                              00000007
WDTCON                            00000FD1
WR                                00000001
WREG                              00000FE8
WREN                              00000002
WRERR                             00000003
WRSPP                             00000006
WS0                               00000000
WS1                               00000001
WS2                               00000002
WS3                               00000003
WUE                               00000001
YES                               00000001
Yes                               00000001
Z                                 00000002
_BORV_0_2L                        000000E7
_BORV_1_2L                        000000EF
_BORV_2_2L                        000000F7
_BORV_3_2L                        000000FF
_BOR_OFF_2L                       000000F9
_BOR_ON_2L                        000000FF
_BOR_ON_ACTIVE_2L                 000000FD
_BOR_SOFT_2L                      000000FB
_CCP2MX_OFF_3H                    000000FE
_CCP2MX_ON_3H                     000000FF
_CONFIG1H                         00300001
_CONFIG1L                         00300000
_CONFIG2H                         00300003
_CONFIG2L                         00300002
_CONFIG3H                         00300005
_CONFIG4L                         00300006
MPASM 5.81                   PICKBYLIGHT.ASM   1-20-2021  23:46:00         PAGE 308


SYMBOL TABLE
  LABEL                             VALUE 

_CONFIG5H                         00300009
_CONFIG5L                         00300008
_CONFIG6H                         0030000B
_CONFIG6L                         0030000A
_CONFIG7H                         0030000D
_CONFIG7L                         0030000C
_CP0_OFF_5L                       000000FF
_CP0_ON_5L                        000000FE
_CP1_OFF_5L                       000000FF
_CP1_ON_5L                        000000FD
_CP2_OFF_5L                       000000FF
_CP2_ON_5L                        000000FB
_CP3_OFF_5L                       000000FF
_CP3_ON_5L                        000000F7
_CPB_OFF_5H                       000000FF
_CPB_ON_5H                        000000BF
_CPD_OFF_5H                       000000FF
_CPD_ON_5H                        0000007F
_CPUDIV_OSC1_PLL2_1L              000000E7
_CPUDIV_OSC2_PLL3_1L              000000EF
_CPUDIV_OSC3_PLL4_1L              000000F7
_CPUDIV_OSC4_PLL6_1L              000000FF
_DEBUG_OFF_4L                     000000FF
_DEBUG_ON_4L                      0000007F
_DEVID1                           003FFFFE
_DEVID2                           003FFFFF
_DoInputs                         00000A3C
_DoOutputs                        00000B3C
_EBTR0_OFF_7L                     000000FF
_EBTR0_ON_7L                      000000FE
_EBTR1_OFF_7L                     000000FF
_EBTR1_ON_7L                      000000FD
_EBTR2_OFF_7L                     000000FF
_EBTR2_ON_7L                      000000FB
_EBTR3_OFF_7L                     000000FF
_EBTR3_ON_7L                      000000F7
_EBTRB_OFF_7H                     000000FF
_EBTRB_ON_7H                      000000BF
_FCMEN_OFF_1H                     000000BF
_FCMEN_ON_1H                      000000FF
_FOSC_ECIO_EC_1H                  000000F4
_FOSC_ECPLLIO_EC_1H               000000F6
_FOSC_ECPLL_EC_1H                 000000F7
_FOSC_EC_EC_1H                    000000F5
_FOSC_HSPLL_HS_1H                 000000FE
_FOSC_HS_1H                       000000FC
_FOSC_INTOSCIO_EC_1H              000000F8
_FOSC_INTOSC_EC_1H                000000F9
_FOSC_INTOSC_HS_1H                000000FB
_FOSC_INTOSC_XT_1H                000000FA
_FOSC_XTPLL_XT_1H                 000000F2
_FOSC_XT_XT_1H                    000000F0
_Flag_GOP_H                       0000008C
MPASM 5.81                   PICKBYLIGHT.ASM   1-20-2021  23:46:00         PAGE 309


SYMBOL TABLE
  LABEL                             VALUE 

_Flag_GOP_H??HIGHBYTE             0000008D
_Flag_GOP_H??LOWBYTE              0000008C
_Flags_SaveH                      0000008C
_GOP_SaveH                        0000008D
_HP_Vars                          00000072
_ICPRT_OFF_4L                     000000DF
_ICPRT_ON_4L                      000000FF
_IDLOC0                           00200000
_IDLOC1                           00200001
_IDLOC2                           00200002
_IDLOC3                           00200003
_IDLOC4                           00200004
_IDLOC5                           00200005
_IDLOC6                           00200006
_IDLOC7                           00200007
_IESO_OFF_1H                      0000007F
_IESO_ON_1H                       000000FF
_INTCON2??7                       INTCON2, 007h
_INT_Flags??0                     INT_Flags, 000h
_INT_Flags??1                     INT_Flags, 001h
_INT_Flags??2                     INT_Flags, 002h
_INT_Flags??3                     INT_Flags, 003h
_InHPint                          _INT_Flags??2
_Init                             00000428
_InputA1                          PB01, 000h
_InputA2                          PB01, 001h
_InputA3                          PB01, 002h
_InputA4                          PB01, 003h
_LPT1OSC_OFF_3H                   000000FB
_LPT1OSC_ON_3H                    000000FF
_LVP_OFF_4L                       000000FB
_LVP_ON_4L                        000000FF
_MCLRE_OFF_3H                     0000007F
_MCLRE_ON_3H                      000000FF
_Main                             00000A30
_NewStateA1                       PB01, 004h
_NewStateA2                       PB01, 005h
_NewStateA3                       PB01, 006h
_NewStateA4                       PB01, 007h
_NoPriority                       _INT_Flags??3
_OVER_DT_INTS_18                  000001F2
_OldStateA1                       PB02, 000h
_OldStateA2                       PB02, 001h
_OldStateA3                       PB02, 002h
_OldStateA4                       PB02, 003h
_OverReEnterH                     00000378
_PBADEN_OFF_3H                    000000FD
_PBADEN_ON_3H                     000000FF
_PLLDIV_10_1L                     000000FE
_PLLDIV_12_1L                     000000FF
_PLLDIV_1_1L                      000000F8
_PLLDIV_2_1L                      000000F9
_PLLDIV_3_1L                      000000FA
MPASM 5.81                   PICKBYLIGHT.ASM   1-20-2021  23:46:00         PAGE 310


SYMBOL TABLE
  LABEL                             VALUE 

_PLLDIV_4_1L                      000000FB
_PLLDIV_5_1L                      000000FC
_PLLDIV_6_1L                      000000FD
_PORTA??0                         PORTA, 000h
_PORTA??1                         PORTA, 001h
_PORTA??2                         PORTA, 002h
_PORTA??3                         PORTA, 003h
_PORTD??0                         PORTD, 000h
_PORTD??1                         PORTD, 001h
_PORTD??2                         PORTD, 002h
_PORTD??3                         PORTD, 003h
_PORTD??6                         PORTD, 006h
_PORTD??7                         PORTD, 007h
_PORTH                            00000F82
_PORTL                            00000F81
_PWRT_OFF_2L                      000000FF
_PWRT_ON_2L                       000000FE
_Product_H                        000000B4
_R0_SaveH                         00000072
_R1_SaveH                         00000076
_R2_SaveH                         0000007A
_R3_SaveH                         0000007E
_R4_SaveH                         00000082
_R5_SaveH                         00000084
_R6_SaveH                         00000086
_R7_SaveH                         00000088
_R8_SaveH                         0000008A
_RM1_SaveH                        0000008E
_RM2_SaveH                        0000008F
_RM_H                             0000008E
_RM_H??HIGHBYTE                   0000008F
_RM_H??LOWBYTE                    0000008E
_RR1_SaveH                        00000090
_RR2_SaveH                        00000091
_RR_H                             00000090
_RR_H??HIGHBYTE                   00000091
_RR_H??LOWBYTE                    00000090
_RS1_SaveH                        00000092
_RS2_SaveH                        00000093
_RS_H                             00000092
_RS_H??HIGHBYTE                   00000093
_RS_H??LOWBYTE                    00000092
_ReadInputs                       00000C66
_RestorePBP_H                     000002B8
_STVREN_OFF_4L                    000000FE
_STVREN_ON_4L                     000000FF
_SavePBP_H                        000001F8
_SendInterfaceDetail              00000BE2
_Serviced_H                       _INT_Flags??0
_Serviced_L                       _INT_Flags??1
_T1_SaveH                         00000094
_T2_SaveH                         00000098
_T3_SaveH                         0000009C
MPASM 5.81                   PICKBYLIGHT.ASM   1-20-2021  23:46:00         PAGE 311


SYMBOL TABLE
  LABEL                             VALUE 

_T4_SaveH                         000000A0
_T5_SaveH                         000000A4
_T6_SaveH                         000000A8
_T7_SaveH                         000000AC
_TBLPTRH_SaveH                    000000B3
_TBLPTRL_SaveH                    000000B2
_TBLPTRU_H                        000000B0
_TBLPTRU_H??LOWBYTE               000000B0
_TBLPTRU_SaveH                    000000B0
_TBLPTR_H                         000000B2
_TBLPTR_H??HIGHBYTE               000000B3
_TBLPTR_H??LOWBYTE                000000B2
_TRISH                            00000F94
_TRISL                            00000F93
_UCFG??3                          UCFG, 003h
_UCON??3                          UCON, 003h
_USBDIV_1_1L                      000000DF
_USBDIV_2_1L                      000000FF
_USBMEMORYADDRESS                 00000400
_VREGEN_OFF_2L                    000000DF
_VREGEN_ON_2L                     000000FF
_VarsSaved_H                      PB02, 004h
_WDTPS_1024_2H                    000000F5
_WDTPS_128_2H                     000000EF
_WDTPS_16384_2H                   000000FD
_WDTPS_16_2H                      000000E9
_WDTPS_1_2H                       000000E1
_WDTPS_2048_2H                    000000F7
_WDTPS_256_2H                     000000F1
_WDTPS_2_2H                       000000E3
_WDTPS_32768_2H                   000000FF
_WDTPS_32_2H                      000000EB
_WDTPS_4096_2H                    000000F9
_WDTPS_4_2H                       000000E5
_WDTPS_512_2H                     000000F3
_WDTPS_64_2H                      000000ED
_WDTPS_8192_2H                    000000FB
_WDTPS_8_2H                       000000E7
_WDT_OFF_2H                       000000FE
_WDT_ON_2H                        000000FF
_WRT0_OFF_6L                      000000FF
_WRT0_ON_6L                       000000FE
_WRT1_OFF_6L                      000000FF
_WRT1_ON_6L                       000000FD
_WRT2_OFF_6L                      000000FF
_WRT2_ON_6L                       000000FB
_WRT3_OFF_6L                      000000FF
_WRT3_ON_6L                       000000F7
_WRTB_OFF_6H                      000000FF
_WRTB_ON_6H                       000000BF
_WRTC_OFF_6H                      000000FF
_WRTC_ON_6H                       000000DF
_WRTD_OFF_6H                      000000FF
MPASM 5.81                   PICKBYLIGHT.ASM   1-20-2021  23:46:00         PAGE 312


SYMBOL TABLE
  LABEL                             VALUE 

_WRTD_ON_6H                       0000007F
_XINST_OFF_4L                     000000BF
_XINST_ON_4L                      000000FF
__18F4550                         00000001
__OutputA1                        _PORTD??2
__OutputA2                        _PORTD??3
__OutputA3                        _PORTD??1
__OutputA4                        _PORTD??0
__inputA1                         _PORTA??0
__inputA2                         _PORTA??1
__inputA3                         _PORTA??2
__inputA4                         _PORTA??3
__rs232Rx                         _PORTD??6
__rs232Tx                         _PORTD??7
_majorVer                         00000001
_revisionVer                      00000005
_rs232_bps                        00000006
_senddata                         00000AC0
_tmp                              0000002D
_x                                0000002C
asm                               00000000
bsave                             0000006C
divloop                           00000182
divok                             0000019C
fsave0H                           00000060
fsave0L                           00000062
fsave1H                           00000064
fsave1L                           00000066
fsave2H                           00000068
fsave2L                           0000006A
h                                 00000048
l                                 0000004C
main                              000001B0
no                                00000000
pauseloop                         00000136
pauseusdone                       0000016E
pauseush                          0000015E
pauseusloop                       00000158
pbp                               00000001
psaveH                            0000006D
psaveL                            0000006E
psaveUH                           0000006F
psaveUL                           00000070
serdelay                          000000F8
serinbit                          00000042
serindone                         0000003E
serinloop                         00000030
serinloop0                        00000024
serinstart                        0000002A
serouta                           00000094
seroutbit                         000000C8
seroutdig                         0000007E
seroutloop                        000000AE
MPASM 5.81                   PICKBYLIGHT.ASM   1-20-2021  23:46:00         PAGE 313


SYMBOL TABLE
  LABEL                             VALUE 

seroutnorm                        000000E2
sersdelay                         000000F6
sertable                          0000012A
ssave                             00000071
wsave                             00000023
yes                               00000001


MEMORY USAGE MAP ('X' = Used,  '-' = Unused)

0000 : XXXX----XXXX---- --------XXXXXXXX XXXXXXXXXXXXXXXX XXXXXXXXXXXXXXXX
0040 : XXXXXXXXXXXXXXXX XXXXXXXXXXXXXXXX XXXXXXXXXXXXXXXX XXXXXXXXXXXXXXXX
0080 : XXXXXXXXXXXXXXXX XXXXXXXXXXXXXXXX XXXXXXXXXXXXXXXX XXXXXXXXXXXXXXXX
00C0 : XXXXXXXXXXXXXXXX XXXXXXXXXXXXXXXX XXXXXXXXXXXXXXXX XXXXXXXXXXXXXXXX
0100 : XXXXXXXXXXXXXXXX XXXXXXXXXXXXXXXX XXXXXXXXXXXXXXXX XXXXXXXXXXXXXXXX
0140 : XXXXXXXXXXXXXXXX XXXXXXXXXXXXXXXX XXXXXXXXXXXXXXXX XXXXXXXXXXXXXXXX
0180 : XXXXXXXXXXXXXXXX XXXXXXXXXXXXXXXX XXXXXXXXXXXXXXXX XXXXXXXXXXXXXXXX
01C0 : XXXXXXXXXXXXXXXX XXXXXXXXXXXXXXXX XXXXXXXXXXXXXXXX XXXXXXXXXXXXXXXX
0200 : XXXXXXXXXXXXXXXX XXXXXXXXXXXXXXXX XXXXXXXXXXXXXXXX XXXXXXXXXXXXXXXX
0240 : XXXXXXXXXXXXXXXX XXXXXXXXXXXXXXXX XXXXXXXXXXXXXXXX XXXXXXXXXXXXXXXX
0280 : XXXXXXXXXXXXXXXX XXXXXXXXXXXXXXXX XXXXXXXXXXXXXXXX XXXXXXXXXXXXXXXX
02C0 : XXXXXXXXXXXXXXXX XXXXXXXXXXXXXXXX XXXXXXXXXXXXXXXX XXXXXXXXXXXXXXXX
0300 : XXXXXXXXXXXXXXXX XXXXXXXXXXXXXXXX XXXXXXXXXXXXXXXX XXXXXXXXXXXXXXXX
0340 : XXXXXXXXXXXXXXXX XXXXXXXXXXXXXXXX XXXXXXXXXXXXXXXX XXXXXXXXXXXXXXXX
0380 : XXXXXXXXXXXXXXXX XXXXXXXXXXXXXXXX XXXXXXXXXXXXXXXX XXXXXXXXXXXXXXXX
03C0 : XXXXXXXXXXXXXXXX XXXXXXXXXXXXXXXX XXXXXXXXXXXXXXXX XXXXXXXXXXXXXXXX
0400 : XXXXXXXXXXXXXXXX XXXXXXXXXXXXXXXX XXXXXXXXXXXXXXXX XXXXXXXXXXXXXXXX
0440 : XXXXXXXXXXXXXXXX XXXXXXXXXXXXXXXX XXXXXXXXXXXXXXXX XXXXXXXXXXXXXXXX
0480 : XXXXXXXXXXXXXXXX XXXXXXXXXXXXXXXX XXXXXXXXXXXXXXXX XXXXXXXXXXXXXXXX
04C0 : XXXXXXXXXXXXXXXX XXXXXXXXXXXXXXXX XXXXXXXXXXXXXXXX XXXXXXXXXXXXXXXX
0500 : XXXXXXXXXXXXXXXX XXXXXXXXXXXXXXXX XXXXXXXXXXXXXXXX XXXXXXXXXXXXXXXX
0540 : XXXXXXXXXXXXXXXX XXXXXXXXXXXXXXXX XXXXXXXXXXXXXXXX XXXXXXXXXXXXXXXX
0580 : XXXXXXXXXXXXXXXX XXXXXXXXXXXXXXXX XXXXXXXXXXXXXXXX XXXXXXXXXXXXXXXX
05C0 : XXXXXXXXXXXXXXXX XXXXXXXXXXXXXXXX XXXXXXXXXXXXXXXX XXXXXXXXXXXXXXXX
0600 : XXXXXXXXXXXXXXXX XXXXXXXXXXXXXXXX XXXXXXXXXXXXXXXX XXXXXXXXXXXXXXXX
0640 : XXXXXXXXXXXXXXXX XXXXXXXXXXXXXXXX XXXXXXXXXXXXXXXX XXXXXXXXXXXXXXXX
0680 : XXXXXXXXXXXXXXXX XXXXXXXXXXXXXXXX XXXXXXXXXXXXXXXX XXXXXXXXXXXXXXXX
06C0 : XXXXXXXXXXXXXXXX XXXXXXXXXXXXXXXX XXXXXXXXXXXXXXXX XXXXXXXXXXXXXXXX
0700 : XXXXXXXXXXXXXXXX XXXXXXXXXXXXXXXX XXXXXXXXXXXXXXXX XXXXXXXXXXXXXXXX
0740 : XXXXXXXXXXXXXXXX XXXXXXXXXXXXXXXX XXXXXXXXXXXXXXXX XXXXXXXXXXXXXXXX
0780 : XXXXXXXXXXXXXXXX XXXXXXXXXXXXXXXX XXXXXXXXXXXXXXXX XXXXXXXXXXXXXXXX
07C0 : XXXXXXXXXXXXXXXX XXXXXXXXXXXXXXXX XXXXXXXXXXXXXXXX XXXXXXXXXXXXXXXX
0800 : XXXXXXXXXXXXXXXX XXXXXXXXXXXXXXXX XXXXXXXXXXXXXXXX XXXXXXXXXXXXXXXX
0840 : XXXXXXXXXXXXXXXX XXXXXXXXXXXXXXXX XXXXXXXXXXXXXXXX XXXXXXXXXXXXXXXX
0880 : XXXXXXXXXXXXXXXX XXXXXXXXXXXXXXXX XXXXXXXXXXXXXXXX XXXXXXXXXXXXXXXX
08C0 : XXXXXXXXXXXXXXXX XXXXXXXXXXXXXXXX XXXXXXXXXXXXXXXX XXXXXXXXXXXXXXXX
MPASM 5.81                   PICKBYLIGHT.ASM   1-20-2021  23:46:00         PAGE 314


MEMORY USAGE MAP ('X' = Used,  '-' = Unused)


0900 : XXXXXXXXXXXXXXXX XXXXXXXXXXXXXXXX XXXXXXXXXXXXXXXX XXXXXXXXXXXXXXXX
0940 : XXXXXXXXXXXXXXXX XXXXXXXXXXXXXXXX XXXXXXXXXXXXXXXX XXXXXXXXXXXXXXXX
0980 : XXXXXXXXXXXXXXXX XXXXXXXXXXXXXXXX XXXXXXXXXXXXXXXX XXXXXXXXXXXXXXXX
09C0 : XXXXXXXXXXXXXXXX XXXXXXXXXXXXXXXX XXXXXXXXXXXXXXXX XXXXXXXXXXXXXXXX
0A00 : XXXXXXXXXXXXXXXX XXXXXXXXXXXXXXXX XXXXXXXXXXXXXXXX XXXXXXXXXXXXXXXX
0A40 : XXXXXXXXXXXXXXXX XXXXXXXXXXXXXXXX XXXXXXXXXXXXXXXX XXXXXXXXXXXXXXXX
0A80 : XXXXXXXXXXXXXXXX XXXXXXXXXXXXXXXX XXXXXXXXXXXXXXXX XXXXXXXXXXXXXXXX
0AC0 : XXXXXXXXXXXXXXXX XXXXXXXXXXXXXXXX XXXXXXXXXXXXXXXX XXXXXXXXXXXXXXXX
0B00 : XXXXXXXXXXXXXXXX XXXXXXXXXXXXXXXX XXXXXXXXXXXXXXXX XXXXXXXXXXXXXXXX
0B40 : XXXXXXXXXXXXXXXX XXXXXXXXXXXXXXXX XXXXXXXXXXXXXXXX XXXXXXXXXXXXXXXX
0B80 : XXXXXXXXXXXXXXXX XXXXXXXXXXXXXXXX XXXXXXXXXXXXXXXX XXXXXXXXXXXXXXXX
0BC0 : XXXXXXXXXXXXXXXX XXXXXXXXXXXXXXXX XXXXXXXXXXXXXXXX XXXXXXXXXXXXXXXX
0C00 : XXXXXXXXXXXXXXXX XXXXXXXXXXXXXXXX XXXXXXXXXXXXXXXX XXXXXXXXXXXXXXXX
0C40 : XXXXXXXXXXXXXXXX XXXXXXXXXXXXXXXX XXXXXXXXXXXXXXXX XXXXXXXXXXXXXXXX
0C80 : XXXXXXXXXXXXXXXX XXXXXXXXXXXXXXXX XXXXXXXXXXXXXXXX XXXXXXXXXXXXXXXX
0CC0 : XXXXXXXXXXXXXXXX XXXXXXXXXXXXXXXX XXXXXXXXXXXXXXXX XXXXXXXXXXXXXXXX
0D00 : XXXX------------ ---------------- ---------------- ----------------
0000 : XXXXXXXXXX------ ---------------- ---------------- ----------------

All other memory blocks unused.

Program Memory Bytes Used:  3326
Program Memory Bytes Free: 29442


Errors   :     0
Warnings :     1 reported,     8 suppressed
Messages :     0 reported,     0 suppressed

